
/home/ok1gal/pico-projects/digigen/build/digigen.elf:     file format elf32-littlearm

Sections:
Idx Name          Size      VMA       LMA       File off  Algn
  0 .boot2        00000100  10000000  10000000  00001000  2**0
                  CONTENTS, ALLOC, LOAD, READONLY, CODE
  1 .text         0000ad00  10000100  10000100  00001100  2**3
                  CONTENTS, ALLOC, LOAD, READONLY, CODE
  2 .rodata       00001d40  1000ae00  1000ae00  0000be00  2**3
                  CONTENTS, ALLOC, LOAD, READONLY, DATA
  3 .binary_info  00000024  1000cb40  1000cb40  0000db40  2**2
                  CONTENTS, ALLOC, LOAD, READONLY, DATA
  4 .ram_vector_table 000000c0  20000000  20000000  00010000  2**2
                  ALLOC
  5 .data         0000134c  200000c0  1000cb64  0000e0c0  2**4
                  CONTENTS, ALLOC, LOAD, READONLY, CODE
  6 .uninitialized_data 00000000  2000140c  2000140c  0000f40c  2**0
                  CONTENTS
  7 .scratch_x    00000000  20040000  20040000  0000f40c  2**0
                  CONTENTS
  8 .scratch_y    00000000  20041000  20041000  0000f40c  2**0
                  CONTENTS
  9 .bss          00001150  20001410  20001410  00010000  2**3
                  ALLOC
 10 .heap         00000800  20002560  20002560  0000f40c  2**2
                  CONTENTS, READONLY
 11 .stack1_dummy 00000800  20040000  20040000  00010000  2**2
                  ALLOC
 12 .stack_dummy  00000800  20041000  20041000  0000fc20  2**5
                  CONTENTS, READONLY
 13 .ARM.attributes 00000028  00000000  00000000  00010420  2**0
                  CONTENTS, READONLY
 14 .comment      00000026  00000000  00000000  00010448  2**0
                  CONTENTS, READONLY
 15 .debug_info   00036dad  00000000  00000000  0001046e  2**0
                  CONTENTS, READONLY, DEBUGGING, OCTETS
 16 .debug_abbrev 0000a8c5  00000000  00000000  0004721b  2**0
                  CONTENTS, READONLY, DEBUGGING, OCTETS
 17 .debug_loclists 000172a7  00000000  00000000  00051ae0  2**0
                  CONTENTS, READONLY, DEBUGGING, OCTETS
 18 .debug_aranges 00001d60  00000000  00000000  00068d88  2**3
                  CONTENTS, READONLY, DEBUGGING, OCTETS
 19 .debug_rnglists 00001c53  00000000  00000000  0006aae8  2**0
                  CONTENTS, READONLY, DEBUGGING, OCTETS
 20 .debug_line   0001e1d2  00000000  00000000  0006c73b  2**0
                  CONTENTS, READONLY, DEBUGGING, OCTETS
 21 .debug_str    00009262  00000000  00000000  0008a90d  2**0
                  CONTENTS, READONLY, DEBUGGING, OCTETS
 22 .debug_frame  00004364  00000000  00000000  00093b70  2**2
                  CONTENTS, READONLY, DEBUGGING, OCTETS
 23 .debug_line_str 000002d4  00000000  00000000  00097ed4  2**0
                  CONTENTS, READONLY, DEBUGGING, OCTETS

/home/ok1gal/pico-projects/digigen/build/digigen.elf:     file format elf32-littlearm


Disassembly of section .boot2:

10000000 <__boot2_start__>:
10000000:	4b32b500 	.word	0x4b32b500
10000004:	60582021 	.word	0x60582021
10000008:	21026898 	.word	0x21026898
1000000c:	60984388 	.word	0x60984388
10000010:	611860d8 	.word	0x611860d8
10000014:	4b2e6158 	.word	0x4b2e6158
10000018:	60992100 	.word	0x60992100
1000001c:	61592102 	.word	0x61592102
10000020:	22f02101 	.word	0x22f02101
10000024:	492b5099 	.word	0x492b5099
10000028:	21016019 	.word	0x21016019
1000002c:	20356099 	.word	0x20356099
10000030:	f844f000 	.word	0xf844f000
10000034:	42902202 	.word	0x42902202
10000038:	2106d014 	.word	0x2106d014
1000003c:	f0006619 	.word	0xf0006619
10000040:	6e19f834 	.word	0x6e19f834
10000044:	66192101 	.word	0x66192101
10000048:	66182000 	.word	0x66182000
1000004c:	f000661a 	.word	0xf000661a
10000050:	6e19f82c 	.word	0x6e19f82c
10000054:	6e196e19 	.word	0x6e196e19
10000058:	f0002005 	.word	0xf0002005
1000005c:	2101f82f 	.word	0x2101f82f
10000060:	d1f94208 	.word	0xd1f94208
10000064:	60992100 	.word	0x60992100
10000068:	6019491b 	.word	0x6019491b
1000006c:	60592100 	.word	0x60592100
10000070:	481b491a 	.word	0x481b491a
10000074:	21016001 	.word	0x21016001
10000078:	21eb6099 	.word	0x21eb6099
1000007c:	21a06619 	.word	0x21a06619
10000080:	f0006619 	.word	0xf0006619
10000084:	2100f812 	.word	0x2100f812
10000088:	49166099 	.word	0x49166099
1000008c:	60014814 	.word	0x60014814
10000090:	60992101 	.word	0x60992101
10000094:	2800bc01 	.word	0x2800bc01
10000098:	4700d000 	.word	0x4700d000
1000009c:	49134812 	.word	0x49134812
100000a0:	c8036008 	.word	0xc8036008
100000a4:	8808f380 	.word	0x8808f380
100000a8:	b5034708 	.word	0xb5034708
100000ac:	20046a99 	.word	0x20046a99
100000b0:	d0fb4201 	.word	0xd0fb4201
100000b4:	42012001 	.word	0x42012001
100000b8:	bd03d1f8 	.word	0xbd03d1f8
100000bc:	6618b502 	.word	0x6618b502
100000c0:	f7ff6618 	.word	0xf7ff6618
100000c4:	6e18fff2 	.word	0x6e18fff2
100000c8:	bd026e18 	.word	0xbd026e18
100000cc:	40020000 	.word	0x40020000
100000d0:	18000000 	.word	0x18000000
100000d4:	00070000 	.word	0x00070000
100000d8:	005f0300 	.word	0x005f0300
100000dc:	00002221 	.word	0x00002221
100000e0:	180000f4 	.word	0x180000f4
100000e4:	a0002022 	.word	0xa0002022
100000e8:	10000100 	.word	0x10000100
100000ec:	e000ed08 	.word	0xe000ed08
	...
100000fc:	7a4eb274 	.word	0x7a4eb274

Disassembly of section .text:

10000100 <__VECTOR_TABLE>:
10000100:	20042000 	.word	0x20042000
10000104:	100001f7 	.word	0x100001f7
10000108:	100001c3 	.word	0x100001c3
1000010c:	100001c5 	.word	0x100001c5
10000110:	100001c1 	.word	0x100001c1
10000114:	100001c1 	.word	0x100001c1
10000118:	100001c1 	.word	0x100001c1
1000011c:	100001c1 	.word	0x100001c1
10000120:	100001c1 	.word	0x100001c1
10000124:	100001c1 	.word	0x100001c1
10000128:	100001c1 	.word	0x100001c1
1000012c:	100001c7 	.word	0x100001c7
10000130:	100001c1 	.word	0x100001c1
10000134:	100001c1 	.word	0x100001c1
10000138:	100001c9 	.word	0x100001c9
1000013c:	100001cb 	.word	0x100001cb
10000140:	100001cd 	.word	0x100001cd
10000144:	100001cd 	.word	0x100001cd
10000148:	100001cd 	.word	0x100001cd
1000014c:	100001cd 	.word	0x100001cd
10000150:	100001cd 	.word	0x100001cd
10000154:	100001cd 	.word	0x100001cd
10000158:	100001cd 	.word	0x100001cd
1000015c:	100001cd 	.word	0x100001cd
10000160:	100001cd 	.word	0x100001cd
10000164:	100001cd 	.word	0x100001cd
10000168:	100001cd 	.word	0x100001cd
1000016c:	100001cd 	.word	0x100001cd
10000170:	100001cd 	.word	0x100001cd
10000174:	100001cd 	.word	0x100001cd
10000178:	100001cd 	.word	0x100001cd
1000017c:	100001cd 	.word	0x100001cd
10000180:	100001cd 	.word	0x100001cd
10000184:	100001cd 	.word	0x100001cd
10000188:	100001cd 	.word	0x100001cd
1000018c:	100001cd 	.word	0x100001cd
10000190:	100001cd 	.word	0x100001cd
10000194:	100001cd 	.word	0x100001cd
10000198:	100001cd 	.word	0x100001cd
1000019c:	100001cd 	.word	0x100001cd
100001a0:	100001cd 	.word	0x100001cd
100001a4:	100001cd 	.word	0x100001cd
100001a8:	100001cd 	.word	0x100001cd
100001ac:	100001cd 	.word	0x100001cd
100001b0:	100001cd 	.word	0x100001cd
100001b4:	100001cd 	.word	0x100001cd
100001b8:	100001cd 	.word	0x100001cd
100001bc:	100001cd 	.word	0x100001cd

100001c0 <isr_invalid>:
100001c0:	be00      	bkpt	0x0000

100001c2 <isr_nmi>:
100001c2:	be00      	bkpt	0x0000

100001c4 <isr_hardfault>:
100001c4:	be00      	bkpt	0x0000

100001c6 <isr_svcall>:
100001c6:	be00      	bkpt	0x0000

100001c8 <isr_pendsv>:
100001c8:	be00      	bkpt	0x0000

100001ca <isr_systick>:
100001ca:	be00      	bkpt	0x0000

100001cc <__unhandled_user_irq>:
100001cc:	f3ef 8005 	mrs	r0, IPSR
100001d0:	3810      	subs	r0, #16

100001d2 <unhandled_user_irq_num_in_r0>:
100001d2:	be00      	bkpt	0x0000

100001d4 <binary_info_header>:
100001d4:	7188ebf2 	.word	0x7188ebf2
100001d8:	1000cb40 	.word	0x1000cb40
100001dc:	1000cb64 	.word	0x1000cb64
100001e0:	10000234 	.word	0x10000234
100001e4:	e71aa390 	.word	0xe71aa390

100001e8 <_entry_point>:
100001e8:	2000      	movs	r0, #0
100001ea:	491f      	ldr	r1, [pc, #124]	@ (10000268 <hold_non_core0_in_bootrom+0xa>)
100001ec:	6008      	str	r0, [r1, #0]
100001ee:	c806      	ldmia	r0!, {r1, r2}
100001f0:	f381 8808 	msr	MSP, r1
100001f4:	4710      	bx	r2

100001f6 <_reset_handler>:
100001f6:	481d      	ldr	r0, [pc, #116]	@ (1000026c <hold_non_core0_in_bootrom+0xe>)
100001f8:	6800      	ldr	r0, [r0, #0]
100001fa:	2800      	cmp	r0, #0
100001fc:	d12f      	bne.n	1000025e <hold_non_core0_in_bootrom>
100001fe:	a40d      	add	r4, pc, #52	@ (adr r4, 10000234 <data_cpy_table>)
10000200:	cc0e      	ldmia	r4!, {r1, r2, r3}
10000202:	2900      	cmp	r1, #0
10000204:	d002      	beq.n	1000020c <_reset_handler+0x16>
10000206:	f000 f812 	bl	1000022e <data_cpy>
1000020a:	e7f9      	b.n	10000200 <_reset_handler+0xa>
1000020c:	4918      	ldr	r1, [pc, #96]	@ (10000270 <hold_non_core0_in_bootrom+0x12>)
1000020e:	4a19      	ldr	r2, [pc, #100]	@ (10000274 <hold_non_core0_in_bootrom+0x16>)
10000210:	2000      	movs	r0, #0
10000212:	e000      	b.n	10000216 <bss_fill_test>

10000214 <bss_fill_loop>:
10000214:	c101      	stmia	r1!, {r0}

10000216 <bss_fill_test>:
10000216:	4291      	cmp	r1, r2
10000218:	d1fc      	bne.n	10000214 <bss_fill_loop>

1000021a <platform_entry>:
1000021a:	4917      	ldr	r1, [pc, #92]	@ (10000278 <hold_non_core0_in_bootrom+0x1a>)
1000021c:	4788      	blx	r1
1000021e:	4917      	ldr	r1, [pc, #92]	@ (1000027c <hold_non_core0_in_bootrom+0x1e>)
10000220:	4788      	blx	r1
10000222:	4917      	ldr	r1, [pc, #92]	@ (10000280 <hold_non_core0_in_bootrom+0x22>)
10000224:	4788      	blx	r1
10000226:	be00      	bkpt	0x0000
10000228:	e7fd      	b.n	10000226 <platform_entry+0xc>

1000022a <data_cpy_loop>:
1000022a:	c901      	ldmia	r1!, {r0}
1000022c:	c201      	stmia	r2!, {r0}

1000022e <data_cpy>:
1000022e:	429a      	cmp	r2, r3
10000230:	d3fb      	bcc.n	1000022a <data_cpy_loop>
10000232:	4770      	bx	lr

10000234 <data_cpy_table>:
10000234:	1000cb64 	.word	0x1000cb64
10000238:	200000c0 	.word	0x200000c0
1000023c:	2000140c 	.word	0x2000140c
10000240:	1000deb0 	.word	0x1000deb0
10000244:	20040000 	.word	0x20040000
10000248:	20040000 	.word	0x20040000
1000024c:	1000deb0 	.word	0x1000deb0
10000250:	20041000 	.word	0x20041000
10000254:	20041000 	.word	0x20041000
10000258:	00000000 	.word	0x00000000
1000025c:	4770      	bx	lr

1000025e <hold_non_core0_in_bootrom>:
1000025e:	4809      	ldr	r0, [pc, #36]	@ (10000284 <hold_non_core0_in_bootrom+0x26>)
10000260:	f005 fb0a 	bl	10005878 <rom_func_lookup>
10000264:	4700      	bx	r0
10000266:	0000      	.short	0x0000
10000268:	e000ed08 	.word	0xe000ed08
1000026c:	d0000000 	.word	0xd0000000
10000270:	20001410 	.word	0x20001410
10000274:	20002560 	.word	0x20002560
10000278:	10004589 	.word	0x10004589
1000027c:	10000359 	.word	0x10000359
10000280:	10004549 	.word	0x10004549
10000284:	00005657 	.word	0x00005657

10000288 <__bi_50>:
10000288:	50520006 5360b3ab 1000bea4              ..RP..`S....

10000294 <__bi_38>:
10000294:	50520006 02031c86 1000beb4              ..RP........

100002a0 <__bi_30>:
100002a0:	50520006 9da22254 1000bebc              ..RPT"......

100002ac <__bi_22>:
100002ac:	50520005 68f465de 1000deb0              ..RP.e.h....

100002b8 <_init>:
100002b8:	b5f8      	push	{r3, r4, r5, r6, r7, lr}
100002ba:	46c0      	nop			@ (mov r8, r8)

100002bc <deregister_tm_clones>:
100002bc:	4804      	ldr	r0, [pc, #16]	@ (100002d0 <deregister_tm_clones+0x14>)
100002be:	4b05      	ldr	r3, [pc, #20]	@ (100002d4 <deregister_tm_clones+0x18>)
100002c0:	b510      	push	{r4, lr}
100002c2:	4283      	cmp	r3, r0
100002c4:	d003      	beq.n	100002ce <deregister_tm_clones+0x12>
100002c6:	4b04      	ldr	r3, [pc, #16]	@ (100002d8 <deregister_tm_clones+0x1c>)
100002c8:	2b00      	cmp	r3, #0
100002ca:	d000      	beq.n	100002ce <deregister_tm_clones+0x12>
100002cc:	4798      	blx	r3
100002ce:	bd10      	pop	{r4, pc}
100002d0:	2000140c 	.word	0x2000140c
100002d4:	2000140c 	.word	0x2000140c
100002d8:	00000000 	.word	0x00000000

100002dc <register_tm_clones>:
100002dc:	4806      	ldr	r0, [pc, #24]	@ (100002f8 <register_tm_clones+0x1c>)
100002de:	4907      	ldr	r1, [pc, #28]	@ (100002fc <register_tm_clones+0x20>)
100002e0:	1a09      	subs	r1, r1, r0
100002e2:	108b      	asrs	r3, r1, #2
100002e4:	0fc9      	lsrs	r1, r1, #31
100002e6:	18c9      	adds	r1, r1, r3
100002e8:	b510      	push	{r4, lr}
100002ea:	1049      	asrs	r1, r1, #1
100002ec:	d003      	beq.n	100002f6 <register_tm_clones+0x1a>
100002ee:	4b04      	ldr	r3, [pc, #16]	@ (10000300 <register_tm_clones+0x24>)
100002f0:	2b00      	cmp	r3, #0
100002f2:	d000      	beq.n	100002f6 <register_tm_clones+0x1a>
100002f4:	4798      	blx	r3
100002f6:	bd10      	pop	{r4, pc}
100002f8:	2000140c 	.word	0x2000140c
100002fc:	2000140c 	.word	0x2000140c
10000300:	00000000 	.word	0x00000000

10000304 <__do_global_dtors_aux>:
10000304:	b510      	push	{r4, lr}
10000306:	4c07      	ldr	r4, [pc, #28]	@ (10000324 <__do_global_dtors_aux+0x20>)
10000308:	7823      	ldrb	r3, [r4, #0]
1000030a:	2b00      	cmp	r3, #0
1000030c:	d109      	bne.n	10000322 <__do_global_dtors_aux+0x1e>
1000030e:	f7ff ffd5 	bl	100002bc <deregister_tm_clones>
10000312:	4b05      	ldr	r3, [pc, #20]	@ (10000328 <__do_global_dtors_aux+0x24>)
10000314:	2b00      	cmp	r3, #0
10000316:	d002      	beq.n	1000031e <__do_global_dtors_aux+0x1a>
10000318:	4804      	ldr	r0, [pc, #16]	@ (1000032c <__do_global_dtors_aux+0x28>)
1000031a:	e000      	b.n	1000031e <__do_global_dtors_aux+0x1a>
1000031c:	bf00      	nop
1000031e:	2301      	movs	r3, #1
10000320:	7023      	strb	r3, [r4, #0]
10000322:	bd10      	pop	{r4, pc}
10000324:	20001570 	.word	0x20001570
10000328:	00000000 	.word	0x00000000
1000032c:	1000ae00 	.word	0x1000ae00

10000330 <frame_dummy>:
10000330:	4b05      	ldr	r3, [pc, #20]	@ (10000348 <frame_dummy+0x18>)
10000332:	b510      	push	{r4, lr}
10000334:	2b00      	cmp	r3, #0
10000336:	d003      	beq.n	10000340 <frame_dummy+0x10>
10000338:	4904      	ldr	r1, [pc, #16]	@ (1000034c <frame_dummy+0x1c>)
1000033a:	4805      	ldr	r0, [pc, #20]	@ (10000350 <frame_dummy+0x20>)
1000033c:	e000      	b.n	10000340 <frame_dummy+0x10>
1000033e:	bf00      	nop
10000340:	f7ff ffcc 	bl	100002dc <register_tm_clones>
10000344:	bd10      	pop	{r4, pc}
10000346:	46c0      	nop			@ (mov r8, r8)
10000348:	00000000 	.word	0x00000000
1000034c:	20001574 	.word	0x20001574
10000350:	1000ae00 	.word	0x1000ae00

10000354 <core1_entry>:
10000354:	4770      	bx	lr
	...

10000358 <main>:
10000358:	b530      	push	{r4, r5, lr}
1000035a:	b083      	sub	sp, #12
1000035c:	f007 fa54 	bl	10007808 <stdio_init_all>
10000360:	2002      	movs	r0, #2
10000362:	f002 fac7 	bl	100028f4 <gpio_init>
10000366:	24d0      	movs	r4, #208	@ 0xd0
10000368:	0624      	lsls	r4, r4, #24
1000036a:	2504      	movs	r5, #4
1000036c:	6265      	str	r5, [r4, #36]	@ 0x24
1000036e:	200a      	movs	r0, #10
10000370:	f002 fac0 	bl	100028f4 <gpio_init>
10000374:	2380      	movs	r3, #128	@ 0x80
10000376:	00db      	lsls	r3, r3, #3
10000378:	6263      	str	r3, [r4, #36]	@ 0x24
1000037a:	200b      	movs	r0, #11
1000037c:	f002 faba 	bl	100028f4 <gpio_init>
10000380:	2380      	movs	r3, #128	@ 0x80
10000382:	011b      	lsls	r3, r3, #4
10000384:	6263      	str	r3, [r4, #36]	@ 0x24
10000386:	200d      	movs	r0, #13
10000388:	f002 fab4 	bl	100028f4 <gpio_init>
1000038c:	2380      	movs	r3, #128	@ 0x80
1000038e:	019b      	lsls	r3, r3, #6
10000390:	6263      	str	r3, [r4, #36]	@ 0x24
10000392:	200f      	movs	r0, #15
10000394:	f002 faae 	bl	100028f4 <gpio_init>
10000398:	2380      	movs	r3, #128	@ 0x80
1000039a:	021b      	lsls	r3, r3, #8
1000039c:	6263      	str	r3, [r4, #36]	@ 0x24
1000039e:	200e      	movs	r0, #14
100003a0:	f002 faa8 	bl	100028f4 <gpio_init>
100003a4:	2380      	movs	r3, #128	@ 0x80
100003a6:	01db      	lsls	r3, r3, #7
100003a8:	6263      	str	r3, [r4, #36]	@ 0x24
100003aa:	2010      	movs	r0, #16
100003ac:	f002 faa2 	bl	100028f4 <gpio_init>
100003b0:	2380      	movs	r3, #128	@ 0x80
100003b2:	025b      	lsls	r3, r3, #9
100003b4:	6263      	str	r3, [r4, #36]	@ 0x24
100003b6:	2011      	movs	r0, #17
100003b8:	f002 fa9c 	bl	100028f4 <gpio_init>
100003bc:	2380      	movs	r3, #128	@ 0x80
100003be:	029b      	lsls	r3, r3, #10
100003c0:	6263      	str	r3, [r4, #36]	@ 0x24
100003c2:	2012      	movs	r0, #18
100003c4:	f002 fa96 	bl	100028f4 <gpio_init>
100003c8:	2380      	movs	r3, #128	@ 0x80
100003ca:	02db      	lsls	r3, r3, #11
100003cc:	6263      	str	r3, [r4, #36]	@ 0x24
100003ce:	2014      	movs	r0, #20
100003d0:	f002 fa90 	bl	100028f4 <gpio_init>
100003d4:	2380      	movs	r3, #128	@ 0x80
100003d6:	035b      	lsls	r3, r3, #13
100003d8:	62a3      	str	r3, [r4, #40]	@ 0x28
100003da:	2015      	movs	r0, #21
100003dc:	f002 fa8a 	bl	100028f4 <gpio_init>
100003e0:	2380      	movs	r3, #128	@ 0x80
100003e2:	039b      	lsls	r3, r3, #14
100003e4:	62a3      	str	r3, [r4, #40]	@ 0x28
100003e6:	2016      	movs	r0, #22
100003e8:	f002 fa84 	bl	100028f4 <gpio_init>
100003ec:	2380      	movs	r3, #128	@ 0x80
100003ee:	03db      	lsls	r3, r3, #15
100003f0:	62a3      	str	r3, [r4, #40]	@ 0x28
100003f2:	6165      	str	r5, [r4, #20]
100003f4:	f001 fbb8 	bl	10001b68 <console_init>
100003f8:	61a5      	str	r5, [r4, #24]
100003fa:	2200      	movs	r2, #0
100003fc:	2100      	movs	r1, #0
100003fe:	2080      	movs	r0, #128	@ 0x80
10000400:	f000 fbcc 	bl	10000b9c <Si5351_init>
10000404:	4b36      	ldr	r3, [pc, #216]	@ (100004e0 <main+0x188>)
10000406:	6818      	ldr	r0, [r3, #0]
10000408:	6859      	ldr	r1, [r3, #4]
1000040a:	2200      	movs	r2, #0
1000040c:	f000 fff4 	bl	100013f8 <set_freq>
10000410:	4834      	ldr	r0, [pc, #208]	@ (100004e4 <main+0x18c>)
10000412:	f009 fda7 	bl	10009f64 <multicore_launch_core1>
10000416:	4a34      	ldr	r2, [pc, #208]	@ (100004e8 <main+0x190>)
10000418:	4834      	ldr	r0, [pc, #208]	@ (100004ec <main+0x194>)
1000041a:	2300      	movs	r3, #0
1000041c:	9300      	str	r3, [sp, #0]
1000041e:	3301      	adds	r3, #1
10000420:	2150      	movs	r1, #80	@ 0x50
10000422:	f009 ff77 	bl	1000a314 <i2c_read_blocking>
10000426:	2800      	cmp	r0, #0
10000428:	d033      	beq.n	10000492 <main+0x13a>
1000042a:	4831      	ldr	r0, [pc, #196]	@ (100004f0 <main+0x198>)
1000042c:	f007 f9b0 	bl	10007790 <__wrap_puts>
10000430:	20ff      	movs	r0, #255	@ 0xff
10000432:	f002 f95f 	bl	100026f4 <load_preset>
10000436:	482f      	ldr	r0, [pc, #188]	@ (100004f4 <main+0x19c>)
10000438:	f007 f9aa 	bl	10007790 <__wrap_puts>
1000043c:	4b2e      	ldr	r3, [pc, #184]	@ (100004f8 <main+0x1a0>)
1000043e:	7819      	ldrb	r1, [r3, #0]
10000440:	482e      	ldr	r0, [pc, #184]	@ (100004fc <main+0x1a4>)
10000442:	f007 f9d5 	bl	100077f0 <__wrap_printf>
10000446:	482e      	ldr	r0, [pc, #184]	@ (10000500 <main+0x1a8>)
10000448:	f007 f9a2 	bl	10007790 <__wrap_puts>
1000044c:	4b24      	ldr	r3, [pc, #144]	@ (100004e0 <main+0x188>)
1000044e:	681a      	ldr	r2, [r3, #0]
10000450:	685b      	ldr	r3, [r3, #4]
10000452:	482c      	ldr	r0, [pc, #176]	@ (10000504 <main+0x1ac>)
10000454:	f007 f9cc 	bl	100077f0 <__wrap_printf>
10000458:	482b      	ldr	r0, [pc, #172]	@ (10000508 <main+0x1b0>)
1000045a:	f007 f999 	bl	10007790 <__wrap_puts>
1000045e:	4b2b      	ldr	r3, [pc, #172]	@ (1000050c <main+0x1b4>)
10000460:	681a      	ldr	r2, [r3, #0]
10000462:	685b      	ldr	r3, [r3, #4]
10000464:	482a      	ldr	r0, [pc, #168]	@ (10000510 <main+0x1b8>)
10000466:	f007 f9c3 	bl	100077f0 <__wrap_printf>
1000046a:	4b2a      	ldr	r3, [pc, #168]	@ (10000514 <main+0x1bc>)
1000046c:	8819      	ldrh	r1, [r3, #0]
1000046e:	482a      	ldr	r0, [pc, #168]	@ (10000518 <main+0x1c0>)
10000470:	f007 f9be 	bl	100077f0 <__wrap_printf>
10000474:	4829      	ldr	r0, [pc, #164]	@ (1000051c <main+0x1c4>)
10000476:	f007 f98b 	bl	10007790 <__wrap_puts>
1000047a:	4b29      	ldr	r3, [pc, #164]	@ (10000520 <main+0x1c8>)
1000047c:	7819      	ldrb	r1, [r3, #0]
1000047e:	4829      	ldr	r0, [pc, #164]	@ (10000524 <main+0x1cc>)
10000480:	f007 f9b6 	bl	100077f0 <__wrap_printf>
10000484:	200a      	movs	r0, #10
10000486:	f007 f94f 	bl	10007728 <__wrap_putchar>
1000048a:	4827      	ldr	r0, [pc, #156]	@ (10000528 <main+0x1d0>)
1000048c:	f007 f9b0 	bl	100077f0 <__wrap_printf>
10000490:	e00e      	b.n	100004b0 <main+0x158>
10000492:	4826      	ldr	r0, [pc, #152]	@ (1000052c <main+0x1d4>)
10000494:	f007 f97c 	bl	10007790 <__wrap_puts>
10000498:	e7ca      	b.n	10000430 <main+0xd8>
1000049a:	22d0      	movs	r2, #208	@ 0xd0
1000049c:	0612      	lsls	r2, r2, #24
1000049e:	2180      	movs	r1, #128	@ 0x80
100004a0:	0109      	lsls	r1, r1, #4
100004a2:	6191      	str	r1, [r2, #24]
100004a4:	e013      	b.n	100004ce <main+0x176>
100004a6:	23d0      	movs	r3, #208	@ 0xd0
100004a8:	061b      	lsls	r3, r3, #24
100004aa:	2280      	movs	r2, #128	@ 0x80
100004ac:	00d2      	lsls	r2, r2, #3
100004ae:	615a      	str	r2, [r3, #20]
100004b0:	f001 ff4e 	bl	10002350 <handle_console_rx>
100004b4:	f002 f8cc 	bl	10002650 <handle_preset_switching>
100004b8:	f002 f98e 	bl	100027d8 <handle_run_eeprom_btn>
100004bc:	4b0e      	ldr	r3, [pc, #56]	@ (100004f8 <main+0x1a0>)
100004be:	781b      	ldrb	r3, [r3, #0]
100004c0:	079a      	lsls	r2, r3, #30
100004c2:	d5ea      	bpl.n	1000049a <main+0x142>
100004c4:	22d0      	movs	r2, #208	@ 0xd0
100004c6:	0612      	lsls	r2, r2, #24
100004c8:	2180      	movs	r1, #128	@ 0x80
100004ca:	0109      	lsls	r1, r1, #4
100004cc:	6151      	str	r1, [r2, #20]
100004ce:	07db      	lsls	r3, r3, #31
100004d0:	d4e9      	bmi.n	100004a6 <main+0x14e>
100004d2:	23d0      	movs	r3, #208	@ 0xd0
100004d4:	061b      	lsls	r3, r3, #24
100004d6:	2280      	movs	r2, #128	@ 0x80
100004d8:	00d2      	lsls	r2, r2, #3
100004da:	619a      	str	r2, [r3, #24]
100004dc:	e7e8      	b.n	100004b0 <main+0x158>
100004de:	46c0      	nop			@ (mov r8, r8)
100004e0:	20000b60 	.word	0x20000b60
100004e4:	10000355 	.word	0x10000355
100004e8:	20002553 	.word	0x20002553
100004ec:	20000ea0 	.word	0x20000ea0
100004f0:	1000ae00 	.word	0x1000ae00
100004f4:	1000ae2c 	.word	0x1000ae2c
100004f8:	20002554 	.word	0x20002554
100004fc:	1000ae3c 	.word	0x1000ae3c
10000500:	1000ae48 	.word	0x1000ae48
10000504:	1000ae64 	.word	0x1000ae64
10000508:	1000ae80 	.word	0x1000ae80
1000050c:	20000b58 	.word	0x20000b58
10000510:	1000ae88 	.word	0x1000ae88
10000514:	20000b56 	.word	0x20000b56
10000518:	1000aea4 	.word	0x1000aea4
1000051c:	1000aeb8 	.word	0x1000aeb8
10000520:	20000b50 	.word	0x20000b50
10000524:	1000aebc 	.word	0x1000aebc
10000528:	1000aed0 	.word	0x1000aed0
1000052c:	1000ae14 	.word	0x1000ae14

10000530 <set_ref_freq>:
10000530:	4b15      	ldr	r3, [pc, #84]	@ (10000588 <set_ref_freq+0x58>)
10000532:	4298      	cmp	r0, r3
10000534:	d809      	bhi.n	1000054a <set_ref_freq+0x1a>
10000536:	4b15      	ldr	r3, [pc, #84]	@ (1000058c <set_ref_freq+0x5c>)
10000538:	008a      	lsls	r2, r1, #2
1000053a:	50d0      	str	r0, [r2, r3]
1000053c:	2901      	cmp	r1, #1
1000053e:	d000      	beq.n	10000542 <set_ref_freq+0x12>
10000540:	4770      	bx	lr
10000542:	4b13      	ldr	r3, [pc, #76]	@ (10000590 <set_ref_freq+0x60>)
10000544:	2200      	movs	r2, #0
10000546:	701a      	strb	r2, [r3, #0]
10000548:	e7fa      	b.n	10000540 <set_ref_freq+0x10>
1000054a:	4a12      	ldr	r2, [pc, #72]	@ (10000594 <set_ref_freq+0x64>)
1000054c:	4b12      	ldr	r3, [pc, #72]	@ (10000598 <set_ref_freq+0x68>)
1000054e:	18c3      	adds	r3, r0, r3
10000550:	4293      	cmp	r3, r2
10000552:	d809      	bhi.n	10000568 <set_ref_freq+0x38>
10000554:	0840      	lsrs	r0, r0, #1
10000556:	4b0d      	ldr	r3, [pc, #52]	@ (1000058c <set_ref_freq+0x5c>)
10000558:	008a      	lsls	r2, r1, #2
1000055a:	50d0      	str	r0, [r2, r3]
1000055c:	2901      	cmp	r1, #1
1000055e:	d1ef      	bne.n	10000540 <set_ref_freq+0x10>
10000560:	4b0b      	ldr	r3, [pc, #44]	@ (10000590 <set_ref_freq+0x60>)
10000562:	2240      	movs	r2, #64	@ 0x40
10000564:	701a      	strb	r2, [r3, #0]
10000566:	e7eb      	b.n	10000540 <set_ref_freq+0x10>
10000568:	4a0c      	ldr	r2, [pc, #48]	@ (1000059c <set_ref_freq+0x6c>)
1000056a:	4b0d      	ldr	r3, [pc, #52]	@ (100005a0 <set_ref_freq+0x70>)
1000056c:	18c3      	adds	r3, r0, r3
1000056e:	4293      	cmp	r3, r2
10000570:	d8e6      	bhi.n	10000540 <set_ref_freq+0x10>
10000572:	0880      	lsrs	r0, r0, #2
10000574:	4b05      	ldr	r3, [pc, #20]	@ (1000058c <set_ref_freq+0x5c>)
10000576:	008a      	lsls	r2, r1, #2
10000578:	50d0      	str	r0, [r2, r3]
1000057a:	2901      	cmp	r1, #1
1000057c:	d1e0      	bne.n	10000540 <set_ref_freq+0x10>
1000057e:	4b04      	ldr	r3, [pc, #16]	@ (10000590 <set_ref_freq+0x60>)
10000580:	2280      	movs	r2, #128	@ 0x80
10000582:	701a      	strb	r2, [r3, #0]
10000584:	e7dc      	b.n	10000540 <set_ref_freq+0x10>
10000586:	46c0      	nop			@ (mov r8, r8)
10000588:	01c9c380 	.word	0x01c9c380
1000058c:	20002544 	.word	0x20002544
10000590:	20002551 	.word	0x20002551
10000594:	01c9c37f 	.word	0x01c9c37f
10000598:	fe363c7f 	.word	0xfe363c7f
1000059c:	026259ff 	.word	0x026259ff
100005a0:	fc6c78ff 	.word	0xfc6c78ff

100005a4 <si5351_write_bulk>:
100005a4:	b5b0      	push	{r4, r5, r7, lr}
100005a6:	b082      	sub	sp, #8
100005a8:	af02      	add	r7, sp, #8
100005aa:	0014      	movs	r4, r2
100005ac:	000d      	movs	r5, r1
100005ae:	1c4b      	adds	r3, r1, #1
100005b0:	3108      	adds	r1, #8
100005b2:	08c9      	lsrs	r1, r1, #3
100005b4:	00c9      	lsls	r1, r1, #3
100005b6:	466a      	mov	r2, sp
100005b8:	1a52      	subs	r2, r2, r1
100005ba:	4695      	mov	sp, r2
100005bc:	aa02      	add	r2, sp, #8
100005be:	7010      	strb	r0, [r2, #0]
100005c0:	2100      	movs	r1, #0
100005c2:	e003      	b.n	100005cc <si5351_write_bulk+0x28>
100005c4:	1860      	adds	r0, r4, r1
100005c6:	3101      	adds	r1, #1
100005c8:	7800      	ldrb	r0, [r0, #0]
100005ca:	5450      	strb	r0, [r2, r1]
100005cc:	428d      	cmp	r5, r1
100005ce:	dcf9      	bgt.n	100005c4 <si5351_write_bulk+0x20>
100005d0:	4803      	ldr	r0, [pc, #12]	@ (100005e0 <si5351_write_bulk+0x3c>)
100005d2:	2100      	movs	r1, #0
100005d4:	9100      	str	r1, [sp, #0]
100005d6:	3160      	adds	r1, #96	@ 0x60
100005d8:	f009 fe90 	bl	1000a2fc <i2c_write_blocking>
100005dc:	46bd      	mov	sp, r7
100005de:	bdb0      	pop	{r4, r5, r7, pc}
100005e0:	20000ea0 	.word	0x20000ea0

100005e4 <si5351_write>:
100005e4:	b500      	push	{lr}
100005e6:	b085      	sub	sp, #20
100005e8:	466b      	mov	r3, sp
100005ea:	7318      	strb	r0, [r3, #12]
100005ec:	7359      	strb	r1, [r3, #13]
100005ee:	4805      	ldr	r0, [pc, #20]	@ (10000604 <si5351_write+0x20>)
100005f0:	2300      	movs	r3, #0
100005f2:	9300      	str	r3, [sp, #0]
100005f4:	3302      	adds	r3, #2
100005f6:	aa03      	add	r2, sp, #12
100005f8:	2160      	movs	r1, #96	@ 0x60
100005fa:	f009 fe7f 	bl	1000a2fc <i2c_write_blocking>
100005fe:	b005      	add	sp, #20
10000600:	bd00      	pop	{pc}
10000602:	46c0      	nop			@ (mov r8, r8)
10000604:	20000ea0 	.word	0x20000ea0

10000608 <pll_reset>:
10000608:	b510      	push	{r4, lr}
1000060a:	2800      	cmp	r0, #0
1000060c:	d002      	beq.n	10000614 <pll_reset+0xc>
1000060e:	2801      	cmp	r0, #1
10000610:	d005      	beq.n	1000061e <pll_reset+0x16>
10000612:	bd10      	pop	{r4, pc}
10000614:	2120      	movs	r1, #32
10000616:	30b1      	adds	r0, #177	@ 0xb1
10000618:	f7ff ffe4 	bl	100005e4 <si5351_write>
1000061c:	e7f9      	b.n	10000612 <pll_reset+0xa>
1000061e:	2180      	movs	r1, #128	@ 0x80
10000620:	30b0      	adds	r0, #176	@ 0xb0
10000622:	f7ff ffdf 	bl	100005e4 <si5351_write>
10000626:	e7f4      	b.n	10000612 <pll_reset+0xa>

10000628 <si5351_read>:
10000628:	b510      	push	{r4, lr}
1000062a:	b086      	sub	sp, #24
1000062c:	220f      	movs	r2, #15
1000062e:	446a      	add	r2, sp
10000630:	7010      	strb	r0, [r2, #0]
10000632:	4b0b      	ldr	r3, [pc, #44]	@ (10000660 <si5351_read+0x38>)
10000634:	781b      	ldrb	r3, [r3, #0]
10000636:	4669      	mov	r1, sp
10000638:	750b      	strb	r3, [r1, #20]
1000063a:	4c0a      	ldr	r4, [pc, #40]	@ (10000664 <si5351_read+0x3c>)
1000063c:	2301      	movs	r3, #1
1000063e:	9300      	str	r3, [sp, #0]
10000640:	2160      	movs	r1, #96	@ 0x60
10000642:	0020      	movs	r0, r4
10000644:	f009 fe5a 	bl	1000a2fc <i2c_write_blocking>
10000648:	2300      	movs	r3, #0
1000064a:	9300      	str	r3, [sp, #0]
1000064c:	3301      	adds	r3, #1
1000064e:	aa05      	add	r2, sp, #20
10000650:	2160      	movs	r1, #96	@ 0x60
10000652:	0020      	movs	r0, r4
10000654:	f009 fe5e 	bl	1000a314 <i2c_read_blocking>
10000658:	466b      	mov	r3, sp
1000065a:	7d18      	ldrb	r0, [r3, #20]
1000065c:	b006      	add	sp, #24
1000065e:	bd10      	pop	{r4, pc}
10000660:	1000aecc 	.word	0x1000aecc
10000664:	20000ea0 	.word	0x20000ea0

10000668 <output_enable>:
10000668:	b570      	push	{r4, r5, r6, lr}
1000066a:	0004      	movs	r4, r0
1000066c:	000d      	movs	r5, r1
1000066e:	2003      	movs	r0, #3
10000670:	f7ff ffda 	bl	10000628 <si5351_read>
10000674:	2d01      	cmp	r5, #1
10000676:	d007      	beq.n	10000688 <output_enable+0x20>
10000678:	2301      	movs	r3, #1
1000067a:	40a3      	lsls	r3, r4
1000067c:	4318      	orrs	r0, r3
1000067e:	b2c1      	uxtb	r1, r0
10000680:	2003      	movs	r0, #3
10000682:	f7ff ffaf 	bl	100005e4 <si5351_write>
10000686:	bd70      	pop	{r4, r5, r6, pc}
10000688:	2301      	movs	r3, #1
1000068a:	40a3      	lsls	r3, r4
1000068c:	43db      	mvns	r3, r3
1000068e:	b25b      	sxtb	r3, r3
10000690:	4003      	ands	r3, r0
10000692:	b2d9      	uxtb	r1, r3
10000694:	e7f4      	b.n	10000680 <output_enable+0x18>
	...

10000698 <set_ms_source>:
10000698:	b570      	push	{r4, r5, r6, lr}
1000069a:	0005      	movs	r5, r0
1000069c:	000c      	movs	r4, r1
1000069e:	0006      	movs	r6, r0
100006a0:	3610      	adds	r6, #16
100006a2:	b2f6      	uxtb	r6, r6
100006a4:	0030      	movs	r0, r6
100006a6:	f7ff ffbf 	bl	10000628 <si5351_read>
100006aa:	0001      	movs	r1, r0
100006ac:	2c00      	cmp	r4, #0
100006ae:	d108      	bne.n	100006c2 <set_ms_source+0x2a>
100006b0:	2320      	movs	r3, #32
100006b2:	4398      	bics	r0, r3
100006b4:	b2c1      	uxtb	r1, r0
100006b6:	0030      	movs	r0, r6
100006b8:	f7ff ff94 	bl	100005e4 <si5351_write>
100006bc:	4b04      	ldr	r3, [pc, #16]	@ (100006d0 <set_ms_source+0x38>)
100006be:	555c      	strb	r4, [r3, r5]
100006c0:	bd70      	pop	{r4, r5, r6, pc}
100006c2:	2c01      	cmp	r4, #1
100006c4:	d1f7      	bne.n	100006b6 <set_ms_source+0x1e>
100006c6:	2320      	movs	r3, #32
100006c8:	4303      	orrs	r3, r0
100006ca:	b2d9      	uxtb	r1, r3
100006cc:	e7f3      	b.n	100006b6 <set_ms_source+0x1e>
100006ce:	46c0      	nop			@ (mov r8, r8)
100006d0:	200022e8 	.word	0x200022e8

100006d4 <set_int>:
100006d4:	b570      	push	{r4, r5, r6, lr}
100006d6:	000d      	movs	r5, r1
100006d8:	3010      	adds	r0, #16
100006da:	b2c4      	uxtb	r4, r0
100006dc:	0020      	movs	r0, r4
100006de:	f7ff ffa3 	bl	10000628 <si5351_read>
100006e2:	2d01      	cmp	r5, #1
100006e4:	d006      	beq.n	100006f4 <set_int+0x20>
100006e6:	2340      	movs	r3, #64	@ 0x40
100006e8:	4398      	bics	r0, r3
100006ea:	b2c1      	uxtb	r1, r0
100006ec:	0020      	movs	r0, r4
100006ee:	f7ff ff79 	bl	100005e4 <si5351_write>
100006f2:	bd70      	pop	{r4, r5, r6, pc}
100006f4:	2340      	movs	r3, #64	@ 0x40
100006f6:	4318      	orrs	r0, r3
100006f8:	b2c1      	uxtb	r1, r0
100006fa:	e7f7      	b.n	100006ec <set_int+0x18>

100006fc <pll_calc>:
100006fc:	b5f0      	push	{r4, r5, r6, r7, lr}
100006fe:	46de      	mov	lr, fp
10000700:	4657      	mov	r7, sl
10000702:	464e      	mov	r6, r9
10000704:	4645      	mov	r5, r8
10000706:	b5e0      	push	{r5, r6, r7, lr}
10000708:	b087      	sub	sp, #28
1000070a:	0015      	movs	r5, r2
1000070c:	001c      	movs	r4, r3
1000070e:	9b10      	ldr	r3, [sp, #64]	@ 0x40
10000710:	4699      	mov	r9, r3
10000712:	ab12      	add	r3, sp, #72	@ 0x48
10000714:	781b      	ldrb	r3, [r3, #0]
10000716:	469a      	mov	sl, r3
10000718:	2800      	cmp	r0, #0
1000071a:	d12e      	bne.n	1000077a <pll_calc+0x7e>
1000071c:	4b80      	ldr	r3, [pc, #512]	@ (10000920 <pll_calc+0x224>)
1000071e:	781a      	ldrb	r2, [r3, #0]
10000720:	4b80      	ldr	r3, [pc, #512]	@ (10000924 <pll_calc+0x228>)
10000722:	0092      	lsls	r2, r2, #2
10000724:	58d0      	ldr	r0, [r2, r3]
10000726:	2264      	movs	r2, #100	@ 0x64
10000728:	2300      	movs	r3, #0
1000072a:	2100      	movs	r1, #0
1000072c:	f006 fca0 	bl	10007070 <__wrap___aeabi_lmul>
10000730:	0006      	movs	r6, r0
10000732:	000f      	movs	r7, r1
10000734:	9b11      	ldr	r3, [sp, #68]	@ 0x44
10000736:	1059      	asrs	r1, r3, #1
10000738:	07d8      	lsls	r0, r3, #31
1000073a:	4a7b      	ldr	r2, [pc, #492]	@ (10000928 <pll_calc+0x22c>)
1000073c:	2300      	movs	r3, #0
1000073e:	f005 f915 	bl	1000596c <__wrap___aeabi_ldivmod>
10000742:	0032      	movs	r2, r6
10000744:	003b      	movs	r3, r7
10000746:	f006 fc93 	bl	10007070 <__wrap___aeabi_lmul>
1000074a:	0049      	lsls	r1, r1, #1
1000074c:	0fc3      	lsrs	r3, r0, #31
1000074e:	430b      	orrs	r3, r1
10000750:	0018      	movs	r0, r3
10000752:	17d9      	asrs	r1, r3, #31
10000754:	1980      	adds	r0, r0, r6
10000756:	4179      	adcs	r1, r7
10000758:	9000      	str	r0, [sp, #0]
1000075a:	9101      	str	r1, [sp, #4]
1000075c:	2c0d      	cmp	r4, #13
1000075e:	d803      	bhi.n	10000768 <pll_calc+0x6c>
10000760:	d118      	bne.n	10000794 <pll_calc+0x98>
10000762:	4b72      	ldr	r3, [pc, #456]	@ (1000092c <pll_calc+0x230>)
10000764:	429d      	cmp	r5, r3
10000766:	d915      	bls.n	10000794 <pll_calc+0x98>
10000768:	2c14      	cmp	r4, #20
1000076a:	d803      	bhi.n	10000774 <pll_calc+0x78>
1000076c:	d114      	bne.n	10000798 <pll_calc+0x9c>
1000076e:	4b70      	ldr	r3, [pc, #448]	@ (10000930 <pll_calc+0x234>)
10000770:	429d      	cmp	r5, r3
10000772:	d911      	bls.n	10000798 <pll_calc+0x9c>
10000774:	4d6e      	ldr	r5, [pc, #440]	@ (10000930 <pll_calc+0x234>)
10000776:	2414      	movs	r4, #20
10000778:	e00e      	b.n	10000798 <pll_calc+0x9c>
1000077a:	4b6e      	ldr	r3, [pc, #440]	@ (10000934 <pll_calc+0x238>)
1000077c:	781a      	ldrb	r2, [r3, #0]
1000077e:	4b69      	ldr	r3, [pc, #420]	@ (10000924 <pll_calc+0x228>)
10000780:	0092      	lsls	r2, r2, #2
10000782:	58d0      	ldr	r0, [r2, r3]
10000784:	2264      	movs	r2, #100	@ 0x64
10000786:	2300      	movs	r3, #0
10000788:	2100      	movs	r1, #0
1000078a:	f006 fc71 	bl	10007070 <__wrap___aeabi_lmul>
1000078e:	0006      	movs	r6, r0
10000790:	000f      	movs	r7, r1
10000792:	e7cf      	b.n	10000734 <pll_calc+0x38>
10000794:	4d68      	ldr	r5, [pc, #416]	@ (10000938 <pll_calc+0x23c>)
10000796:	240d      	movs	r4, #13
10000798:	9e00      	ldr	r6, [sp, #0]
1000079a:	9f01      	ldr	r7, [sp, #4]
1000079c:	0032      	movs	r2, r6
1000079e:	003b      	movs	r3, r7
100007a0:	0028      	movs	r0, r5
100007a2:	0021      	movs	r1, r4
100007a4:	f005 f8fa 	bl	1000599c <__wrap___aeabi_uldivmod>
100007a8:	4680      	mov	r8, r0
100007aa:	280e      	cmp	r0, #14
100007ac:	d809      	bhi.n	100007c2 <pll_calc+0xc6>
100007ae:	0034      	movs	r4, r6
100007b0:	003d      	movs	r5, r7
100007b2:	0f31      	lsrs	r1, r6, #28
100007b4:	013b      	lsls	r3, r7, #4
100007b6:	430b      	orrs	r3, r1
100007b8:	0132      	lsls	r2, r6, #4
100007ba:	1b12      	subs	r2, r2, r4
100007bc:	41ab      	sbcs	r3, r5
100007be:	0015      	movs	r5, r2
100007c0:	001c      	movs	r4, r3
100007c2:	285a      	cmp	r0, #90	@ 0x5a
100007c4:	d907      	bls.n	100007d6 <pll_calc+0xda>
100007c6:	225a      	movs	r2, #90	@ 0x5a
100007c8:	2300      	movs	r3, #0
100007ca:	9800      	ldr	r0, [sp, #0]
100007cc:	9901      	ldr	r1, [sp, #4]
100007ce:	f006 fc4f 	bl	10007070 <__wrap___aeabi_lmul>
100007d2:	0005      	movs	r5, r0
100007d4:	000c      	movs	r4, r1
100007d6:	4653      	mov	r3, sl
100007d8:	2b00      	cmp	r3, #0
100007da:	d100      	bne.n	100007de <pll_calc+0xe2>
100007dc:	e078      	b.n	100008d0 <pll_calc+0x1d4>
100007de:	9a00      	ldr	r2, [sp, #0]
100007e0:	9b01      	ldr	r3, [sp, #4]
100007e2:	0028      	movs	r0, r5
100007e4:	0021      	movs	r1, r4
100007e6:	f005 f8d9 	bl	1000599c <__wrap___aeabi_uldivmod>
100007ea:	0014      	movs	r4, r2
100007ec:	001d      	movs	r5, r3
100007ee:	0ed3      	lsrs	r3, r2, #27
100007f0:	016f      	lsls	r7, r5, #5
100007f2:	431f      	orrs	r7, r3
100007f4:	0166      	lsls	r6, r4, #5
100007f6:	1b36      	subs	r6, r6, r4
100007f8:	41af      	sbcs	r7, r5
100007fa:	0df1      	lsrs	r1, r6, #23
100007fc:	027b      	lsls	r3, r7, #9
100007fe:	430b      	orrs	r3, r1
10000800:	0272      	lsls	r2, r6, #9
10000802:	1912      	adds	r2, r2, r4
10000804:	416b      	adcs	r3, r5
10000806:	0e91      	lsrs	r1, r2, #26
10000808:	019f      	lsls	r7, r3, #6
1000080a:	430f      	orrs	r7, r1
1000080c:	0196      	lsls	r6, r2, #6
1000080e:	1ab6      	subs	r6, r6, r2
10000810:	419f      	sbcs	r7, r3
10000812:	0030      	movs	r0, r6
10000814:	0039      	movs	r1, r7
10000816:	1900      	adds	r0, r0, r4
10000818:	4169      	adcs	r1, r5
1000081a:	9a00      	ldr	r2, [sp, #0]
1000081c:	9b01      	ldr	r3, [sp, #4]
1000081e:	f005 f8bd 	bl	1000599c <__wrap___aeabi_uldivmod>
10000822:	0005      	movs	r5, r0
10000824:	4c45      	ldr	r4, [pc, #276]	@ (1000093c <pll_calc+0x240>)
10000826:	4643      	mov	r3, r8
10000828:	01df      	lsls	r7, r3, #7
1000082a:	01ee      	lsls	r6, r5, #7
1000082c:	0021      	movs	r1, r4
1000082e:	0030      	movs	r0, r6
10000830:	f005 f876 	bl	10005920 <__wrap___aeabi_uidiv>
10000834:	1838      	adds	r0, r7, r0
10000836:	4b42      	ldr	r3, [pc, #264]	@ (10000940 <pll_calc+0x244>)
10000838:	469b      	mov	fp, r3
1000083a:	4483      	add	fp, r0
1000083c:	0021      	movs	r1, r4
1000083e:	0030      	movs	r0, r6
10000840:	f005 f86e 	bl	10005920 <__wrap___aeabi_uidiv>
10000844:	9105      	str	r1, [sp, #20]
10000846:	2200      	movs	r2, #0
10000848:	2300      	movs	r3, #0
1000084a:	9202      	str	r2, [sp, #8]
1000084c:	9303      	str	r3, [sp, #12]
1000084e:	9502      	str	r5, [sp, #8]
10000850:	2300      	movs	r3, #0
10000852:	9303      	str	r3, [sp, #12]
10000854:	9a00      	ldr	r2, [sp, #0]
10000856:	9b01      	ldr	r3, [sp, #4]
10000858:	9802      	ldr	r0, [sp, #8]
1000085a:	9903      	ldr	r1, [sp, #12]
1000085c:	f006 fc08 	bl	10007070 <__wrap___aeabi_lmul>
10000860:	0022      	movs	r2, r4
10000862:	2300      	movs	r3, #0
10000864:	f005 f89a 	bl	1000599c <__wrap___aeabi_uldivmod>
10000868:	0005      	movs	r5, r0
1000086a:	000e      	movs	r6, r1
1000086c:	9a00      	ldr	r2, [sp, #0]
1000086e:	9b01      	ldr	r3, [sp, #4]
10000870:	4640      	mov	r0, r8
10000872:	2100      	movs	r1, #0
10000874:	f006 fbfc 	bl	10007070 <__wrap___aeabi_lmul>
10000878:	1940      	adds	r0, r0, r5
1000087a:	4171      	adcs	r1, r6
1000087c:	464a      	mov	r2, r9
1000087e:	465d      	mov	r5, fp
10000880:	6015      	str	r5, [r2, #0]
10000882:	9d05      	ldr	r5, [sp, #20]
10000884:	6055      	str	r5, [r2, #4]
10000886:	6094      	str	r4, [r2, #8]
10000888:	4652      	mov	r2, sl
1000088a:	2a00      	cmp	r2, #0
1000088c:	d019      	beq.n	100008c2 <pll_calc+0x1c6>
1000088e:	003c      	movs	r4, r7
10000890:	2500      	movs	r5, #0
10000892:	0ef9      	lsrs	r1, r7, #27
10000894:	0178      	lsls	r0, r7, #5
10000896:	1b00      	subs	r0, r0, r4
10000898:	41a9      	sbcs	r1, r5
1000089a:	0dc6      	lsrs	r6, r0, #23
1000089c:	024b      	lsls	r3, r1, #9
1000089e:	4333      	orrs	r3, r6
100008a0:	0242      	lsls	r2, r0, #9
100008a2:	1912      	adds	r2, r2, r4
100008a4:	416b      	adcs	r3, r5
100008a6:	0e96      	lsrs	r6, r2, #26
100008a8:	0199      	lsls	r1, r3, #6
100008aa:	4331      	orrs	r1, r6
100008ac:	0190      	lsls	r0, r2, #6
100008ae:	1a80      	subs	r0, r0, r2
100008b0:	4199      	sbcs	r1, r3
100008b2:	1900      	adds	r0, r0, r4
100008b4:	4169      	adcs	r1, r5
100008b6:	9b02      	ldr	r3, [sp, #8]
100008b8:	9c03      	ldr	r4, [sp, #12]
100008ba:	181b      	adds	r3, r3, r0
100008bc:	414c      	adcs	r4, r1
100008be:	0018      	movs	r0, r3
100008c0:	0021      	movs	r1, r4
100008c2:	b007      	add	sp, #28
100008c4:	bcf0      	pop	{r4, r5, r6, r7}
100008c6:	46bb      	mov	fp, r7
100008c8:	46b2      	mov	sl, r6
100008ca:	46a9      	mov	r9, r5
100008cc:	46a0      	mov	r8, r4
100008ce:	bdf0      	pop	{r4, r5, r6, r7, pc}
100008d0:	9a00      	ldr	r2, [sp, #0]
100008d2:	9b01      	ldr	r3, [sp, #4]
100008d4:	0028      	movs	r0, r5
100008d6:	0021      	movs	r1, r4
100008d8:	f005 f860 	bl	1000599c <__wrap___aeabi_uldivmod>
100008dc:	0014      	movs	r4, r2
100008de:	001d      	movs	r5, r3
100008e0:	0ed3      	lsrs	r3, r2, #27
100008e2:	016f      	lsls	r7, r5, #5
100008e4:	431f      	orrs	r7, r3
100008e6:	0166      	lsls	r6, r4, #5
100008e8:	1b36      	subs	r6, r6, r4
100008ea:	41af      	sbcs	r7, r5
100008ec:	0df1      	lsrs	r1, r6, #23
100008ee:	027b      	lsls	r3, r7, #9
100008f0:	430b      	orrs	r3, r1
100008f2:	0272      	lsls	r2, r6, #9
100008f4:	1912      	adds	r2, r2, r4
100008f6:	416b      	adcs	r3, r5
100008f8:	0e91      	lsrs	r1, r2, #26
100008fa:	019f      	lsls	r7, r3, #6
100008fc:	430f      	orrs	r7, r1
100008fe:	0196      	lsls	r6, r2, #6
10000900:	1ab6      	subs	r6, r6, r2
10000902:	419f      	sbcs	r7, r3
10000904:	0030      	movs	r0, r6
10000906:	0039      	movs	r1, r7
10000908:	1900      	adds	r0, r0, r4
1000090a:	4169      	adcs	r1, r5
1000090c:	9a00      	ldr	r2, [sp, #0]
1000090e:	9b01      	ldr	r3, [sp, #4]
10000910:	f005 f844 	bl	1000599c <__wrap___aeabi_uldivmod>
10000914:	1e05      	subs	r5, r0, #0
10000916:	d001      	beq.n	1000091c <pll_calc+0x220>
10000918:	4c08      	ldr	r4, [pc, #32]	@ (1000093c <pll_calc+0x240>)
1000091a:	e784      	b.n	10000826 <pll_calc+0x12a>
1000091c:	2401      	movs	r4, #1
1000091e:	e782      	b.n	10000826 <pll_calc+0x12a>
10000920:	20002559 	.word	0x20002559
10000924:	20002544 	.word	0x20002544
10000928:	3b9aca00 	.word	0x3b9aca00
1000092c:	f84757ff 	.word	0xf84757ff
10000930:	f46b0400 	.word	0xf46b0400
10000934:	2000255a 	.word	0x2000255a
10000938:	f8475800 	.word	0xf8475800
1000093c:	000f4240 	.word	0x000f4240
10000940:	fffffe00 	.word	0xfffffe00

10000944 <set_pll>:
10000944:	b5f0      	push	{r4, r5, r6, r7, lr}
10000946:	46c6      	mov	lr, r8
10000948:	b500      	push	{lr}
1000094a:	b088      	sub	sp, #32
1000094c:	4680      	mov	r8, r0
1000094e:	000f      	movs	r7, r1
10000950:	1e16      	subs	r6, r2, #0
10000952:	d135      	bne.n	100009c0 <set_pll+0x7c>
10000954:	2300      	movs	r3, #0
10000956:	9302      	str	r3, [sp, #8]
10000958:	4b2b      	ldr	r3, [pc, #172]	@ (10000a08 <set_pll+0xc4>)
1000095a:	4a2c      	ldr	r2, [pc, #176]	@ (10000a0c <set_pll+0xc8>)
1000095c:	7812      	ldrb	r2, [r2, #0]
1000095e:	0092      	lsls	r2, r2, #2
10000960:	58d3      	ldr	r3, [r2, r3]
10000962:	9301      	str	r3, [sp, #4]
10000964:	ab05      	add	r3, sp, #20
10000966:	9300      	str	r3, [sp, #0]
10000968:	0002      	movs	r2, r0
1000096a:	000b      	movs	r3, r1
1000096c:	2000      	movs	r0, #0
1000096e:	f7ff fec5 	bl	100006fc <pll_calc>
10000972:	2014      	movs	r0, #20
10000974:	f006 fcf8 	bl	10007368 <__wrap_malloc>
10000978:	0004      	movs	r4, r0
1000097a:	9d07      	ldr	r5, [sp, #28]
1000097c:	0a2b      	lsrs	r3, r5, #8
1000097e:	7003      	strb	r3, [r0, #0]
10000980:	7045      	strb	r5, [r0, #1]
10000982:	9b05      	ldr	r3, [sp, #20]
10000984:	0c1a      	lsrs	r2, r3, #16
10000986:	2103      	movs	r1, #3
10000988:	400a      	ands	r2, r1
1000098a:	7082      	strb	r2, [r0, #2]
1000098c:	0a1a      	lsrs	r2, r3, #8
1000098e:	70c2      	strb	r2, [r0, #3]
10000990:	7103      	strb	r3, [r0, #4]
10000992:	0b2d      	lsrs	r5, r5, #12
10000994:	b2ed      	uxtb	r5, r5
10000996:	230f      	movs	r3, #15
10000998:	439d      	bics	r5, r3
1000099a:	9a06      	ldr	r2, [sp, #24]
1000099c:	0c11      	lsrs	r1, r2, #16
1000099e:	400b      	ands	r3, r1
100009a0:	432b      	orrs	r3, r5
100009a2:	7143      	strb	r3, [r0, #5]
100009a4:	0a13      	lsrs	r3, r2, #8
100009a6:	7183      	strb	r3, [r0, #6]
100009a8:	71c2      	strb	r2, [r0, #7]
100009aa:	2e00      	cmp	r6, #0
100009ac:	d018      	beq.n	100009e0 <set_pll+0x9c>
100009ae:	2e01      	cmp	r6, #1
100009b0:	d020      	beq.n	100009f4 <set_pll+0xb0>
100009b2:	0020      	movs	r0, r4
100009b4:	f006 fcee 	bl	10007394 <__wrap_free>
100009b8:	b008      	add	sp, #32
100009ba:	bc80      	pop	{r7}
100009bc:	46b8      	mov	r8, r7
100009be:	bdf0      	pop	{r4, r5, r6, r7, pc}
100009c0:	2300      	movs	r3, #0
100009c2:	9302      	str	r3, [sp, #8]
100009c4:	4b10      	ldr	r3, [pc, #64]	@ (10000a08 <set_pll+0xc4>)
100009c6:	4a12      	ldr	r2, [pc, #72]	@ (10000a10 <set_pll+0xcc>)
100009c8:	7812      	ldrb	r2, [r2, #0]
100009ca:	0092      	lsls	r2, r2, #2
100009cc:	58d3      	ldr	r3, [r2, r3]
100009ce:	9301      	str	r3, [sp, #4]
100009d0:	ab05      	add	r3, sp, #20
100009d2:	9300      	str	r3, [sp, #0]
100009d4:	0002      	movs	r2, r0
100009d6:	000b      	movs	r3, r1
100009d8:	2001      	movs	r0, #1
100009da:	f7ff fe8f 	bl	100006fc <pll_calc>
100009de:	e7c8      	b.n	10000972 <set_pll+0x2e>
100009e0:	0002      	movs	r2, r0
100009e2:	2108      	movs	r1, #8
100009e4:	201a      	movs	r0, #26
100009e6:	f7ff fddd 	bl	100005a4 <si5351_write_bulk>
100009ea:	4b0a      	ldr	r3, [pc, #40]	@ (10000a14 <set_pll+0xd0>)
100009ec:	4642      	mov	r2, r8
100009ee:	601a      	str	r2, [r3, #0]
100009f0:	605f      	str	r7, [r3, #4]
100009f2:	e7de      	b.n	100009b2 <set_pll+0x6e>
100009f4:	0002      	movs	r2, r0
100009f6:	2108      	movs	r1, #8
100009f8:	2022      	movs	r0, #34	@ 0x22
100009fa:	f7ff fdd3 	bl	100005a4 <si5351_write_bulk>
100009fe:	4b06      	ldr	r3, [pc, #24]	@ (10000a18 <set_pll+0xd4>)
10000a00:	4642      	mov	r2, r8
10000a02:	601a      	str	r2, [r3, #0]
10000a04:	605f      	str	r7, [r3, #4]
10000a06:	e7d4      	b.n	100009b2 <set_pll+0x6e>
10000a08:	20002300 	.word	0x20002300
10000a0c:	20002559 	.word	0x20002559
10000a10:	2000255a 	.word	0x2000255a
10000a14:	20001560 	.word	0x20001560
10000a18:	20001568 	.word	0x20001568

10000a1c <Si5351_reset>:
10000a1c:	b570      	push	{r4, r5, r6, lr}
10000a1e:	2180      	movs	r1, #128	@ 0x80
10000a20:	2010      	movs	r0, #16
10000a22:	f7ff fddf 	bl	100005e4 <si5351_write>
10000a26:	2180      	movs	r1, #128	@ 0x80
10000a28:	2011      	movs	r0, #17
10000a2a:	f7ff fddb 	bl	100005e4 <si5351_write>
10000a2e:	2180      	movs	r1, #128	@ 0x80
10000a30:	2012      	movs	r0, #18
10000a32:	f7ff fdd7 	bl	100005e4 <si5351_write>
10000a36:	2180      	movs	r1, #128	@ 0x80
10000a38:	2013      	movs	r0, #19
10000a3a:	f7ff fdd3 	bl	100005e4 <si5351_write>
10000a3e:	2180      	movs	r1, #128	@ 0x80
10000a40:	2014      	movs	r0, #20
10000a42:	f7ff fdcf 	bl	100005e4 <si5351_write>
10000a46:	2180      	movs	r1, #128	@ 0x80
10000a48:	2015      	movs	r0, #21
10000a4a:	f7ff fdcb 	bl	100005e4 <si5351_write>
10000a4e:	2180      	movs	r1, #128	@ 0x80
10000a50:	2016      	movs	r0, #22
10000a52:	f7ff fdc7 	bl	100005e4 <si5351_write>
10000a56:	2180      	movs	r1, #128	@ 0x80
10000a58:	2017      	movs	r0, #23
10000a5a:	f7ff fdc3 	bl	100005e4 <si5351_write>
10000a5e:	210c      	movs	r1, #12
10000a60:	2010      	movs	r0, #16
10000a62:	f7ff fdbf 	bl	100005e4 <si5351_write>
10000a66:	210c      	movs	r1, #12
10000a68:	2011      	movs	r0, #17
10000a6a:	f7ff fdbb 	bl	100005e4 <si5351_write>
10000a6e:	210c      	movs	r1, #12
10000a70:	2012      	movs	r0, #18
10000a72:	f7ff fdb7 	bl	100005e4 <si5351_write>
10000a76:	210c      	movs	r1, #12
10000a78:	2013      	movs	r0, #19
10000a7a:	f7ff fdb3 	bl	100005e4 <si5351_write>
10000a7e:	210c      	movs	r1, #12
10000a80:	2014      	movs	r0, #20
10000a82:	f7ff fdaf 	bl	100005e4 <si5351_write>
10000a86:	210c      	movs	r1, #12
10000a88:	2015      	movs	r0, #21
10000a8a:	f7ff fdab 	bl	100005e4 <si5351_write>
10000a8e:	210c      	movs	r1, #12
10000a90:	2016      	movs	r0, #22
10000a92:	f7ff fda7 	bl	100005e4 <si5351_write>
10000a96:	210c      	movs	r1, #12
10000a98:	2017      	movs	r0, #23
10000a9a:	f7ff fda3 	bl	100005e4 <si5351_write>
10000a9e:	4c2f      	ldr	r4, [pc, #188]	@ (10000b5c <Si5351_reset+0x140>)
10000aa0:	2512      	movs	r5, #18
10000aa2:	2200      	movs	r2, #0
10000aa4:	0020      	movs	r0, r4
10000aa6:	0029      	movs	r1, r5
10000aa8:	f7ff ff4c 	bl	10000944 <set_pll>
10000aac:	2201      	movs	r2, #1
10000aae:	0020      	movs	r0, r4
10000ab0:	0029      	movs	r1, r5
10000ab2:	f7ff ff47 	bl	10000944 <set_pll>
10000ab6:	4b2a      	ldr	r3, [pc, #168]	@ (10000b60 <Si5351_reset+0x144>)
10000ab8:	2200      	movs	r2, #0
10000aba:	701a      	strb	r2, [r3, #0]
10000abc:	705a      	strb	r2, [r3, #1]
10000abe:	709a      	strb	r2, [r3, #2]
10000ac0:	70da      	strb	r2, [r3, #3]
10000ac2:	711a      	strb	r2, [r3, #4]
10000ac4:	715a      	strb	r2, [r3, #5]
10000ac6:	3201      	adds	r2, #1
10000ac8:	719a      	strb	r2, [r3, #6]
10000aca:	71da      	strb	r2, [r3, #7]
10000acc:	2100      	movs	r1, #0
10000ace:	2000      	movs	r0, #0
10000ad0:	f7ff fde2 	bl	10000698 <set_ms_source>
10000ad4:	2100      	movs	r1, #0
10000ad6:	2001      	movs	r0, #1
10000ad8:	f7ff fdde 	bl	10000698 <set_ms_source>
10000adc:	2100      	movs	r1, #0
10000ade:	2002      	movs	r0, #2
10000ae0:	f7ff fdda 	bl	10000698 <set_ms_source>
10000ae4:	2100      	movs	r1, #0
10000ae6:	2003      	movs	r0, #3
10000ae8:	f7ff fdd6 	bl	10000698 <set_ms_source>
10000aec:	2100      	movs	r1, #0
10000aee:	2004      	movs	r0, #4
10000af0:	f7ff fdd2 	bl	10000698 <set_ms_source>
10000af4:	2100      	movs	r1, #0
10000af6:	2005      	movs	r0, #5
10000af8:	f7ff fdce 	bl	10000698 <set_ms_source>
10000afc:	2101      	movs	r1, #1
10000afe:	2006      	movs	r0, #6
10000b00:	f7ff fdca 	bl	10000698 <set_ms_source>
10000b04:	2101      	movs	r1, #1
10000b06:	2007      	movs	r0, #7
10000b08:	f7ff fdc6 	bl	10000698 <set_ms_source>
10000b0c:	2100      	movs	r1, #0
10000b0e:	20a2      	movs	r0, #162	@ 0xa2
10000b10:	f7ff fd68 	bl	100005e4 <si5351_write>
10000b14:	2100      	movs	r1, #0
10000b16:	20a3      	movs	r0, #163	@ 0xa3
10000b18:	f7ff fd64 	bl	100005e4 <si5351_write>
10000b1c:	2100      	movs	r1, #0
10000b1e:	20a4      	movs	r0, #164	@ 0xa4
10000b20:	f7ff fd60 	bl	100005e4 <si5351_write>
10000b24:	2000      	movs	r0, #0
10000b26:	f7ff fd6f 	bl	10000608 <pll_reset>
10000b2a:	2001      	movs	r0, #1
10000b2c:	f7ff fd6c 	bl	10000608 <pll_reset>
10000b30:	2400      	movs	r4, #0
10000b32:	e00f      	b.n	10000b54 <Si5351_reset+0x138>
10000b34:	4b0b      	ldr	r3, [pc, #44]	@ (10000b64 <Si5351_reset+0x148>)
10000b36:	00e2      	lsls	r2, r4, #3
10000b38:	189b      	adds	r3, r3, r2
10000b3a:	2000      	movs	r0, #0
10000b3c:	2100      	movs	r1, #0
10000b3e:	6018      	str	r0, [r3, #0]
10000b40:	6059      	str	r1, [r3, #4]
10000b42:	2100      	movs	r1, #0
10000b44:	0020      	movs	r0, r4
10000b46:	f7ff fd8f 	bl	10000668 <output_enable>
10000b4a:	4b07      	ldr	r3, [pc, #28]	@ (10000b68 <Si5351_reset+0x14c>)
10000b4c:	2200      	movs	r2, #0
10000b4e:	551a      	strb	r2, [r3, r4]
10000b50:	3401      	adds	r4, #1
10000b52:	b2e4      	uxtb	r4, r4
10000b54:	2c07      	cmp	r4, #7
10000b56:	d9ed      	bls.n	10000b34 <Si5351_reset+0x118>
10000b58:	bd70      	pop	{r4, r5, r6, pc}
10000b5a:	46c0      	nop			@ (mov r8, r8)
10000b5c:	a05f2000 	.word	0xa05f2000
10000b60:	200022e8 	.word	0x200022e8
10000b64:	20001410 	.word	0x20001410
10000b68:	20001df4 	.word	0x20001df4

10000b6c <set_correction>:
10000b6c:	b510      	push	{r4, lr}
10000b6e:	4b08      	ldr	r3, [pc, #32]	@ (10000b90 <set_correction+0x24>)
10000b70:	0089      	lsls	r1, r1, #2
10000b72:	5058      	str	r0, [r3, r1]
10000b74:	4b07      	ldr	r3, [pc, #28]	@ (10000b94 <set_correction+0x28>)
10000b76:	6818      	ldr	r0, [r3, #0]
10000b78:	6859      	ldr	r1, [r3, #4]
10000b7a:	2200      	movs	r2, #0
10000b7c:	f7ff fee2 	bl	10000944 <set_pll>
10000b80:	4b05      	ldr	r3, [pc, #20]	@ (10000b98 <set_correction+0x2c>)
10000b82:	6818      	ldr	r0, [r3, #0]
10000b84:	6859      	ldr	r1, [r3, #4]
10000b86:	2201      	movs	r2, #1
10000b88:	f7ff fedc 	bl	10000944 <set_pll>
10000b8c:	bd10      	pop	{r4, pc}
10000b8e:	46c0      	nop			@ (mov r8, r8)
10000b90:	20002300 	.word	0x20002300
10000b94:	20001560 	.word	0x20001560
10000b98:	20001568 	.word	0x20001568

10000b9c <Si5351_init>:
10000b9c:	b570      	push	{r4, r5, r6, lr}
10000b9e:	0004      	movs	r4, r0
10000ba0:	000d      	movs	r5, r1
10000ba2:	0016      	movs	r6, r2
10000ba4:	4b20      	ldr	r3, [pc, #128]	@ (10000c28 <Si5351_init+0x8c>)
10000ba6:	4a21      	ldr	r2, [pc, #132]	@ (10000c2c <Si5351_init+0x90>)
10000ba8:	601a      	str	r2, [r3, #0]
10000baa:	4a21      	ldr	r2, [pc, #132]	@ (10000c30 <Si5351_init+0x94>)
10000bac:	2300      	movs	r3, #0
10000bae:	7013      	strb	r3, [r2, #0]
10000bb0:	4a20      	ldr	r2, [pc, #128]	@ (10000c34 <Si5351_init+0x98>)
10000bb2:	7013      	strb	r3, [r2, #0]
10000bb4:	4a20      	ldr	r2, [pc, #128]	@ (10000c38 <Si5351_init+0x9c>)
10000bb6:	7013      	strb	r3, [r2, #0]
10000bb8:	4820      	ldr	r0, [pc, #128]	@ (10000c3c <Si5351_init+0xa0>)
10000bba:	4921      	ldr	r1, [pc, #132]	@ (10000c40 <Si5351_init+0xa4>)
10000bbc:	f009 fb72 	bl	1000a2a4 <i2c_init>
10000bc0:	2103      	movs	r1, #3
10000bc2:	2004      	movs	r0, #4
10000bc4:	f001 fe64 	bl	10002890 <gpio_set_function>
10000bc8:	2103      	movs	r1, #3
10000bca:	2005      	movs	r0, #5
10000bcc:	f001 fe60 	bl	10002890 <gpio_set_function>
10000bd0:	2200      	movs	r2, #0
10000bd2:	2101      	movs	r1, #1
10000bd4:	2004      	movs	r0, #4
10000bd6:	f001 fe73 	bl	100028c0 <gpio_set_pulls>
10000bda:	2200      	movs	r2, #0
10000bdc:	2101      	movs	r1, #1
10000bde:	2005      	movs	r0, #5
10000be0:	f001 fe6e 	bl	100028c0 <gpio_set_pulls>
10000be4:	2000      	movs	r0, #0
10000be6:	f7ff fd1f 	bl	10000628 <si5351_read>
10000bea:	09c3      	lsrs	r3, r0, #7
10000bec:	b2db      	uxtb	r3, r3
10000bee:	2b01      	cmp	r3, #1
10000bf0:	d0f8      	beq.n	10000be4 <Si5351_init+0x48>
10000bf2:	233f      	movs	r3, #63	@ 0x3f
10000bf4:	439c      	bics	r4, r3
10000bf6:	2312      	movs	r3, #18
10000bf8:	431c      	orrs	r4, r3
10000bfa:	b2e1      	uxtb	r1, r4
10000bfc:	20b7      	movs	r0, #183	@ 0xb7
10000bfe:	f7ff fcf1 	bl	100005e4 <si5351_write>
10000c02:	2d00      	cmp	r5, #0
10000c04:	d00a      	beq.n	10000c1c <Si5351_init+0x80>
10000c06:	2100      	movs	r1, #0
10000c08:	0028      	movs	r0, r5
10000c0a:	f7ff fc91 	bl	10000530 <set_ref_freq>
10000c0e:	2100      	movs	r1, #0
10000c10:	0030      	movs	r0, r6
10000c12:	f7ff ffab 	bl	10000b6c <set_correction>
10000c16:	f7ff ff01 	bl	10000a1c <Si5351_reset>
10000c1a:	bd70      	pop	{r4, r5, r6, pc}
10000c1c:	2100      	movs	r1, #0
10000c1e:	4803      	ldr	r0, [pc, #12]	@ (10000c2c <Si5351_init+0x90>)
10000c20:	f7ff fc86 	bl	10000530 <set_ref_freq>
10000c24:	e7f3      	b.n	10000c0e <Si5351_init+0x72>
10000c26:	46c0      	nop			@ (mov r8, r8)
10000c28:	20002544 	.word	0x20002544
10000c2c:	017d7840 	.word	0x017d7840
10000c30:	20002559 	.word	0x20002559
10000c34:	2000255a 	.word	0x2000255a
10000c38:	20002551 	.word	0x20002551
10000c3c:	20000ea0 	.word	0x20000ea0
10000c40:	00061a80 	.word	0x00061a80

10000c44 <multisynth_calc>:
10000c44:	b5f0      	push	{r4, r5, r6, r7, lr}
10000c46:	46de      	mov	lr, fp
10000c48:	4657      	mov	r7, sl
10000c4a:	464e      	mov	r6, r9
10000c4c:	4645      	mov	r5, r8
10000c4e:	b5e0      	push	{r5, r6, r7, lr}
10000c50:	b087      	sub	sp, #28
10000c52:	0005      	movs	r5, r0
10000c54:	000e      	movs	r6, r1
10000c56:	9201      	str	r2, [sp, #4]
10000c58:	9302      	str	r3, [sp, #8]
10000c5a:	2905      	cmp	r1, #5
10000c5c:	d80e      	bhi.n	10000c7c <multisynth_calc+0x38>
10000c5e:	d102      	bne.n	10000c66 <multisynth_calc+0x22>
10000c60:	4b66      	ldr	r3, [pc, #408]	@ (10000dfc <multisynth_calc+0x1b8>)
10000c62:	4298      	cmp	r0, r3
10000c64:	d80a      	bhi.n	10000c7c <multisynth_calc+0x38>
10000c66:	2e00      	cmp	r6, #0
10000c68:	d10a      	bne.n	10000c80 <multisynth_calc+0x3c>
10000c6a:	d102      	bne.n	10000c72 <multisynth_calc+0x2e>
10000c6c:	4b64      	ldr	r3, [pc, #400]	@ (10000e00 <multisynth_calc+0x1bc>)
10000c6e:	429d      	cmp	r5, r3
10000c70:	d806      	bhi.n	10000c80 <multisynth_calc+0x3c>
10000c72:	4d64      	ldr	r5, [pc, #400]	@ (10000e04 <multisynth_calc+0x1c0>)
10000c74:	2600      	movs	r6, #0
10000c76:	2300      	movs	r3, #0
10000c78:	4699      	mov	r9, r3
10000c7a:	e009      	b.n	10000c90 <multisynth_calc+0x4c>
10000c7c:	4d5f      	ldr	r5, [pc, #380]	@ (10000dfc <multisynth_calc+0x1b8>)
10000c7e:	2605      	movs	r6, #5
10000c80:	2e03      	cmp	r6, #3
10000c82:	d84f      	bhi.n	10000d24 <multisynth_calc+0xe0>
10000c84:	d102      	bne.n	10000c8c <multisynth_calc+0x48>
10000c86:	4b60      	ldr	r3, [pc, #384]	@ (10000e08 <multisynth_calc+0x1c4>)
10000c88:	429d      	cmp	r5, r3
10000c8a:	d84b      	bhi.n	10000d24 <multisynth_calc+0xe0>
10000c8c:	2300      	movs	r3, #0
10000c8e:	4699      	mov	r9, r3
10000c90:	9b01      	ldr	r3, [sp, #4]
10000c92:	9a02      	ldr	r2, [sp, #8]
10000c94:	4313      	orrs	r3, r2
10000c96:	d153      	bne.n	10000d40 <multisynth_calc+0xfc>
10000c98:	464b      	mov	r3, r9
10000c9a:	2b00      	cmp	r3, #0
10000c9c:	d14d      	bne.n	10000d3a <multisynth_calc+0xf6>
10000c9e:	002a      	movs	r2, r5
10000ca0:	0033      	movs	r3, r6
10000ca2:	485a      	ldr	r0, [pc, #360]	@ (10000e0c <multisynth_calc+0x1c8>)
10000ca4:	2114      	movs	r1, #20
10000ca6:	f004 fe79 	bl	1000599c <__wrap___aeabi_uldivmod>
10000caa:	2805      	cmp	r0, #5
10000cac:	d03d      	beq.n	10000d2a <multisynth_calc+0xe6>
10000cae:	2807      	cmp	r0, #7
10000cb0:	d03f      	beq.n	10000d32 <multisynth_calc+0xee>
10000cb2:	4680      	mov	r8, r0
10000cb4:	002a      	movs	r2, r5
10000cb6:	0033      	movs	r3, r6
10000cb8:	4640      	mov	r0, r8
10000cba:	2100      	movs	r1, #0
10000cbc:	f006 f9d8 	bl	10007070 <__wrap___aeabi_lmul>
10000cc0:	9001      	str	r0, [sp, #4]
10000cc2:	9102      	str	r1, [sp, #8]
10000cc4:	9603      	str	r6, [sp, #12]
10000cc6:	2300      	movs	r3, #0
10000cc8:	469b      	mov	fp, r3
10000cca:	3301      	adds	r3, #1
10000ccc:	469a      	mov	sl, r3
10000cce:	2000      	movs	r0, #0
10000cd0:	464b      	mov	r3, r9
10000cd2:	2b01      	cmp	r3, #1
10000cd4:	d100      	bne.n	10000cd8 <multisynth_calc+0x94>
10000cd6:	e08b      	b.n	10000df0 <multisynth_calc+0x1ac>
10000cd8:	4643      	mov	r3, r8
10000cda:	01db      	lsls	r3, r3, #7
10000cdc:	4698      	mov	r8, r3
10000cde:	01c3      	lsls	r3, r0, #7
10000ce0:	4699      	mov	r9, r3
10000ce2:	4651      	mov	r1, sl
10000ce4:	0018      	movs	r0, r3
10000ce6:	f004 fe1b 	bl	10005920 <__wrap___aeabi_uidiv>
10000cea:	4440      	add	r0, r8
10000cec:	4b48      	ldr	r3, [pc, #288]	@ (10000e10 <multisynth_calc+0x1cc>)
10000cee:	4698      	mov	r8, r3
10000cf0:	4480      	add	r8, r0
10000cf2:	4651      	mov	r1, sl
10000cf4:	4648      	mov	r0, r9
10000cf6:	f004 fe13 	bl	10005920 <__wrap___aeabi_uidiv>
10000cfa:	4643      	mov	r3, r8
10000cfc:	9a10      	ldr	r2, [sp, #64]	@ 0x40
10000cfe:	6013      	str	r3, [r2, #0]
10000d00:	6051      	str	r1, [r2, #4]
10000d02:	4653      	mov	r3, sl
10000d04:	6093      	str	r3, [r2, #8]
10000d06:	465b      	mov	r3, fp
10000d08:	2b00      	cmp	r3, #0
10000d0a:	d102      	bne.n	10000d12 <multisynth_calc+0xce>
10000d0c:	9d01      	ldr	r5, [sp, #4]
10000d0e:	9b02      	ldr	r3, [sp, #8]
10000d10:	9303      	str	r3, [sp, #12]
10000d12:	0028      	movs	r0, r5
10000d14:	9903      	ldr	r1, [sp, #12]
10000d16:	b007      	add	sp, #28
10000d18:	bcf0      	pop	{r4, r5, r6, r7}
10000d1a:	46bb      	mov	fp, r7
10000d1c:	46b2      	mov	sl, r6
10000d1e:	46a9      	mov	r9, r5
10000d20:	46a0      	mov	r8, r4
10000d22:	bdf0      	pop	{r4, r5, r6, r7, pc}
10000d24:	2301      	movs	r3, #1
10000d26:	4699      	mov	r9, r3
10000d28:	e7b2      	b.n	10000c90 <multisynth_calc+0x4c>
10000d2a:	2900      	cmp	r1, #0
10000d2c:	d1bf      	bne.n	10000cae <multisynth_calc+0x6a>
10000d2e:	2004      	movs	r0, #4
10000d30:	e7bf      	b.n	10000cb2 <multisynth_calc+0x6e>
10000d32:	2900      	cmp	r1, #0
10000d34:	d1bd      	bne.n	10000cb2 <multisynth_calc+0x6e>
10000d36:	2006      	movs	r0, #6
10000d38:	e7bb      	b.n	10000cb2 <multisynth_calc+0x6e>
10000d3a:	2304      	movs	r3, #4
10000d3c:	4698      	mov	r8, r3
10000d3e:	e7b9      	b.n	10000cb4 <multisynth_calc+0x70>
10000d40:	002a      	movs	r2, r5
10000d42:	0033      	movs	r3, r6
10000d44:	9901      	ldr	r1, [sp, #4]
10000d46:	468a      	mov	sl, r1
10000d48:	0008      	movs	r0, r1
10000d4a:	9f02      	ldr	r7, [sp, #8]
10000d4c:	0039      	movs	r1, r7
10000d4e:	f004 fe25 	bl	1000599c <__wrap___aeabi_uldivmod>
10000d52:	4680      	mov	r8, r0
10000d54:	2805      	cmp	r0, #5
10000d56:	d807      	bhi.n	10000d68 <multisynth_calc+0x124>
10000d58:	2206      	movs	r2, #6
10000d5a:	2300      	movs	r3, #0
10000d5c:	4650      	mov	r0, sl
10000d5e:	0039      	movs	r1, r7
10000d60:	f004 fe1c 	bl	1000599c <__wrap___aeabi_uldivmod>
10000d64:	0005      	movs	r5, r0
10000d66:	000e      	movs	r6, r1
10000d68:	23e1      	movs	r3, #225	@ 0xe1
10000d6a:	00db      	lsls	r3, r3, #3
10000d6c:	4598      	cmp	r8, r3
10000d6e:	d939      	bls.n	10000de4 <multisynth_calc+0x1a0>
10000d70:	22e1      	movs	r2, #225	@ 0xe1
10000d72:	00d2      	lsls	r2, r2, #3
10000d74:	2300      	movs	r3, #0
10000d76:	9801      	ldr	r0, [sp, #4]
10000d78:	9902      	ldr	r1, [sp, #8]
10000d7a:	f004 fe0f 	bl	1000599c <__wrap___aeabi_uldivmod>
10000d7e:	0005      	movs	r5, r0
10000d80:	9103      	str	r1, [sp, #12]
10000d82:	002a      	movs	r2, r5
10000d84:	9b03      	ldr	r3, [sp, #12]
10000d86:	469a      	mov	sl, r3
10000d88:	9801      	ldr	r0, [sp, #4]
10000d8a:	9902      	ldr	r1, [sp, #8]
10000d8c:	f004 fe06 	bl	1000599c <__wrap___aeabi_uldivmod>
10000d90:	0016      	movs	r6, r2
10000d92:	001f      	movs	r7, r3
10000d94:	0ed3      	lsrs	r3, r2, #27
10000d96:	0179      	lsls	r1, r7, #5
10000d98:	4319      	orrs	r1, r3
10000d9a:	0170      	lsls	r0, r6, #5
10000d9c:	1b80      	subs	r0, r0, r6
10000d9e:	41b9      	sbcs	r1, r7
10000da0:	0dc2      	lsrs	r2, r0, #23
10000da2:	9004      	str	r0, [sp, #16]
10000da4:	9105      	str	r1, [sp, #20]
10000da6:	024b      	lsls	r3, r1, #9
10000da8:	4313      	orrs	r3, r2
10000daa:	9904      	ldr	r1, [sp, #16]
10000dac:	024a      	lsls	r2, r1, #9
10000dae:	1992      	adds	r2, r2, r6
10000db0:	417b      	adcs	r3, r7
10000db2:	0e91      	lsrs	r1, r2, #26
10000db4:	468c      	mov	ip, r1
10000db6:	9204      	str	r2, [sp, #16]
10000db8:	9305      	str	r3, [sp, #20]
10000dba:	0199      	lsls	r1, r3, #6
10000dbc:	4662      	mov	r2, ip
10000dbe:	4311      	orrs	r1, r2
10000dc0:	9a04      	ldr	r2, [sp, #16]
10000dc2:	9b05      	ldr	r3, [sp, #20]
10000dc4:	0190      	lsls	r0, r2, #6
10000dc6:	1a80      	subs	r0, r0, r2
10000dc8:	4199      	sbcs	r1, r3
10000dca:	1980      	adds	r0, r0, r6
10000dcc:	4179      	adcs	r1, r7
10000dce:	002a      	movs	r2, r5
10000dd0:	4653      	mov	r3, sl
10000dd2:	f004 fde3 	bl	1000599c <__wrap___aeabi_uldivmod>
10000dd6:	2800      	cmp	r0, #0
10000dd8:	d006      	beq.n	10000de8 <multisynth_calc+0x1a4>
10000dda:	2301      	movs	r3, #1
10000ddc:	469b      	mov	fp, r3
10000dde:	4b0d      	ldr	r3, [pc, #52]	@ (10000e14 <multisynth_calc+0x1d0>)
10000de0:	469a      	mov	sl, r3
10000de2:	e775      	b.n	10000cd0 <multisynth_calc+0x8c>
10000de4:	9603      	str	r6, [sp, #12]
10000de6:	e7cc      	b.n	10000d82 <multisynth_calc+0x13e>
10000de8:	2301      	movs	r3, #1
10000dea:	469b      	mov	fp, r3
10000dec:	469a      	mov	sl, r3
10000dee:	e76f      	b.n	10000cd0 <multisynth_calc+0x8c>
10000df0:	2301      	movs	r3, #1
10000df2:	469a      	mov	sl, r3
10000df4:	2100      	movs	r1, #0
10000df6:	2300      	movs	r3, #0
10000df8:	4698      	mov	r8, r3
10000dfa:	e77e      	b.n	10000cfa <multisynth_calc+0xb6>
10000dfc:	3d1ac100 	.word	0x3d1ac100
10000e00:	02faf07f 	.word	0x02faf07f
10000e04:	02faf080 	.word	0x02faf080
10000e08:	7e11d5ff 	.word	0x7e11d5ff
10000e0c:	f46b0400 	.word	0xf46b0400
10000e10:	fffffe00 	.word	0xfffffe00
10000e14:	000f4240 	.word	0x000f4240

10000e18 <multisynth67_calc>:
10000e18:	b5f0      	push	{r4, r5, r6, r7, lr}
10000e1a:	46d6      	mov	lr, sl
10000e1c:	464f      	mov	r7, r9
10000e1e:	4646      	mov	r6, r8
10000e20:	b5c0      	push	{r6, r7, lr}
10000e22:	0005      	movs	r5, r0
10000e24:	000c      	movs	r4, r1
10000e26:	4691      	mov	r9, r2
10000e28:	4698      	mov	r8, r3
10000e2a:	9b08      	ldr	r3, [sp, #32]
10000e2c:	469a      	mov	sl, r3
10000e2e:	2903      	cmp	r1, #3
10000e30:	d80c      	bhi.n	10000e4c <multisynth67_calc+0x34>
10000e32:	d102      	bne.n	10000e3a <multisynth67_calc+0x22>
10000e34:	4b41      	ldr	r3, [pc, #260]	@ (10000f3c <multisynth67_calc+0x124>)
10000e36:	4298      	cmp	r0, r3
10000e38:	d808      	bhi.n	10000e4c <multisynth67_calc+0x34>
10000e3a:	2c00      	cmp	r4, #0
10000e3c:	d108      	bne.n	10000e50 <multisynth67_calc+0x38>
10000e3e:	d102      	bne.n	10000e46 <multisynth67_calc+0x2e>
10000e40:	4b3f      	ldr	r3, [pc, #252]	@ (10000f40 <multisynth67_calc+0x128>)
10000e42:	429d      	cmp	r5, r3
10000e44:	d804      	bhi.n	10000e50 <multisynth67_calc+0x38>
10000e46:	4d3f      	ldr	r5, [pc, #252]	@ (10000f44 <multisynth67_calc+0x12c>)
10000e48:	2400      	movs	r4, #0
10000e4a:	e001      	b.n	10000e50 <multisynth67_calc+0x38>
10000e4c:	4d3b      	ldr	r5, [pc, #236]	@ (10000f3c <multisynth67_calc+0x124>)
10000e4e:	2403      	movs	r4, #3
10000e50:	464b      	mov	r3, r9
10000e52:	4642      	mov	r2, r8
10000e54:	4313      	orrs	r3, r2
10000e56:	d01c      	beq.n	10000e92 <multisynth67_calc+0x7a>
10000e58:	002a      	movs	r2, r5
10000e5a:	0023      	movs	r3, r4
10000e5c:	4648      	mov	r0, r9
10000e5e:	4641      	mov	r1, r8
10000e60:	f004 fd9c 	bl	1000599c <__wrap___aeabi_uldivmod>
10000e64:	0017      	movs	r7, r2
10000e66:	001e      	movs	r6, r3
10000e68:	4313      	orrs	r3, r2
10000e6a:	d163      	bne.n	10000f34 <multisynth67_calc+0x11c>
10000e6c:	002a      	movs	r2, r5
10000e6e:	0023      	movs	r3, r4
10000e70:	4648      	mov	r0, r9
10000e72:	4641      	mov	r1, r8
10000e74:	f004 fd92 	bl	1000599c <__wrap___aeabi_uldivmod>
10000e78:	1f83      	subs	r3, r0, #6
10000e7a:	2bf8      	cmp	r3, #248	@ 0xf8
10000e7c:	d841      	bhi.n	10000f02 <multisynth67_calc+0xea>
10000e7e:	b2c0      	uxtb	r0, r0
10000e80:	4653      	mov	r3, sl
10000e82:	6018      	str	r0, [r3, #0]
10000e84:	2300      	movs	r3, #0
10000e86:	4652      	mov	r2, sl
10000e88:	6053      	str	r3, [r2, #4]
10000e8a:	6093      	str	r3, [r2, #8]
10000e8c:	2701      	movs	r7, #1
10000e8e:	2600      	movs	r6, #0
10000e90:	e037      	b.n	10000f02 <multisynth67_calc+0xea>
10000e92:	002a      	movs	r2, r5
10000e94:	0023      	movs	r3, r4
10000e96:	482c      	ldr	r0, [pc, #176]	@ (10000f48 <multisynth67_calc+0x130>)
10000e98:	2114      	movs	r1, #20
10000e9a:	f004 fd7f 	bl	1000599c <__wrap___aeabi_uldivmod>
10000e9e:	4680      	mov	r8, r0
10000ea0:	2301      	movs	r3, #1
10000ea2:	4203      	tst	r3, r0
10000ea4:	d001      	beq.n	10000eaa <multisynth67_calc+0x92>
10000ea6:	1c43      	adds	r3, r0, #1
10000ea8:	4698      	mov	r8, r3
10000eaa:	4643      	mov	r3, r8
10000eac:	2b05      	cmp	r3, #5
10000eae:	d904      	bls.n	10000eba <multisynth67_calc+0xa2>
10000eb0:	2bfe      	cmp	r3, #254	@ 0xfe
10000eb2:	d904      	bls.n	10000ebe <multisynth67_calc+0xa6>
10000eb4:	23fe      	movs	r3, #254	@ 0xfe
10000eb6:	4698      	mov	r8, r3
10000eb8:	e001      	b.n	10000ebe <multisynth67_calc+0xa6>
10000eba:	2306      	movs	r3, #6
10000ebc:	4698      	mov	r8, r3
10000ebe:	002a      	movs	r2, r5
10000ec0:	0023      	movs	r3, r4
10000ec2:	4640      	mov	r0, r8
10000ec4:	2100      	movs	r1, #0
10000ec6:	f006 f8d3 	bl	10007070 <__wrap___aeabi_lmul>
10000eca:	0007      	movs	r7, r0
10000ecc:	000e      	movs	r6, r1
10000ece:	2914      	cmp	r1, #20
10000ed0:	d803      	bhi.n	10000eda <multisynth67_calc+0xc2>
10000ed2:	d11d      	bne.n	10000f10 <multisynth67_calc+0xf8>
10000ed4:	4b1d      	ldr	r3, [pc, #116]	@ (10000f4c <multisynth67_calc+0x134>)
10000ed6:	4298      	cmp	r0, r3
10000ed8:	d91a      	bls.n	10000f10 <multisynth67_calc+0xf8>
10000eda:	2302      	movs	r3, #2
10000edc:	425b      	negs	r3, r3
10000ede:	469c      	mov	ip, r3
10000ee0:	44e0      	add	r8, ip
10000ee2:	002a      	movs	r2, r5
10000ee4:	0023      	movs	r3, r4
10000ee6:	4640      	mov	r0, r8
10000ee8:	2100      	movs	r1, #0
10000eea:	f006 f8c1 	bl	10007070 <__wrap___aeabi_lmul>
10000eee:	0007      	movs	r7, r0
10000ef0:	000e      	movs	r6, r1
10000ef2:	23ff      	movs	r3, #255	@ 0xff
10000ef4:	4642      	mov	r2, r8
10000ef6:	4013      	ands	r3, r2
10000ef8:	4652      	mov	r2, sl
10000efa:	6013      	str	r3, [r2, #0]
10000efc:	2300      	movs	r3, #0
10000efe:	6053      	str	r3, [r2, #4]
10000f00:	6093      	str	r3, [r2, #8]
10000f02:	0038      	movs	r0, r7
10000f04:	0031      	movs	r1, r6
10000f06:	bce0      	pop	{r5, r6, r7}
10000f08:	46ba      	mov	sl, r7
10000f0a:	46b1      	mov	r9, r6
10000f0c:	46a8      	mov	r8, r5
10000f0e:	bdf0      	pop	{r4, r5, r6, r7, pc}
10000f10:	2e0d      	cmp	r6, #13
10000f12:	d8ee      	bhi.n	10000ef2 <multisynth67_calc+0xda>
10000f14:	d102      	bne.n	10000f1c <multisynth67_calc+0x104>
10000f16:	4b0e      	ldr	r3, [pc, #56]	@ (10000f50 <multisynth67_calc+0x138>)
10000f18:	429f      	cmp	r7, r3
10000f1a:	d8ea      	bhi.n	10000ef2 <multisynth67_calc+0xda>
10000f1c:	2302      	movs	r3, #2
10000f1e:	469c      	mov	ip, r3
10000f20:	44e0      	add	r8, ip
10000f22:	002a      	movs	r2, r5
10000f24:	0023      	movs	r3, r4
10000f26:	4640      	mov	r0, r8
10000f28:	2100      	movs	r1, #0
10000f2a:	f006 f8a1 	bl	10007070 <__wrap___aeabi_lmul>
10000f2e:	0007      	movs	r7, r0
10000f30:	000e      	movs	r6, r1
10000f32:	e7de      	b.n	10000ef2 <multisynth67_calc+0xda>
10000f34:	2700      	movs	r7, #0
10000f36:	2600      	movs	r6, #0
10000f38:	e7e3      	b.n	10000f02 <multisynth67_calc+0xea>
10000f3a:	46c0      	nop			@ (mov r8, r8)
10000f3c:	7e11d600 	.word	0x7e11d600
10000f40:	02faf07f 	.word	0x02faf07f
10000f44:	02faf080 	.word	0x02faf080
10000f48:	ee752300 	.word	0xee752300
10000f4c:	f46b0400 	.word	0xf46b0400
10000f50:	f84757ff 	.word	0xf84757ff

10000f54 <ms_div>:
10000f54:	b5f8      	push	{r3, r4, r5, r6, r7, lr}
10000f56:	0007      	movs	r7, r0
10000f58:	000e      	movs	r6, r1
10000f5a:	0014      	movs	r4, r2
10000f5c:	2807      	cmp	r0, #7
10000f5e:	d803      	bhi.n	10000f68 <ms_div+0x14>
10000f60:	0083      	lsls	r3, r0, #2
10000f62:	4a1c      	ldr	r2, [pc, #112]	@ (10000fd4 <ms_div+0x80>)
10000f64:	58d3      	ldr	r3, [r2, r3]
10000f66:	469f      	mov	pc, r3
10000f68:	2500      	movs	r5, #0
10000f6a:	e00e      	b.n	10000f8a <ms_div+0x36>
10000f6c:	2534      	movs	r5, #52	@ 0x34
10000f6e:	e00c      	b.n	10000f8a <ms_div+0x36>
10000f70:	253c      	movs	r5, #60	@ 0x3c
10000f72:	e00a      	b.n	10000f8a <ms_div+0x36>
10000f74:	2544      	movs	r5, #68	@ 0x44
10000f76:	e008      	b.n	10000f8a <ms_div+0x36>
10000f78:	254c      	movs	r5, #76	@ 0x4c
10000f7a:	e006      	b.n	10000f8a <ms_div+0x36>
10000f7c:	2554      	movs	r5, #84	@ 0x54
10000f7e:	e004      	b.n	10000f8a <ms_div+0x36>
10000f80:	255c      	movs	r5, #92	@ 0x5c
10000f82:	e002      	b.n	10000f8a <ms_div+0x36>
10000f84:	255c      	movs	r5, #92	@ 0x5c
10000f86:	e000      	b.n	10000f8a <ms_div+0x36>
10000f88:	252c      	movs	r5, #44	@ 0x2c
10000f8a:	0028      	movs	r0, r5
10000f8c:	f7ff fb4c 	bl	10000628 <si5351_read>
10000f90:	0001      	movs	r1, r0
10000f92:	2f05      	cmp	r7, #5
10000f94:	d80e      	bhi.n	10000fb4 <ms_div+0x60>
10000f96:	237c      	movs	r3, #124	@ 0x7c
10000f98:	4398      	bics	r0, r3
10000f9a:	b2c3      	uxtb	r3, r0
10000f9c:	2c00      	cmp	r4, #0
10000f9e:	d002      	beq.n	10000fa6 <ms_div+0x52>
10000fa0:	220c      	movs	r2, #12
10000fa2:	4313      	orrs	r3, r2
10000fa4:	b2db      	uxtb	r3, r3
10000fa6:	0136      	lsls	r6, r6, #4
10000fa8:	4333      	orrs	r3, r6
10000faa:	b2d9      	uxtb	r1, r3
10000fac:	0028      	movs	r0, r5
10000fae:	f7ff fb19 	bl	100005e4 <si5351_write>
10000fb2:	bdf8      	pop	{r3, r4, r5, r6, r7, pc}
10000fb4:	2f06      	cmp	r7, #6
10000fb6:	d008      	beq.n	10000fca <ms_div+0x76>
10000fb8:	2f07      	cmp	r7, #7
10000fba:	d1f7      	bne.n	10000fac <ms_div+0x58>
10000fbc:	2370      	movs	r3, #112	@ 0x70
10000fbe:	4398      	bics	r0, r3
10000fc0:	b2c0      	uxtb	r0, r0
10000fc2:	0136      	lsls	r6, r6, #4
10000fc4:	4330      	orrs	r0, r6
10000fc6:	b2c1      	uxtb	r1, r0
10000fc8:	e7f0      	b.n	10000fac <ms_div+0x58>
10000fca:	2307      	movs	r3, #7
10000fcc:	4398      	bics	r0, r3
10000fce:	b2c1      	uxtb	r1, r0
10000fd0:	4331      	orrs	r1, r6
10000fd2:	e7eb      	b.n	10000fac <ms_div+0x58>
10000fd4:	1000c3e4 	.word	0x1000c3e4

10000fd8 <set_ms>:
10000fd8:	b5f0      	push	{r4, r5, r6, r7, lr}
10000fda:	46ce      	mov	lr, r9
10000fdc:	4647      	mov	r7, r8
10000fde:	b580      	push	{r7, lr}
10000fe0:	b085      	sub	sp, #20
10000fe2:	0004      	movs	r4, r0
10000fe4:	9101      	str	r1, [sp, #4]
10000fe6:	9202      	str	r2, [sp, #8]
10000fe8:	9303      	str	r3, [sp, #12]
10000fea:	ab0c      	add	r3, sp, #48	@ 0x30
10000fec:	781b      	ldrb	r3, [r3, #0]
10000fee:	4698      	mov	r8, r3
10000ff0:	ab0d      	add	r3, sp, #52	@ 0x34
10000ff2:	781e      	ldrb	r6, [r3, #0]
10000ff4:	ab0e      	add	r3, sp, #56	@ 0x38
10000ff6:	781f      	ldrb	r7, [r3, #0]
10000ff8:	2014      	movs	r0, #20
10000ffa:	f006 f9b5 	bl	10007368 <__wrap_malloc>
10000ffe:	0005      	movs	r5, r0
10001000:	2c05      	cmp	r4, #5
10001002:	d908      	bls.n	10001016 <set_ms+0x3e>
10001004:	9b01      	ldr	r3, [sp, #4]
10001006:	b2db      	uxtb	r3, r3
10001008:	2100      	movs	r1, #0
1000100a:	2c07      	cmp	r4, #7
1000100c:	d838      	bhi.n	10001080 <set_ms+0xa8>
1000100e:	00a2      	lsls	r2, r4, #2
10001010:	484c      	ldr	r0, [pc, #304]	@ (10001144 <set_ms+0x16c>)
10001012:	5882      	ldr	r2, [r0, r2]
10001014:	4697      	mov	pc, r2
10001016:	9b03      	ldr	r3, [sp, #12]
10001018:	4699      	mov	r9, r3
1000101a:	0a1b      	lsrs	r3, r3, #8
1000101c:	7003      	strb	r3, [r0, #0]
1000101e:	464b      	mov	r3, r9
10001020:	7043      	strb	r3, [r0, #1]
10001022:	00e0      	lsls	r0, r4, #3
10001024:	302c      	adds	r0, #44	@ 0x2c
10001026:	b2c0      	uxtb	r0, r0
10001028:	f7ff fafe 	bl	10000628 <si5351_read>
1000102c:	2303      	movs	r3, #3
1000102e:	4398      	bics	r0, r3
10001030:	b2c0      	uxtb	r0, r0
10001032:	9b01      	ldr	r3, [sp, #4]
10001034:	0c19      	lsrs	r1, r3, #16
10001036:	2203      	movs	r2, #3
10001038:	400a      	ands	r2, r1
1000103a:	4310      	orrs	r0, r2
1000103c:	70a8      	strb	r0, [r5, #2]
1000103e:	0a1a      	lsrs	r2, r3, #8
10001040:	70ea      	strb	r2, [r5, #3]
10001042:	712b      	strb	r3, [r5, #4]
10001044:	464b      	mov	r3, r9
10001046:	0b1a      	lsrs	r2, r3, #12
10001048:	b2d2      	uxtb	r2, r2
1000104a:	230f      	movs	r3, #15
1000104c:	439a      	bics	r2, r3
1000104e:	9b02      	ldr	r3, [sp, #8]
10001050:	0c18      	lsrs	r0, r3, #16
10001052:	210f      	movs	r1, #15
10001054:	4001      	ands	r1, r0
10001056:	430a      	orrs	r2, r1
10001058:	716a      	strb	r2, [r5, #5]
1000105a:	0a1a      	lsrs	r2, r3, #8
1000105c:	71aa      	strb	r2, [r5, #6]
1000105e:	b2db      	uxtb	r3, r3
10001060:	71eb      	strb	r3, [r5, #7]
10001062:	2108      	movs	r1, #8
10001064:	e7d1      	b.n	1000100a <set_ms+0x32>
10001066:	002a      	movs	r2, r5
10001068:	202a      	movs	r0, #42	@ 0x2a
1000106a:	f7ff fa9b 	bl	100005a4 <si5351_write_bulk>
1000106e:	4641      	mov	r1, r8
10001070:	0020      	movs	r0, r4
10001072:	f7ff fb2f 	bl	100006d4 <set_int>
10001076:	003a      	movs	r2, r7
10001078:	0031      	movs	r1, r6
1000107a:	0020      	movs	r0, r4
1000107c:	f7ff ff6a 	bl	10000f54 <ms_div>
10001080:	0028      	movs	r0, r5
10001082:	f006 f987 	bl	10007394 <__wrap_free>
10001086:	b005      	add	sp, #20
10001088:	bcc0      	pop	{r6, r7}
1000108a:	46b9      	mov	r9, r7
1000108c:	46b0      	mov	r8, r6
1000108e:	bdf0      	pop	{r4, r5, r6, r7, pc}
10001090:	002a      	movs	r2, r5
10001092:	2032      	movs	r0, #50	@ 0x32
10001094:	f7ff fa86 	bl	100005a4 <si5351_write_bulk>
10001098:	4641      	mov	r1, r8
1000109a:	0020      	movs	r0, r4
1000109c:	f7ff fb1a 	bl	100006d4 <set_int>
100010a0:	003a      	movs	r2, r7
100010a2:	0031      	movs	r1, r6
100010a4:	0020      	movs	r0, r4
100010a6:	f7ff ff55 	bl	10000f54 <ms_div>
100010aa:	e7e9      	b.n	10001080 <set_ms+0xa8>
100010ac:	002a      	movs	r2, r5
100010ae:	203a      	movs	r0, #58	@ 0x3a
100010b0:	f7ff fa78 	bl	100005a4 <si5351_write_bulk>
100010b4:	4641      	mov	r1, r8
100010b6:	0020      	movs	r0, r4
100010b8:	f7ff fb0c 	bl	100006d4 <set_int>
100010bc:	003a      	movs	r2, r7
100010be:	0031      	movs	r1, r6
100010c0:	0020      	movs	r0, r4
100010c2:	f7ff ff47 	bl	10000f54 <ms_div>
100010c6:	e7db      	b.n	10001080 <set_ms+0xa8>
100010c8:	002a      	movs	r2, r5
100010ca:	2042      	movs	r0, #66	@ 0x42
100010cc:	f7ff fa6a 	bl	100005a4 <si5351_write_bulk>
100010d0:	4641      	mov	r1, r8
100010d2:	0020      	movs	r0, r4
100010d4:	f7ff fafe 	bl	100006d4 <set_int>
100010d8:	003a      	movs	r2, r7
100010da:	0031      	movs	r1, r6
100010dc:	0020      	movs	r0, r4
100010de:	f7ff ff39 	bl	10000f54 <ms_div>
100010e2:	e7cd      	b.n	10001080 <set_ms+0xa8>
100010e4:	002a      	movs	r2, r5
100010e6:	204a      	movs	r0, #74	@ 0x4a
100010e8:	f7ff fa5c 	bl	100005a4 <si5351_write_bulk>
100010ec:	4641      	mov	r1, r8
100010ee:	0020      	movs	r0, r4
100010f0:	f7ff faf0 	bl	100006d4 <set_int>
100010f4:	003a      	movs	r2, r7
100010f6:	0031      	movs	r1, r6
100010f8:	0020      	movs	r0, r4
100010fa:	f7ff ff2b 	bl	10000f54 <ms_div>
100010fe:	e7bf      	b.n	10001080 <set_ms+0xa8>
10001100:	002a      	movs	r2, r5
10001102:	2052      	movs	r0, #82	@ 0x52
10001104:	f7ff fa4e 	bl	100005a4 <si5351_write_bulk>
10001108:	4641      	mov	r1, r8
1000110a:	0020      	movs	r0, r4
1000110c:	f7ff fae2 	bl	100006d4 <set_int>
10001110:	003a      	movs	r2, r7
10001112:	0031      	movs	r1, r6
10001114:	0020      	movs	r0, r4
10001116:	f7ff ff1d 	bl	10000f54 <ms_div>
1000111a:	e7b1      	b.n	10001080 <set_ms+0xa8>
1000111c:	0019      	movs	r1, r3
1000111e:	205a      	movs	r0, #90	@ 0x5a
10001120:	f7ff fa60 	bl	100005e4 <si5351_write>
10001124:	003a      	movs	r2, r7
10001126:	0031      	movs	r1, r6
10001128:	0020      	movs	r0, r4
1000112a:	f7ff ff13 	bl	10000f54 <ms_div>
1000112e:	e7a7      	b.n	10001080 <set_ms+0xa8>
10001130:	0019      	movs	r1, r3
10001132:	205b      	movs	r0, #91	@ 0x5b
10001134:	f7ff fa56 	bl	100005e4 <si5351_write>
10001138:	003a      	movs	r2, r7
1000113a:	0031      	movs	r1, r6
1000113c:	0020      	movs	r0, r4
1000113e:	f7ff ff09 	bl	10000f54 <ms_div>
10001142:	e79d      	b.n	10001080 <set_ms+0xa8>
10001144:	1000c404 	.word	0x1000c404

10001148 <select_r_div>:
10001148:	b5f0      	push	{r4, r5, r6, r7, lr}
1000114a:	6806      	ldr	r6, [r0, #0]
1000114c:	6847      	ldr	r7, [r0, #4]
1000114e:	4c46      	ldr	r4, [pc, #280]	@ (10001268 <select_r_div+0x120>)
10001150:	2501      	movs	r5, #1
10001152:	426d      	negs	r5, r5
10001154:	19a4      	adds	r4, r4, r6
10001156:	417d      	adcs	r5, r7
10001158:	2d00      	cmp	r5, #0
1000115a:	d035      	beq.n	100011c8 <select_r_div+0x80>
1000115c:	4c43      	ldr	r4, [pc, #268]	@ (1000126c <select_r_div+0x124>)
1000115e:	2501      	movs	r5, #1
10001160:	426d      	negs	r5, r5
10001162:	19a4      	adds	r4, r4, r6
10001164:	417d      	adcs	r5, r7
10001166:	2d00      	cmp	r5, #0
10001168:	d03b      	beq.n	100011e2 <select_r_div+0x9a>
1000116a:	4c41      	ldr	r4, [pc, #260]	@ (10001270 <select_r_div+0x128>)
1000116c:	2501      	movs	r5, #1
1000116e:	426d      	negs	r5, r5
10001170:	19a4      	adds	r4, r4, r6
10001172:	417d      	adcs	r5, r7
10001174:	2d00      	cmp	r5, #0
10001176:	d041      	beq.n	100011fc <select_r_div+0xb4>
10001178:	4c3e      	ldr	r4, [pc, #248]	@ (10001274 <select_r_div+0x12c>)
1000117a:	2501      	movs	r5, #1
1000117c:	426d      	negs	r5, r5
1000117e:	19a4      	adds	r4, r4, r6
10001180:	417d      	adcs	r5, r7
10001182:	2d00      	cmp	r5, #0
10001184:	d047      	beq.n	10001216 <select_r_div+0xce>
10001186:	4c3c      	ldr	r4, [pc, #240]	@ (10001278 <select_r_div+0x130>)
10001188:	2501      	movs	r5, #1
1000118a:	426d      	negs	r5, r5
1000118c:	19a4      	adds	r4, r4, r6
1000118e:	417d      	adcs	r5, r7
10001190:	2d00      	cmp	r5, #0
10001192:	d04d      	beq.n	10001230 <select_r_div+0xe8>
10001194:	4c39      	ldr	r4, [pc, #228]	@ (1000127c <select_r_div+0x134>)
10001196:	2501      	movs	r5, #1
10001198:	426d      	negs	r5, r5
1000119a:	19a4      	adds	r4, r4, r6
1000119c:	417d      	adcs	r5, r7
1000119e:	2d00      	cmp	r5, #0
100011a0:	d053      	beq.n	1000124a <select_r_div+0x102>
100011a2:	4c37      	ldr	r4, [pc, #220]	@ (10001280 <select_r_div+0x138>)
100011a4:	2501      	movs	r5, #1
100011a6:	426d      	negs	r5, r5
100011a8:	19a4      	adds	r4, r4, r6
100011aa:	417d      	adcs	r5, r7
100011ac:	2d00      	cmp	r5, #0
100011ae:	d159      	bne.n	10001264 <select_r_div+0x11c>
100011b0:	d102      	bne.n	100011b8 <select_r_div+0x70>
100011b2:	4934      	ldr	r1, [pc, #208]	@ (10001284 <select_r_div+0x13c>)
100011b4:	428c      	cmp	r4, r1
100011b6:	d855      	bhi.n	10001264 <select_r_div+0x11c>
100011b8:	0032      	movs	r2, r6
100011ba:	003b      	movs	r3, r7
100011bc:	1992      	adds	r2, r2, r6
100011be:	417b      	adcs	r3, r7
100011c0:	6002      	str	r2, [r0, #0]
100011c2:	6043      	str	r3, [r0, #4]
100011c4:	2001      	movs	r0, #1
100011c6:	e00b      	b.n	100011e0 <select_r_div+0x98>
100011c8:	2d00      	cmp	r5, #0
100011ca:	d102      	bne.n	100011d2 <select_r_div+0x8a>
100011cc:	492e      	ldr	r1, [pc, #184]	@ (10001288 <select_r_div+0x140>)
100011ce:	428c      	cmp	r4, r1
100011d0:	d8c4      	bhi.n	1000115c <select_r_div+0x14>
100011d2:	0e71      	lsrs	r1, r6, #25
100011d4:	01fb      	lsls	r3, r7, #7
100011d6:	430b      	orrs	r3, r1
100011d8:	6043      	str	r3, [r0, #4]
100011da:	01f2      	lsls	r2, r6, #7
100011dc:	6002      	str	r2, [r0, #0]
100011de:	2007      	movs	r0, #7
100011e0:	bdf0      	pop	{r4, r5, r6, r7, pc}
100011e2:	2d00      	cmp	r5, #0
100011e4:	d102      	bne.n	100011ec <select_r_div+0xa4>
100011e6:	4929      	ldr	r1, [pc, #164]	@ (1000128c <select_r_div+0x144>)
100011e8:	428c      	cmp	r4, r1
100011ea:	d8be      	bhi.n	1000116a <select_r_div+0x22>
100011ec:	0eb1      	lsrs	r1, r6, #26
100011ee:	01bb      	lsls	r3, r7, #6
100011f0:	430b      	orrs	r3, r1
100011f2:	6043      	str	r3, [r0, #4]
100011f4:	01b2      	lsls	r2, r6, #6
100011f6:	6002      	str	r2, [r0, #0]
100011f8:	2006      	movs	r0, #6
100011fa:	e7f1      	b.n	100011e0 <select_r_div+0x98>
100011fc:	2d00      	cmp	r5, #0
100011fe:	d102      	bne.n	10001206 <select_r_div+0xbe>
10001200:	4923      	ldr	r1, [pc, #140]	@ (10001290 <select_r_div+0x148>)
10001202:	428c      	cmp	r4, r1
10001204:	d8b8      	bhi.n	10001178 <select_r_div+0x30>
10001206:	0ef1      	lsrs	r1, r6, #27
10001208:	017b      	lsls	r3, r7, #5
1000120a:	430b      	orrs	r3, r1
1000120c:	6043      	str	r3, [r0, #4]
1000120e:	0172      	lsls	r2, r6, #5
10001210:	6002      	str	r2, [r0, #0]
10001212:	2005      	movs	r0, #5
10001214:	e7e4      	b.n	100011e0 <select_r_div+0x98>
10001216:	2d00      	cmp	r5, #0
10001218:	d102      	bne.n	10001220 <select_r_div+0xd8>
1000121a:	491e      	ldr	r1, [pc, #120]	@ (10001294 <select_r_div+0x14c>)
1000121c:	428c      	cmp	r4, r1
1000121e:	d8b2      	bhi.n	10001186 <select_r_div+0x3e>
10001220:	0f31      	lsrs	r1, r6, #28
10001222:	013b      	lsls	r3, r7, #4
10001224:	430b      	orrs	r3, r1
10001226:	6043      	str	r3, [r0, #4]
10001228:	0132      	lsls	r2, r6, #4
1000122a:	6002      	str	r2, [r0, #0]
1000122c:	2004      	movs	r0, #4
1000122e:	e7d7      	b.n	100011e0 <select_r_div+0x98>
10001230:	2d00      	cmp	r5, #0
10001232:	d102      	bne.n	1000123a <select_r_div+0xf2>
10001234:	4918      	ldr	r1, [pc, #96]	@ (10001298 <select_r_div+0x150>)
10001236:	428c      	cmp	r4, r1
10001238:	d8ac      	bhi.n	10001194 <select_r_div+0x4c>
1000123a:	0f71      	lsrs	r1, r6, #29
1000123c:	00fb      	lsls	r3, r7, #3
1000123e:	430b      	orrs	r3, r1
10001240:	6043      	str	r3, [r0, #4]
10001242:	00f2      	lsls	r2, r6, #3
10001244:	6002      	str	r2, [r0, #0]
10001246:	2003      	movs	r0, #3
10001248:	e7ca      	b.n	100011e0 <select_r_div+0x98>
1000124a:	2d00      	cmp	r5, #0
1000124c:	d102      	bne.n	10001254 <select_r_div+0x10c>
1000124e:	4913      	ldr	r1, [pc, #76]	@ (1000129c <select_r_div+0x154>)
10001250:	428c      	cmp	r4, r1
10001252:	d8a6      	bhi.n	100011a2 <select_r_div+0x5a>
10001254:	0fb1      	lsrs	r1, r6, #30
10001256:	00bb      	lsls	r3, r7, #2
10001258:	430b      	orrs	r3, r1
1000125a:	6043      	str	r3, [r0, #4]
1000125c:	00b2      	lsls	r2, r6, #2
1000125e:	6002      	str	r2, [r0, #0]
10001260:	2002      	movs	r0, #2
10001262:	e7bd      	b.n	100011e0 <select_r_div+0x98>
10001264:	2000      	movs	r0, #0
10001266:	e7bb      	b.n	100011e0 <select_r_div+0x98>
10001268:	fff9e580 	.word	0xfff9e580
1000126c:	fff3cb00 	.word	0xfff3cb00
10001270:	ffe79600 	.word	0xffe79600
10001274:	ffcf2c00 	.word	0xffcf2c00
10001278:	ff9e5800 	.word	0xff9e5800
1000127c:	ff3cb000 	.word	0xff3cb000
10001280:	fe796000 	.word	0xfe796000
10001284:	01869fff 	.word	0x01869fff
10001288:	00061a7f 	.word	0x00061a7f
1000128c:	000c34ff 	.word	0x000c34ff
10001290:	001869ff 	.word	0x001869ff
10001294:	0030d3ff 	.word	0x0030d3ff
10001298:	0061a7ff 	.word	0x0061a7ff
1000129c:	00c34fff 	.word	0x00c34fff

100012a0 <select_r_div_ms67>:
100012a0:	b5f0      	push	{r4, r5, r6, r7, lr}
100012a2:	6806      	ldr	r6, [r0, #0]
100012a4:	6847      	ldr	r7, [r0, #4]
100012a6:	4c46      	ldr	r4, [pc, #280]	@ (100013c0 <select_r_div_ms67+0x120>)
100012a8:	2501      	movs	r5, #1
100012aa:	426d      	negs	r5, r5
100012ac:	19a4      	adds	r4, r4, r6
100012ae:	417d      	adcs	r5, r7
100012b0:	2d00      	cmp	r5, #0
100012b2:	d035      	beq.n	10001320 <select_r_div_ms67+0x80>
100012b4:	4c43      	ldr	r4, [pc, #268]	@ (100013c4 <select_r_div_ms67+0x124>)
100012b6:	2501      	movs	r5, #1
100012b8:	426d      	negs	r5, r5
100012ba:	19a4      	adds	r4, r4, r6
100012bc:	417d      	adcs	r5, r7
100012be:	2d00      	cmp	r5, #0
100012c0:	d03b      	beq.n	1000133a <select_r_div_ms67+0x9a>
100012c2:	4c41      	ldr	r4, [pc, #260]	@ (100013c8 <select_r_div_ms67+0x128>)
100012c4:	2501      	movs	r5, #1
100012c6:	426d      	negs	r5, r5
100012c8:	19a4      	adds	r4, r4, r6
100012ca:	417d      	adcs	r5, r7
100012cc:	2d00      	cmp	r5, #0
100012ce:	d041      	beq.n	10001354 <select_r_div_ms67+0xb4>
100012d0:	4c3e      	ldr	r4, [pc, #248]	@ (100013cc <select_r_div_ms67+0x12c>)
100012d2:	2501      	movs	r5, #1
100012d4:	426d      	negs	r5, r5
100012d6:	19a4      	adds	r4, r4, r6
100012d8:	417d      	adcs	r5, r7
100012da:	2d00      	cmp	r5, #0
100012dc:	d047      	beq.n	1000136e <select_r_div_ms67+0xce>
100012de:	4c3c      	ldr	r4, [pc, #240]	@ (100013d0 <select_r_div_ms67+0x130>)
100012e0:	2501      	movs	r5, #1
100012e2:	426d      	negs	r5, r5
100012e4:	19a4      	adds	r4, r4, r6
100012e6:	417d      	adcs	r5, r7
100012e8:	2d00      	cmp	r5, #0
100012ea:	d04d      	beq.n	10001388 <select_r_div_ms67+0xe8>
100012ec:	4c39      	ldr	r4, [pc, #228]	@ (100013d4 <select_r_div_ms67+0x134>)
100012ee:	2501      	movs	r5, #1
100012f0:	426d      	negs	r5, r5
100012f2:	19a4      	adds	r4, r4, r6
100012f4:	417d      	adcs	r5, r7
100012f6:	2d00      	cmp	r5, #0
100012f8:	d053      	beq.n	100013a2 <select_r_div_ms67+0x102>
100012fa:	4c37      	ldr	r4, [pc, #220]	@ (100013d8 <select_r_div_ms67+0x138>)
100012fc:	2501      	movs	r5, #1
100012fe:	426d      	negs	r5, r5
10001300:	19a4      	adds	r4, r4, r6
10001302:	417d      	adcs	r5, r7
10001304:	2d00      	cmp	r5, #0
10001306:	d159      	bne.n	100013bc <select_r_div_ms67+0x11c>
10001308:	d102      	bne.n	10001310 <select_r_div_ms67+0x70>
1000130a:	4934      	ldr	r1, [pc, #208]	@ (100013dc <select_r_div_ms67+0x13c>)
1000130c:	428c      	cmp	r4, r1
1000130e:	d855      	bhi.n	100013bc <select_r_div_ms67+0x11c>
10001310:	0032      	movs	r2, r6
10001312:	003b      	movs	r3, r7
10001314:	1992      	adds	r2, r2, r6
10001316:	417b      	adcs	r3, r7
10001318:	6002      	str	r2, [r0, #0]
1000131a:	6043      	str	r3, [r0, #4]
1000131c:	2001      	movs	r0, #1
1000131e:	e00b      	b.n	10001338 <select_r_div_ms67+0x98>
10001320:	2d00      	cmp	r5, #0
10001322:	d102      	bne.n	1000132a <select_r_div_ms67+0x8a>
10001324:	492e      	ldr	r1, [pc, #184]	@ (100013e0 <select_r_div_ms67+0x140>)
10001326:	428c      	cmp	r4, r1
10001328:	d8c4      	bhi.n	100012b4 <select_r_div_ms67+0x14>
1000132a:	0e71      	lsrs	r1, r6, #25
1000132c:	01fb      	lsls	r3, r7, #7
1000132e:	430b      	orrs	r3, r1
10001330:	6043      	str	r3, [r0, #4]
10001332:	01f2      	lsls	r2, r6, #7
10001334:	6002      	str	r2, [r0, #0]
10001336:	2007      	movs	r0, #7
10001338:	bdf0      	pop	{r4, r5, r6, r7, pc}
1000133a:	2d00      	cmp	r5, #0
1000133c:	d102      	bne.n	10001344 <select_r_div_ms67+0xa4>
1000133e:	4929      	ldr	r1, [pc, #164]	@ (100013e4 <select_r_div_ms67+0x144>)
10001340:	428c      	cmp	r4, r1
10001342:	d8be      	bhi.n	100012c2 <select_r_div_ms67+0x22>
10001344:	0eb1      	lsrs	r1, r6, #26
10001346:	01bb      	lsls	r3, r7, #6
10001348:	430b      	orrs	r3, r1
1000134a:	6043      	str	r3, [r0, #4]
1000134c:	01b2      	lsls	r2, r6, #6
1000134e:	6002      	str	r2, [r0, #0]
10001350:	2006      	movs	r0, #6
10001352:	e7f1      	b.n	10001338 <select_r_div_ms67+0x98>
10001354:	2d00      	cmp	r5, #0
10001356:	d102      	bne.n	1000135e <select_r_div_ms67+0xbe>
10001358:	4923      	ldr	r1, [pc, #140]	@ (100013e8 <select_r_div_ms67+0x148>)
1000135a:	428c      	cmp	r4, r1
1000135c:	d8b8      	bhi.n	100012d0 <select_r_div_ms67+0x30>
1000135e:	0ef1      	lsrs	r1, r6, #27
10001360:	017b      	lsls	r3, r7, #5
10001362:	430b      	orrs	r3, r1
10001364:	6043      	str	r3, [r0, #4]
10001366:	0172      	lsls	r2, r6, #5
10001368:	6002      	str	r2, [r0, #0]
1000136a:	2005      	movs	r0, #5
1000136c:	e7e4      	b.n	10001338 <select_r_div_ms67+0x98>
1000136e:	2d00      	cmp	r5, #0
10001370:	d102      	bne.n	10001378 <select_r_div_ms67+0xd8>
10001372:	491e      	ldr	r1, [pc, #120]	@ (100013ec <select_r_div_ms67+0x14c>)
10001374:	428c      	cmp	r4, r1
10001376:	d8b2      	bhi.n	100012de <select_r_div_ms67+0x3e>
10001378:	0f31      	lsrs	r1, r6, #28
1000137a:	013b      	lsls	r3, r7, #4
1000137c:	430b      	orrs	r3, r1
1000137e:	6043      	str	r3, [r0, #4]
10001380:	0132      	lsls	r2, r6, #4
10001382:	6002      	str	r2, [r0, #0]
10001384:	2004      	movs	r0, #4
10001386:	e7d7      	b.n	10001338 <select_r_div_ms67+0x98>
10001388:	2d00      	cmp	r5, #0
1000138a:	d102      	bne.n	10001392 <select_r_div_ms67+0xf2>
1000138c:	4918      	ldr	r1, [pc, #96]	@ (100013f0 <select_r_div_ms67+0x150>)
1000138e:	428c      	cmp	r4, r1
10001390:	d8ac      	bhi.n	100012ec <select_r_div_ms67+0x4c>
10001392:	0f71      	lsrs	r1, r6, #29
10001394:	00fb      	lsls	r3, r7, #3
10001396:	430b      	orrs	r3, r1
10001398:	6043      	str	r3, [r0, #4]
1000139a:	00f2      	lsls	r2, r6, #3
1000139c:	6002      	str	r2, [r0, #0]
1000139e:	2003      	movs	r0, #3
100013a0:	e7ca      	b.n	10001338 <select_r_div_ms67+0x98>
100013a2:	2d00      	cmp	r5, #0
100013a4:	d102      	bne.n	100013ac <select_r_div_ms67+0x10c>
100013a6:	4913      	ldr	r1, [pc, #76]	@ (100013f4 <select_r_div_ms67+0x154>)
100013a8:	428c      	cmp	r4, r1
100013aa:	d8a6      	bhi.n	100012fa <select_r_div_ms67+0x5a>
100013ac:	0fb1      	lsrs	r1, r6, #30
100013ae:	00bb      	lsls	r3, r7, #2
100013b0:	430b      	orrs	r3, r1
100013b2:	6043      	str	r3, [r0, #4]
100013b4:	00b2      	lsls	r2, r6, #2
100013b6:	6002      	str	r2, [r0, #0]
100013b8:	2002      	movs	r0, #2
100013ba:	e7bd      	b.n	10001338 <select_r_div_ms67+0x98>
100013bc:	2000      	movs	r0, #0
100013be:	e7bb      	b.n	10001338 <select_r_div_ms67+0x98>
100013c0:	ffe3d768 	.word	0xffe3d768
100013c4:	ffc7aed0 	.word	0xffc7aed0
100013c8:	ff8f5da0 	.word	0xff8f5da0
100013cc:	ff1ebb40 	.word	0xff1ebb40
100013d0:	fe3d7680 	.word	0xfe3d7680
100013d4:	fc7aed00 	.word	0xfc7aed00
100013d8:	f8f5da00 	.word	0xf8f5da00
100013dc:	070a25ff 	.word	0x070a25ff
100013e0:	001c2897 	.word	0x001c2897
100013e4:	0038512f 	.word	0x0038512f
100013e8:	0070a25f 	.word	0x0070a25f
100013ec:	00e144bf 	.word	0x00e144bf
100013f0:	01c2897f 	.word	0x01c2897f
100013f4:	038512ff 	.word	0x038512ff

100013f8 <set_freq>:
100013f8:	b5f0      	push	{r4, r5, r6, r7, lr}
100013fa:	46c6      	mov	lr, r8
100013fc:	b500      	push	{lr}
100013fe:	b090      	sub	sp, #64	@ 0x40
10001400:	9006      	str	r0, [sp, #24]
10001402:	9107      	str	r1, [sp, #28]
10001404:	0017      	movs	r7, r2
10001406:	2a05      	cmp	r2, #5
10001408:	d900      	bls.n	1000140c <set_freq+0x14>
1000140a:	e0d7      	b.n	100015bc <set_freq+0x1c4>
1000140c:	0002      	movs	r2, r0
1000140e:	000b      	movs	r3, r1
10001410:	2001      	movs	r0, #1
10001412:	4240      	negs	r0, r0
10001414:	17c1      	asrs	r1, r0, #31
10001416:	1812      	adds	r2, r2, r0
10001418:	414b      	adcs	r3, r1
1000141a:	0011      	movs	r1, r2
1000141c:	2b00      	cmp	r3, #0
1000141e:	d107      	bne.n	10001430 <set_freq+0x38>
10001420:	d102      	bne.n	10001428 <set_freq+0x30>
10001422:	4bb6      	ldr	r3, [pc, #728]	@ (100016fc <set_freq+0x304>)
10001424:	4299      	cmp	r1, r3
10001426:	d803      	bhi.n	10001430 <set_freq+0x38>
10001428:	4ab5      	ldr	r2, [pc, #724]	@ (10001700 <set_freq+0x308>)
1000142a:	2300      	movs	r3, #0
1000142c:	9206      	str	r2, [sp, #24]
1000142e:	9307      	str	r3, [sp, #28]
10001430:	9a06      	ldr	r2, [sp, #24]
10001432:	9b07      	ldr	r3, [sp, #28]
10001434:	2b05      	cmp	r3, #5
10001436:	d803      	bhi.n	10001440 <set_freq+0x48>
10001438:	d106      	bne.n	10001448 <set_freq+0x50>
1000143a:	4bb2      	ldr	r3, [pc, #712]	@ (10001704 <set_freq+0x30c>)
1000143c:	429a      	cmp	r2, r3
1000143e:	d903      	bls.n	10001448 <set_freq+0x50>
10001440:	4ab0      	ldr	r2, [pc, #704]	@ (10001704 <set_freq+0x30c>)
10001442:	2305      	movs	r3, #5
10001444:	9206      	str	r2, [sp, #24]
10001446:	9307      	str	r3, [sp, #28]
10001448:	9906      	ldr	r1, [sp, #24]
1000144a:	9b07      	ldr	r3, [sp, #28]
1000144c:	2b02      	cmp	r3, #2
1000144e:	d901      	bls.n	10001454 <set_freq+0x5c>
10001450:	2300      	movs	r3, #0
10001452:	e035      	b.n	100014c0 <set_freq+0xc8>
10001454:	2b02      	cmp	r3, #2
10001456:	d102      	bne.n	1000145e <set_freq+0x66>
10001458:	4aab      	ldr	r2, [pc, #684]	@ (10001708 <set_freq+0x310>)
1000145a:	4291      	cmp	r1, r2
1000145c:	d8f8      	bhi.n	10001450 <set_freq+0x58>
1000145e:	4aab      	ldr	r2, [pc, #684]	@ (1000170c <set_freq+0x314>)
10001460:	00f8      	lsls	r0, r7, #3
10001462:	1812      	adds	r2, r2, r0
10001464:	6011      	str	r1, [r2, #0]
10001466:	6053      	str	r3, [r2, #4]
10001468:	4ba9      	ldr	r3, [pc, #676]	@ (10001710 <set_freq+0x318>)
1000146a:	5ddb      	ldrb	r3, [r3, r7]
1000146c:	2b00      	cmp	r3, #0
1000146e:	d100      	bne.n	10001472 <set_freq+0x7a>
10001470:	e092      	b.n	10001598 <set_freq+0x1a0>
10001472:	a806      	add	r0, sp, #24
10001474:	f7ff fe68 	bl	10001148 <select_r_div>
10001478:	0004      	movs	r4, r0
1000147a:	4ba6      	ldr	r3, [pc, #664]	@ (10001714 <set_freq+0x31c>)
1000147c:	5ddb      	ldrb	r3, [r3, r7]
1000147e:	2b00      	cmp	r3, #0
10001480:	d000      	beq.n	10001484 <set_freq+0x8c>
10001482:	e091      	b.n	100015a8 <set_freq+0x1b0>
10001484:	4ba4      	ldr	r3, [pc, #656]	@ (10001718 <set_freq+0x320>)
10001486:	681a      	ldr	r2, [r3, #0]
10001488:	685b      	ldr	r3, [r3, #4]
1000148a:	9806      	ldr	r0, [sp, #24]
1000148c:	9907      	ldr	r1, [sp, #28]
1000148e:	ad0d      	add	r5, sp, #52	@ 0x34
10001490:	9500      	str	r5, [sp, #0]
10001492:	f7ff fbd7 	bl	10000c44 <multisynth_calc>
10001496:	2300      	movs	r3, #0
10001498:	9302      	str	r3, [sp, #8]
1000149a:	9401      	str	r4, [sp, #4]
1000149c:	9300      	str	r3, [sp, #0]
1000149e:	990d      	ldr	r1, [sp, #52]	@ 0x34
100014a0:	9a0e      	ldr	r2, [sp, #56]	@ 0x38
100014a2:	9b0f      	ldr	r3, [sp, #60]	@ 0x3c
100014a4:	0038      	movs	r0, r7
100014a6:	f7ff fd97 	bl	10000fd8 <set_ms>
100014aa:	e070      	b.n	1000158e <set_freq+0x196>
100014ac:	42bb      	cmp	r3, r7
100014ae:	d005      	beq.n	100014bc <set_freq+0xc4>
100014b0:	4a98      	ldr	r2, [pc, #608]	@ (10001714 <set_freq+0x31c>)
100014b2:	5c11      	ldrb	r1, [r2, r0]
100014b4:	5dd2      	ldrb	r2, [r2, r7]
100014b6:	4291      	cmp	r1, r2
100014b8:	d100      	bne.n	100014bc <set_freq+0xc4>
100014ba:	e158      	b.n	1000176e <set_freq+0x376>
100014bc:	3301      	adds	r3, #1
100014be:	b2db      	uxtb	r3, r3
100014c0:	2b05      	cmp	r3, #5
100014c2:	d80c      	bhi.n	100014de <set_freq+0xe6>
100014c4:	0018      	movs	r0, r3
100014c6:	4a91      	ldr	r2, [pc, #580]	@ (1000170c <set_freq+0x314>)
100014c8:	00d9      	lsls	r1, r3, #3
100014ca:	1852      	adds	r2, r2, r1
100014cc:	6811      	ldr	r1, [r2, #0]
100014ce:	6852      	ldr	r2, [r2, #4]
100014d0:	2a02      	cmp	r2, #2
100014d2:	d8eb      	bhi.n	100014ac <set_freq+0xb4>
100014d4:	d1f2      	bne.n	100014bc <set_freq+0xc4>
100014d6:	4a8c      	ldr	r2, [pc, #560]	@ (10001708 <set_freq+0x310>)
100014d8:	4291      	cmp	r1, r2
100014da:	d9ef      	bls.n	100014bc <set_freq+0xc4>
100014dc:	e7e6      	b.n	100014ac <set_freq+0xb4>
100014de:	4b8c      	ldr	r3, [pc, #560]	@ (10001710 <set_freq+0x318>)
100014e0:	5ddb      	ldrb	r3, [r3, r7]
100014e2:	2b00      	cmp	r3, #0
100014e4:	d014      	beq.n	10001510 <set_freq+0x118>
100014e6:	9806      	ldr	r0, [sp, #24]
100014e8:	9907      	ldr	r1, [sp, #28]
100014ea:	4b88      	ldr	r3, [pc, #544]	@ (1000170c <set_freq+0x314>)
100014ec:	00fa      	lsls	r2, r7, #3
100014ee:	189b      	adds	r3, r3, r2
100014f0:	6018      	str	r0, [r3, #0]
100014f2:	6059      	str	r1, [r3, #4]
100014f4:	ab0d      	add	r3, sp, #52	@ 0x34
100014f6:	9300      	str	r3, [sp, #0]
100014f8:	2200      	movs	r2, #0
100014fa:	2300      	movs	r3, #0
100014fc:	f7ff fba2 	bl	10000c44 <multisynth_calc>
10001500:	4680      	mov	r8, r0
10001502:	000e      	movs	r6, r1
10001504:	4b83      	ldr	r3, [pc, #524]	@ (10001714 <set_freq+0x31c>)
10001506:	5dda      	ldrb	r2, [r3, r7]
10001508:	f7ff fa1c 	bl	10000944 <set_pll>
1000150c:	2500      	movs	r5, #0
1000150e:	e013      	b.n	10001538 <set_freq+0x140>
10001510:	2101      	movs	r1, #1
10001512:	0038      	movs	r0, r7
10001514:	f7ff f8a8 	bl	10000668 <output_enable>
10001518:	4b7d      	ldr	r3, [pc, #500]	@ (10001710 <set_freq+0x318>)
1000151a:	2201      	movs	r2, #1
1000151c:	55da      	strb	r2, [r3, r7]
1000151e:	e7e2      	b.n	100014e6 <set_freq+0xee>
10001520:	2301      	movs	r3, #1
10001522:	9302      	str	r3, [sp, #8]
10001524:	9401      	str	r4, [sp, #4]
10001526:	9300      	str	r3, [sp, #0]
10001528:	990a      	ldr	r1, [sp, #40]	@ 0x28
1000152a:	9a0b      	ldr	r2, [sp, #44]	@ 0x2c
1000152c:	9b0c      	ldr	r3, [sp, #48]	@ 0x30
1000152e:	0028      	movs	r0, r5
10001530:	f7ff fd52 	bl	10000fd8 <set_ms>
10001534:	3501      	adds	r5, #1
10001536:	b2ed      	uxtb	r5, r5
10001538:	2d05      	cmp	r5, #5
1000153a:	d824      	bhi.n	10001586 <set_freq+0x18e>
1000153c:	4c73      	ldr	r4, [pc, #460]	@ (1000170c <set_freq+0x314>)
1000153e:	00eb      	lsls	r3, r5, #3
10001540:	18e4      	adds	r4, r4, r3
10001542:	6822      	ldr	r2, [r4, #0]
10001544:	6863      	ldr	r3, [r4, #4]
10001546:	0011      	movs	r1, r2
10001548:	4319      	orrs	r1, r3
1000154a:	d0f3      	beq.n	10001534 <set_freq+0x13c>
1000154c:	4971      	ldr	r1, [pc, #452]	@ (10001714 <set_freq+0x31c>)
1000154e:	5d48      	ldrb	r0, [r1, r5]
10001550:	5dc9      	ldrb	r1, [r1, r7]
10001552:	4288      	cmp	r0, r1
10001554:	d1ee      	bne.n	10001534 <set_freq+0x13c>
10001556:	9208      	str	r2, [sp, #32]
10001558:	9309      	str	r3, [sp, #36]	@ 0x24
1000155a:	a808      	add	r0, sp, #32
1000155c:	f7ff fdf4 	bl	10001148 <select_r_div>
10001560:	0004      	movs	r4, r0
10001562:	9808      	ldr	r0, [sp, #32]
10001564:	9909      	ldr	r1, [sp, #36]	@ 0x24
10001566:	ab0a      	add	r3, sp, #40	@ 0x28
10001568:	9300      	str	r3, [sp, #0]
1000156a:	4642      	mov	r2, r8
1000156c:	0033      	movs	r3, r6
1000156e:	f7ff fb69 	bl	10000c44 <multisynth_calc>
10001572:	9a08      	ldr	r2, [sp, #32]
10001574:	9b09      	ldr	r3, [sp, #36]	@ 0x24
10001576:	2b03      	cmp	r3, #3
10001578:	d8d2      	bhi.n	10001520 <set_freq+0x128>
1000157a:	d102      	bne.n	10001582 <set_freq+0x18a>
1000157c:	4b67      	ldr	r3, [pc, #412]	@ (1000171c <set_freq+0x324>)
1000157e:	429a      	cmp	r2, r3
10001580:	d8ce      	bhi.n	10001520 <set_freq+0x128>
10001582:	2300      	movs	r3, #0
10001584:	e7cd      	b.n	10001522 <set_freq+0x12a>
10001586:	4b63      	ldr	r3, [pc, #396]	@ (10001714 <set_freq+0x31c>)
10001588:	5dd8      	ldrb	r0, [r3, r7]
1000158a:	f7ff f83d 	bl	10000608 <pll_reset>
1000158e:	2000      	movs	r0, #0
10001590:	b010      	add	sp, #64	@ 0x40
10001592:	bc80      	pop	{r7}
10001594:	46b8      	mov	r8, r7
10001596:	bdf0      	pop	{r4, r5, r6, r7, pc}
10001598:	2101      	movs	r1, #1
1000159a:	0038      	movs	r0, r7
1000159c:	f7ff f864 	bl	10000668 <output_enable>
100015a0:	4b5b      	ldr	r3, [pc, #364]	@ (10001710 <set_freq+0x318>)
100015a2:	2201      	movs	r2, #1
100015a4:	55da      	strb	r2, [r3, r7]
100015a6:	e764      	b.n	10001472 <set_freq+0x7a>
100015a8:	4b5d      	ldr	r3, [pc, #372]	@ (10001720 <set_freq+0x328>)
100015aa:	681a      	ldr	r2, [r3, #0]
100015ac:	685b      	ldr	r3, [r3, #4]
100015ae:	9806      	ldr	r0, [sp, #24]
100015b0:	9907      	ldr	r1, [sp, #28]
100015b2:	ad0d      	add	r5, sp, #52	@ 0x34
100015b4:	9500      	str	r5, [sp, #0]
100015b6:	f7ff fb45 	bl	10000c44 <multisynth_calc>
100015ba:	e76c      	b.n	10001496 <set_freq+0x9e>
100015bc:	9a06      	ldr	r2, [sp, #24]
100015be:	9b07      	ldr	r3, [sp, #28]
100015c0:	2001      	movs	r0, #1
100015c2:	4240      	negs	r0, r0
100015c4:	17c1      	asrs	r1, r0, #31
100015c6:	1812      	adds	r2, r2, r0
100015c8:	414b      	adcs	r3, r1
100015ca:	0011      	movs	r1, r2
100015cc:	2b00      	cmp	r3, #0
100015ce:	d107      	bne.n	100015e0 <set_freq+0x1e8>
100015d0:	d102      	bne.n	100015d8 <set_freq+0x1e0>
100015d2:	4b54      	ldr	r3, [pc, #336]	@ (10001724 <set_freq+0x32c>)
100015d4:	4299      	cmp	r1, r3
100015d6:	d803      	bhi.n	100015e0 <set_freq+0x1e8>
100015d8:	4a49      	ldr	r2, [pc, #292]	@ (10001700 <set_freq+0x308>)
100015da:	2300      	movs	r3, #0
100015dc:	9206      	str	r2, [sp, #24]
100015de:	9307      	str	r3, [sp, #28]
100015e0:	9a06      	ldr	r2, [sp, #24]
100015e2:	9b07      	ldr	r3, [sp, #28]
100015e4:	2b03      	cmp	r3, #3
100015e6:	d803      	bhi.n	100015f0 <set_freq+0x1f8>
100015e8:	d106      	bne.n	100015f8 <set_freq+0x200>
100015ea:	4b4c      	ldr	r3, [pc, #304]	@ (1000171c <set_freq+0x324>)
100015ec:	429a      	cmp	r2, r3
100015ee:	d903      	bls.n	100015f8 <set_freq+0x200>
100015f0:	4a4a      	ldr	r2, [pc, #296]	@ (1000171c <set_freq+0x324>)
100015f2:	2303      	movs	r3, #3
100015f4:	9206      	str	r2, [sp, #24]
100015f6:	9307      	str	r3, [sp, #28]
100015f8:	2f06      	cmp	r7, #6
100015fa:	d020      	beq.n	1000163e <set_freq+0x246>
100015fc:	4a43      	ldr	r2, [pc, #268]	@ (1000170c <set_freq+0x314>)
100015fe:	6b13      	ldr	r3, [r2, #48]	@ 0x30
10001600:	6b52      	ldr	r2, [r2, #52]	@ 0x34
10001602:	4313      	orrs	r3, r2
10001604:	d100      	bne.n	10001608 <set_freq+0x210>
10001606:	e08f      	b.n	10001728 <set_freq+0x330>
10001608:	4b45      	ldr	r3, [pc, #276]	@ (10001720 <set_freq+0x328>)
1000160a:	685c      	ldr	r4, [r3, #4]
1000160c:	681b      	ldr	r3, [r3, #0]
1000160e:	0018      	movs	r0, r3
10001610:	0021      	movs	r1, r4
10001612:	9c06      	ldr	r4, [sp, #24]
10001614:	9d07      	ldr	r5, [sp, #28]
10001616:	0022      	movs	r2, r4
10001618:	002b      	movs	r3, r5
1000161a:	9004      	str	r0, [sp, #16]
1000161c:	9105      	str	r1, [sp, #20]
1000161e:	f004 f9bd 	bl	1000599c <__wrap___aeabi_uldivmod>
10001622:	4313      	orrs	r3, r2
10001624:	d000      	beq.n	10001628 <set_freq+0x230>
10001626:	e0a6      	b.n	10001776 <set_freq+0x37e>
10001628:	0022      	movs	r2, r4
1000162a:	002b      	movs	r3, r5
1000162c:	9804      	ldr	r0, [sp, #16]
1000162e:	9905      	ldr	r1, [sp, #20]
10001630:	f004 f9b4 	bl	1000599c <__wrap___aeabi_uldivmod>
10001634:	2301      	movs	r3, #1
10001636:	4203      	tst	r3, r0
10001638:	d04d      	beq.n	100016d6 <set_freq+0x2de>
1000163a:	2001      	movs	r0, #1
1000163c:	e7a8      	b.n	10001590 <set_freq+0x198>
1000163e:	4a33      	ldr	r2, [pc, #204]	@ (1000170c <set_freq+0x314>)
10001640:	6b93      	ldr	r3, [r2, #56]	@ 0x38
10001642:	6bd2      	ldr	r2, [r2, #60]	@ 0x3c
10001644:	4313      	orrs	r3, r2
10001646:	d02f      	beq.n	100016a8 <set_freq+0x2b0>
10001648:	4b35      	ldr	r3, [pc, #212]	@ (10001720 <set_freq+0x328>)
1000164a:	685c      	ldr	r4, [r3, #4]
1000164c:	681b      	ldr	r3, [r3, #0]
1000164e:	0018      	movs	r0, r3
10001650:	0021      	movs	r1, r4
10001652:	9c06      	ldr	r4, [sp, #24]
10001654:	9d07      	ldr	r5, [sp, #28]
10001656:	0022      	movs	r2, r4
10001658:	002b      	movs	r3, r5
1000165a:	9004      	str	r0, [sp, #16]
1000165c:	9105      	str	r1, [sp, #20]
1000165e:	f004 f99d 	bl	1000599c <__wrap___aeabi_uldivmod>
10001662:	4313      	orrs	r3, r2
10001664:	d000      	beq.n	10001668 <set_freq+0x270>
10001666:	e084      	b.n	10001772 <set_freq+0x37a>
10001668:	0022      	movs	r2, r4
1000166a:	002b      	movs	r3, r5
1000166c:	9804      	ldr	r0, [sp, #16]
1000166e:	9905      	ldr	r1, [sp, #20]
10001670:	f004 f994 	bl	1000599c <__wrap___aeabi_uldivmod>
10001674:	2301      	movs	r3, #1
10001676:	4203      	tst	r3, r0
10001678:	d001      	beq.n	1000167e <set_freq+0x286>
1000167a:	2001      	movs	r0, #1
1000167c:	e788      	b.n	10001590 <set_freq+0x198>
1000167e:	4b23      	ldr	r3, [pc, #140]	@ (1000170c <set_freq+0x314>)
10001680:	00fa      	lsls	r2, r7, #3
10001682:	189b      	adds	r3, r3, r2
10001684:	601c      	str	r4, [r3, #0]
10001686:	605d      	str	r5, [r3, #4]
10001688:	a806      	add	r0, sp, #24
1000168a:	f7ff fe09 	bl	100012a0 <select_r_div_ms67>
1000168e:	0006      	movs	r6, r0
10001690:	4b23      	ldr	r3, [pc, #140]	@ (10001720 <set_freq+0x328>)
10001692:	681a      	ldr	r2, [r3, #0]
10001694:	685b      	ldr	r3, [r3, #4]
10001696:	9c06      	ldr	r4, [sp, #24]
10001698:	9d07      	ldr	r5, [sp, #28]
1000169a:	a90d      	add	r1, sp, #52	@ 0x34
1000169c:	9100      	str	r1, [sp, #0]
1000169e:	0020      	movs	r0, r4
100016a0:	0029      	movs	r1, r5
100016a2:	f7ff fbb9 	bl	10000e18 <multisynth67_calc>
100016a6:	e056      	b.n	10001756 <set_freq+0x35e>
100016a8:	4b18      	ldr	r3, [pc, #96]	@ (1000170c <set_freq+0x314>)
100016aa:	00fa      	lsls	r2, r7, #3
100016ac:	189b      	adds	r3, r3, r2
100016ae:	9806      	ldr	r0, [sp, #24]
100016b0:	9907      	ldr	r1, [sp, #28]
100016b2:	6018      	str	r0, [r3, #0]
100016b4:	6059      	str	r1, [r3, #4]
100016b6:	a806      	add	r0, sp, #24
100016b8:	f7ff fdf2 	bl	100012a0 <select_r_div_ms67>
100016bc:	0006      	movs	r6, r0
100016be:	9806      	ldr	r0, [sp, #24]
100016c0:	9907      	ldr	r1, [sp, #28]
100016c2:	ab0d      	add	r3, sp, #52	@ 0x34
100016c4:	9300      	str	r3, [sp, #0]
100016c6:	2200      	movs	r2, #0
100016c8:	2300      	movs	r3, #0
100016ca:	f7ff fba5 	bl	10000e18 <multisynth67_calc>
100016ce:	2201      	movs	r2, #1
100016d0:	f7ff f938 	bl	10000944 <set_pll>
100016d4:	e03f      	b.n	10001756 <set_freq+0x35e>
100016d6:	4b0d      	ldr	r3, [pc, #52]	@ (1000170c <set_freq+0x314>)
100016d8:	00fa      	lsls	r2, r7, #3
100016da:	189b      	adds	r3, r3, r2
100016dc:	601c      	str	r4, [r3, #0]
100016de:	605d      	str	r5, [r3, #4]
100016e0:	a806      	add	r0, sp, #24
100016e2:	f7ff fddd 	bl	100012a0 <select_r_div_ms67>
100016e6:	0006      	movs	r6, r0
100016e8:	4b0d      	ldr	r3, [pc, #52]	@ (10001720 <set_freq+0x328>)
100016ea:	681a      	ldr	r2, [r3, #0]
100016ec:	685b      	ldr	r3, [r3, #4]
100016ee:	9806      	ldr	r0, [sp, #24]
100016f0:	9907      	ldr	r1, [sp, #28]
100016f2:	ac0d      	add	r4, sp, #52	@ 0x34
100016f4:	9400      	str	r4, [sp, #0]
100016f6:	f7ff fb8f 	bl	10000e18 <multisynth67_calc>
100016fa:	e02c      	b.n	10001756 <set_freq+0x35e>
100016fc:	00061a7e 	.word	0x00061a7e
10001700:	00061a80 	.word	0x00061a80
10001704:	3d1ac100 	.word	0x3d1ac100
10001708:	540be400 	.word	0x540be400
1000170c:	20001410 	.word	0x20001410
10001710:	20001df4 	.word	0x20001df4
10001714:	200022e8 	.word	0x200022e8
10001718:	20001560 	.word	0x20001560
1000171c:	7e11d5ff 	.word	0x7e11d5ff
10001720:	20001568 	.word	0x20001568
10001724:	001c2896 	.word	0x001c2896
10001728:	4b14      	ldr	r3, [pc, #80]	@ (1000177c <set_freq+0x384>)
1000172a:	00fa      	lsls	r2, r7, #3
1000172c:	189b      	adds	r3, r3, r2
1000172e:	9806      	ldr	r0, [sp, #24]
10001730:	9907      	ldr	r1, [sp, #28]
10001732:	6018      	str	r0, [r3, #0]
10001734:	6059      	str	r1, [r3, #4]
10001736:	a806      	add	r0, sp, #24
10001738:	f7ff fdb2 	bl	100012a0 <select_r_div_ms67>
1000173c:	0006      	movs	r6, r0
1000173e:	9806      	ldr	r0, [sp, #24]
10001740:	9907      	ldr	r1, [sp, #28]
10001742:	ab0d      	add	r3, sp, #52	@ 0x34
10001744:	9300      	str	r3, [sp, #0]
10001746:	2200      	movs	r2, #0
10001748:	2300      	movs	r3, #0
1000174a:	f7ff fb65 	bl	10000e18 <multisynth67_calc>
1000174e:	4b0c      	ldr	r3, [pc, #48]	@ (10001780 <set_freq+0x388>)
10001750:	5dda      	ldrb	r2, [r3, r7]
10001752:	f7ff f8f7 	bl	10000944 <set_pll>
10001756:	2300      	movs	r3, #0
10001758:	9302      	str	r3, [sp, #8]
1000175a:	9601      	str	r6, [sp, #4]
1000175c:	9300      	str	r3, [sp, #0]
1000175e:	990d      	ldr	r1, [sp, #52]	@ 0x34
10001760:	9a0e      	ldr	r2, [sp, #56]	@ 0x38
10001762:	9b0f      	ldr	r3, [sp, #60]	@ 0x3c
10001764:	0038      	movs	r0, r7
10001766:	f7ff fc37 	bl	10000fd8 <set_ms>
1000176a:	2000      	movs	r0, #0
1000176c:	e710      	b.n	10001590 <set_freq+0x198>
1000176e:	2001      	movs	r0, #1
10001770:	e70e      	b.n	10001590 <set_freq+0x198>
10001772:	2001      	movs	r0, #1
10001774:	e70c      	b.n	10001590 <set_freq+0x198>
10001776:	2001      	movs	r0, #1
10001778:	e70a      	b.n	10001590 <set_freq+0x198>
1000177a:	46c0      	nop			@ (mov r8, r8)
1000177c:	20001410 	.word	0x20001410
10001780:	200022e8 	.word	0x200022e8

10001784 <set_FSK_symbol>:
10001784:	b500      	push	{lr}
10001786:	b085      	sub	sp, #20
10001788:	2800      	cmp	r0, #0
1000178a:	d115      	bne.n	100017b8 <set_FSK_symbol+0x34>
1000178c:	4b15      	ldr	r3, [pc, #84]	@ (100017e4 <set_FSK_symbol+0x60>)
1000178e:	2200      	movs	r2, #0
10001790:	9202      	str	r2, [sp, #8]
10001792:	4915      	ldr	r1, [pc, #84]	@ (100017e8 <set_FSK_symbol+0x64>)
10001794:	7809      	ldrb	r1, [r1, #0]
10001796:	9101      	str	r1, [sp, #4]
10001798:	9200      	str	r2, [sp, #0]
1000179a:	6819      	ldr	r1, [r3, #0]
1000179c:	685a      	ldr	r2, [r3, #4]
1000179e:	689b      	ldr	r3, [r3, #8]
100017a0:	f7ff fc1a 	bl	10000fd8 <set_ms>
100017a4:	23d0      	movs	r3, #208	@ 0xd0
100017a6:	061b      	lsls	r3, r3, #24
100017a8:	2280      	movs	r2, #128	@ 0x80
100017aa:	0212      	lsls	r2, r2, #8
100017ac:	615a      	str	r2, [r3, #20]
100017ae:	2280      	movs	r2, #128	@ 0x80
100017b0:	01d2      	lsls	r2, r2, #7
100017b2:	619a      	str	r2, [r3, #24]
100017b4:	b005      	add	sp, #20
100017b6:	bd00      	pop	{pc}
100017b8:	4b0c      	ldr	r3, [pc, #48]	@ (100017ec <set_FSK_symbol+0x68>)
100017ba:	2200      	movs	r2, #0
100017bc:	9202      	str	r2, [sp, #8]
100017be:	490c      	ldr	r1, [pc, #48]	@ (100017f0 <set_FSK_symbol+0x6c>)
100017c0:	7809      	ldrb	r1, [r1, #0]
100017c2:	9101      	str	r1, [sp, #4]
100017c4:	9200      	str	r2, [sp, #0]
100017c6:	6819      	ldr	r1, [r3, #0]
100017c8:	685a      	ldr	r2, [r3, #4]
100017ca:	689b      	ldr	r3, [r3, #8]
100017cc:	2000      	movs	r0, #0
100017ce:	f7ff fc03 	bl	10000fd8 <set_ms>
100017d2:	23d0      	movs	r3, #208	@ 0xd0
100017d4:	061b      	lsls	r3, r3, #24
100017d6:	2280      	movs	r2, #128	@ 0x80
100017d8:	0212      	lsls	r2, r2, #8
100017da:	619a      	str	r2, [r3, #24]
100017dc:	2280      	movs	r2, #128	@ 0x80
100017de:	01d2      	lsls	r2, r2, #7
100017e0:	615a      	str	r2, [r3, #20]
100017e2:	e7e7      	b.n	100017b4 <set_FSK_symbol+0x30>
100017e4:	200022d0 	.word	0x200022d0
100017e8:	2000255c 	.word	0x2000255c
100017ec:	200022c4 	.word	0x200022c4
100017f0:	2000255b 	.word	0x2000255b

100017f4 <recalculate_fsk_params>:
100017f4:	b570      	push	{r4, r5, r6, lr}
100017f6:	b088      	sub	sp, #32
100017f8:	0004      	movs	r4, r0
100017fa:	000d      	movs	r5, r1
100017fc:	0010      	movs	r0, r2
100017fe:	0019      	movs	r1, r3
10001800:	0022      	movs	r2, r4
10001802:	002b      	movs	r3, r5
10001804:	1812      	adds	r2, r2, r0
10001806:	414b      	adcs	r3, r1
10001808:	9206      	str	r2, [sp, #24]
1000180a:	9307      	str	r3, [sp, #28]
1000180c:	1a24      	subs	r4, r4, r0
1000180e:	418d      	sbcs	r5, r1
10001810:	9404      	str	r4, [sp, #16]
10001812:	9505      	str	r5, [sp, #20]
10001814:	4c1b      	ldr	r4, [pc, #108]	@ (10001884 <recalculate_fsk_params+0x90>)
10001816:	481c      	ldr	r0, [pc, #112]	@ (10001888 <recalculate_fsk_params+0x94>)
10001818:	2112      	movs	r1, #18
1000181a:	6020      	str	r0, [r4, #0]
1000181c:	6061      	str	r1, [r4, #4]
1000181e:	4e1b      	ldr	r6, [pc, #108]	@ (1000188c <recalculate_fsk_params+0x98>)
10001820:	6030      	str	r0, [r6, #0]
10001822:	6071      	str	r1, [r6, #4]
10001824:	2200      	movs	r2, #0
10001826:	f7ff f88d 	bl	10000944 <set_pll>
1000182a:	a806      	add	r0, sp, #24
1000182c:	f7ff fc8c 	bl	10001148 <select_r_div>
10001830:	4d17      	ldr	r5, [pc, #92]	@ (10001890 <recalculate_fsk_params+0x9c>)
10001832:	7028      	strb	r0, [r5, #0]
10001834:	a804      	add	r0, sp, #16
10001836:	f7ff fc87 	bl	10001148 <select_r_div>
1000183a:	4b16      	ldr	r3, [pc, #88]	@ (10001894 <recalculate_fsk_params+0xa0>)
1000183c:	7018      	strb	r0, [r3, #0]
1000183e:	6822      	ldr	r2, [r4, #0]
10001840:	6863      	ldr	r3, [r4, #4]
10001842:	9806      	ldr	r0, [sp, #24]
10001844:	9907      	ldr	r1, [sp, #28]
10001846:	4c14      	ldr	r4, [pc, #80]	@ (10001898 <recalculate_fsk_params+0xa4>)
10001848:	9400      	str	r4, [sp, #0]
1000184a:	f7ff f9fb 	bl	10000c44 <multisynth_calc>
1000184e:	6832      	ldr	r2, [r6, #0]
10001850:	6873      	ldr	r3, [r6, #4]
10001852:	9804      	ldr	r0, [sp, #16]
10001854:	9905      	ldr	r1, [sp, #20]
10001856:	4e11      	ldr	r6, [pc, #68]	@ (1000189c <recalculate_fsk_params+0xa8>)
10001858:	9600      	str	r6, [sp, #0]
1000185a:	f7ff f9f3 	bl	10000c44 <multisynth_calc>
1000185e:	2300      	movs	r3, #0
10001860:	9302      	str	r3, [sp, #8]
10001862:	782a      	ldrb	r2, [r5, #0]
10001864:	9201      	str	r2, [sp, #4]
10001866:	9300      	str	r3, [sp, #0]
10001868:	6821      	ldr	r1, [r4, #0]
1000186a:	6862      	ldr	r2, [r4, #4]
1000186c:	68a3      	ldr	r3, [r4, #8]
1000186e:	2000      	movs	r0, #0
10001870:	f7ff fbb2 	bl	10000fd8 <set_ms>
10001874:	2000      	movs	r0, #0
10001876:	f7fe fec7 	bl	10000608 <pll_reset>
1000187a:	2001      	movs	r0, #1
1000187c:	f7ff ff82 	bl	10001784 <set_FSK_symbol>
10001880:	b008      	add	sp, #32
10001882:	bd70      	pop	{r4, r5, r6, pc}
10001884:	20000b68 	.word	0x20000b68
10001888:	a05f2000 	.word	0xa05f2000
1000188c:	20001558 	.word	0x20001558
10001890:	2000255b 	.word	0x2000255b
10001894:	2000255c 	.word	0x2000255c
10001898:	200022c4 	.word	0x200022c4
1000189c:	200022d0 	.word	0x200022d0

100018a0 <tx_enable>:
100018a0:	b510      	push	{r4, lr}
100018a2:	2800      	cmp	r0, #0
100018a4:	d103      	bne.n	100018ae <tx_enable+0xe>
100018a6:	2100      	movs	r1, #0
100018a8:	f7fe fede 	bl	10000668 <output_enable>
100018ac:	bd10      	pop	{r4, pc}
100018ae:	2101      	movs	r1, #1
100018b0:	2000      	movs	r0, #0
100018b2:	f7fe fed9 	bl	10000668 <output_enable>
100018b6:	e7f9      	b.n	100018ac <tx_enable+0xc>

100018b8 <RTTYTXletter>:
100018b8:	b570      	push	{r4, r5, r6, lr}
100018ba:	0005      	movs	r5, r0
100018bc:	4b26      	ldr	r3, [pc, #152]	@ (10001958 <RTTYTXletter+0xa0>)
100018be:	5c1b      	ldrb	r3, [r3, r0]
100018c0:	095b      	lsrs	r3, r3, #5
100018c2:	2601      	movs	r6, #1
100018c4:	401e      	ands	r6, r3
100018c6:	4b25      	ldr	r3, [pc, #148]	@ (1000195c <RTTYTXletter+0xa4>)
100018c8:	681b      	ldr	r3, [r3, #0]
100018ca:	42b3      	cmp	r3, r6
100018cc:	d101      	bne.n	100018d2 <RTTYTXletter+0x1a>
100018ce:	2900      	cmp	r1, #0
100018d0:	d024      	beq.n	1000191c <RTTYTXletter+0x64>
100018d2:	2000      	movs	r0, #0
100018d4:	f7ff ff56 	bl	10001784 <set_FSK_symbol>
100018d8:	2400      	movs	r4, #0
100018da:	e00e      	b.n	100018fa <RTTYTXletter+0x42>
100018dc:	4b20      	ldr	r3, [pc, #128]	@ (10001960 <RTTYTXletter+0xa8>)
100018de:	8818      	ldrh	r0, [r3, #0]
100018e0:	2100      	movs	r1, #0
100018e2:	f002 f959 	bl	10003b98 <busy_wait_us>
100018e6:	0033      	movs	r3, r6
100018e8:	3380      	adds	r3, #128	@ 0x80
100018ea:	4a1b      	ldr	r2, [pc, #108]	@ (10001958 <RTTYTXletter+0xa0>)
100018ec:	5cd0      	ldrb	r0, [r2, r3]
100018ee:	4120      	asrs	r0, r4
100018f0:	2301      	movs	r3, #1
100018f2:	4018      	ands	r0, r3
100018f4:	f7ff ff46 	bl	10001784 <set_FSK_symbol>
100018f8:	3401      	adds	r4, #1
100018fa:	2c04      	cmp	r4, #4
100018fc:	ddee      	ble.n	100018dc <RTTYTXletter+0x24>
100018fe:	4b18      	ldr	r3, [pc, #96]	@ (10001960 <RTTYTXletter+0xa8>)
10001900:	8818      	ldrh	r0, [r3, #0]
10001902:	2100      	movs	r1, #0
10001904:	f002 f948 	bl	10003b98 <busy_wait_us>
10001908:	2001      	movs	r0, #1
1000190a:	f7ff ff3b 	bl	10001784 <set_FSK_symbol>
1000190e:	4b13      	ldr	r3, [pc, #76]	@ (1000195c <RTTYTXletter+0xa4>)
10001910:	601e      	str	r6, [r3, #0]
10001912:	4b14      	ldr	r3, [pc, #80]	@ (10001964 <RTTYTXletter+0xac>)
10001914:	8818      	ldrh	r0, [r3, #0]
10001916:	2100      	movs	r1, #0
10001918:	f002 f93e 	bl	10003b98 <busy_wait_us>
1000191c:	2000      	movs	r0, #0
1000191e:	f7ff ff31 	bl	10001784 <set_FSK_symbol>
10001922:	2400      	movs	r4, #0
10001924:	e00c      	b.n	10001940 <RTTYTXletter+0x88>
10001926:	4b0e      	ldr	r3, [pc, #56]	@ (10001960 <RTTYTXletter+0xa8>)
10001928:	8818      	ldrh	r0, [r3, #0]
1000192a:	2100      	movs	r1, #0
1000192c:	f002 f934 	bl	10003b98 <busy_wait_us>
10001930:	4b09      	ldr	r3, [pc, #36]	@ (10001958 <RTTYTXletter+0xa0>)
10001932:	5d58      	ldrb	r0, [r3, r5]
10001934:	4120      	asrs	r0, r4
10001936:	2301      	movs	r3, #1
10001938:	4018      	ands	r0, r3
1000193a:	f7ff ff23 	bl	10001784 <set_FSK_symbol>
1000193e:	3401      	adds	r4, #1
10001940:	2c04      	cmp	r4, #4
10001942:	ddf0      	ble.n	10001926 <RTTYTXletter+0x6e>
10001944:	4b06      	ldr	r3, [pc, #24]	@ (10001960 <RTTYTXletter+0xa8>)
10001946:	8818      	ldrh	r0, [r3, #0]
10001948:	2100      	movs	r1, #0
1000194a:	f002 f925 	bl	10003b98 <busy_wait_us>
1000194e:	2001      	movs	r0, #1
10001950:	f7ff ff18 	bl	10001784 <set_FSK_symbol>
10001954:	bd70      	pop	{r4, r5, r6, pc}
10001956:	46c0      	nop			@ (mov r8, r8)
10001958:	20000b70 	.word	0x20000b70
1000195c:	200022bc 	.word	0x200022bc
10001960:	20000b54 	.word	0x20000b54
10001964:	20000b52 	.word	0x20000b52

10001968 <set_baudrate>:
10001968:	b510      	push	{r4, lr}
1000196a:	4b0b      	ldr	r3, [pc, #44]	@ (10001998 <set_baudrate+0x30>)
1000196c:	8018      	strh	r0, [r3, #0]
1000196e:	f005 fbc5 	bl	100070fc <__wrap___aeabi_ui2f>
10001972:	1c01      	adds	r1, r0, #0
10001974:	4809      	ldr	r0, [pc, #36]	@ (1000199c <set_baudrate+0x34>)
10001976:	f005 fba2 	bl	100070be <__wrap___aeabi_fdiv>
1000197a:	4909      	ldr	r1, [pc, #36]	@ (100019a0 <set_baudrate+0x38>)
1000197c:	f005 fb95 	bl	100070aa <__wrap___aeabi_fsub>
10001980:	f005 fbe4 	bl	1000714c <__wrap___aeabi_f2uiz>
10001984:	b280      	uxth	r0, r0
10001986:	4b07      	ldr	r3, [pc, #28]	@ (100019a4 <set_baudrate+0x3c>)
10001988:	8018      	strh	r0, [r3, #0]
1000198a:	4b07      	ldr	r3, [pc, #28]	@ (100019a8 <set_baudrate+0x40>)
1000198c:	4a07      	ldr	r2, [pc, #28]	@ (100019ac <set_baudrate+0x44>)
1000198e:	4694      	mov	ip, r2
10001990:	4460      	add	r0, ip
10001992:	0040      	lsls	r0, r0, #1
10001994:	8018      	strh	r0, [r3, #0]
10001996:	bd10      	pop	{r4, pc}
10001998:	20000b56 	.word	0x20000b56
1000199c:	49742400 	.word	0x49742400
100019a0:	44520000 	.word	0x44520000
100019a4:	20000b54 	.word	0x20000b54
100019a8:	20000b52 	.word	0x20000b52
100019ac:	fffffcb8 	.word	0xfffffcb8

100019b0 <set_RTTY_mode>:
100019b0:	b510      	push	{r4, lr}
100019b2:	4b09      	ldr	r3, [pc, #36]	@ (100019d8 <set_RTTY_mode+0x28>)
100019b4:	8818      	ldrh	r0, [r3, #0]
100019b6:	f7ff ffd7 	bl	10001968 <set_baudrate>
100019ba:	4b08      	ldr	r3, [pc, #32]	@ (100019dc <set_RTTY_mode+0x2c>)
100019bc:	681a      	ldr	r2, [r3, #0]
100019be:	685b      	ldr	r3, [r3, #4]
100019c0:	4907      	ldr	r1, [pc, #28]	@ (100019e0 <set_RTTY_mode+0x30>)
100019c2:	6808      	ldr	r0, [r1, #0]
100019c4:	6849      	ldr	r1, [r1, #4]
100019c6:	f7ff ff15 	bl	100017f4 <recalculate_fsk_params>
100019ca:	2001      	movs	r0, #1
100019cc:	f7ff feda 	bl	10001784 <set_FSK_symbol>
100019d0:	2001      	movs	r0, #1
100019d2:	f7ff ff65 	bl	100018a0 <tx_enable>
100019d6:	bd10      	pop	{r4, pc}
100019d8:	20000b56 	.word	0x20000b56
100019dc:	20000b58 	.word	0x20000b58
100019e0:	20000b60 	.word	0x20000b60

100019e4 <refresh_RTTY_config>:
100019e4:	b510      	push	{r4, lr}
100019e6:	4b08      	ldr	r3, [pc, #32]	@ (10001a08 <refresh_RTTY_config+0x24>)
100019e8:	8818      	ldrh	r0, [r3, #0]
100019ea:	f7ff ffbd 	bl	10001968 <set_baudrate>
100019ee:	4b07      	ldr	r3, [pc, #28]	@ (10001a0c <refresh_RTTY_config+0x28>)
100019f0:	681a      	ldr	r2, [r3, #0]
100019f2:	685b      	ldr	r3, [r3, #4]
100019f4:	4906      	ldr	r1, [pc, #24]	@ (10001a10 <refresh_RTTY_config+0x2c>)
100019f6:	6808      	ldr	r0, [r1, #0]
100019f8:	6849      	ldr	r1, [r1, #4]
100019fa:	f7ff fefb 	bl	100017f4 <recalculate_fsk_params>
100019fe:	2001      	movs	r0, #1
10001a00:	f7ff fec0 	bl	10001784 <set_FSK_symbol>
10001a04:	bd10      	pop	{r4, pc}
10001a06:	46c0      	nop			@ (mov r8, r8)
10001a08:	20000b56 	.word	0x20000b56
10001a0c:	20000b58 	.word	0x20000b58
10001a10:	20000b60 	.word	0x20000b60

10001a14 <set_CW_mode>:
10001a14:	b510      	push	{r4, lr}
10001a16:	4b05      	ldr	r3, [pc, #20]	@ (10001a2c <set_CW_mode+0x18>)
10001a18:	6818      	ldr	r0, [r3, #0]
10001a1a:	6859      	ldr	r1, [r3, #4]
10001a1c:	2200      	movs	r2, #0
10001a1e:	f7ff fceb 	bl	100013f8 <set_freq>
10001a22:	2000      	movs	r0, #0
10001a24:	f7ff ff3c 	bl	100018a0 <tx_enable>
10001a28:	bd10      	pop	{r4, pc}
10001a2a:	46c0      	nop			@ (mov r8, r8)
10001a2c:	20000b60 	.word	0x20000b60

10001a30 <set_CW_WPM>:
10001a30:	b510      	push	{r4, lr}
10001a32:	4b0c      	ldr	r3, [pc, #48]	@ (10001a64 <set_CW_WPM+0x34>)
10001a34:	7018      	strb	r0, [r3, #0]
10001a36:	f005 fb61 	bl	100070fc <__wrap___aeabi_ui2f>
10001a3a:	490b      	ldr	r1, [pc, #44]	@ (10001a68 <set_CW_WPM+0x38>)
10001a3c:	f005 fb3f 	bl	100070be <__wrap___aeabi_fdiv>
10001a40:	490a      	ldr	r1, [pc, #40]	@ (10001a6c <set_CW_WPM+0x3c>)
10001a42:	f005 fb52 	bl	100070ea <__wrap___aeabi_fmul>
10001a46:	1c01      	adds	r1, r0, #0
10001a48:	20fe      	movs	r0, #254	@ 0xfe
10001a4a:	0580      	lsls	r0, r0, #22
10001a4c:	f005 fb37 	bl	100070be <__wrap___aeabi_fdiv>
10001a50:	4907      	ldr	r1, [pc, #28]	@ (10001a70 <set_CW_WPM+0x40>)
10001a52:	f005 fb4a 	bl	100070ea <__wrap___aeabi_fmul>
10001a56:	4c07      	ldr	r4, [pc, #28]	@ (10001a74 <set_CW_WPM+0x44>)
10001a58:	f005 fb80 	bl	1000715c <__wrap___aeabi_f2ulz>
10001a5c:	6020      	str	r0, [r4, #0]
10001a5e:	6061      	str	r1, [r4, #4]
10001a60:	bd10      	pop	{r4, pc}
10001a62:	46c0      	nop			@ (mov r8, r8)
10001a64:	20000b50 	.word	0x20000b50
10001a68:	42700000 	.word	0x42700000
10001a6c:	42480000 	.word	0x42480000
10001a70:	49742400 	.word	0x49742400
10001a74:	20000b48 	.word	0x20000b48

10001a78 <refresh_CW_config>:
10001a78:	b510      	push	{r4, lr}
10001a7a:	4b05      	ldr	r3, [pc, #20]	@ (10001a90 <refresh_CW_config+0x18>)
10001a7c:	6818      	ldr	r0, [r3, #0]
10001a7e:	6859      	ldr	r1, [r3, #4]
10001a80:	2200      	movs	r2, #0
10001a82:	f7ff fcb9 	bl	100013f8 <set_freq>
10001a86:	4b03      	ldr	r3, [pc, #12]	@ (10001a94 <refresh_CW_config+0x1c>)
10001a88:	7818      	ldrb	r0, [r3, #0]
10001a8a:	f7ff ffd1 	bl	10001a30 <set_CW_WPM>
10001a8e:	bd10      	pop	{r4, pc}
10001a90:	20000b60 	.word	0x20000b60
10001a94:	20000b50 	.word	0x20000b50

10001a98 <CW_TX_letter>:
10001a98:	b5f0      	push	{r4, r5, r6, r7, lr}
10001a9a:	46c6      	mov	lr, r8
10001a9c:	b500      	push	{lr}
10001a9e:	0003      	movs	r3, r0
10001aa0:	3b61      	subs	r3, #97	@ 0x61
10001aa2:	b2db      	uxtb	r3, r3
10001aa4:	2b19      	cmp	r3, #25
10001aa6:	d801      	bhi.n	10001aac <CW_TX_letter+0x14>
10001aa8:	3820      	subs	r0, #32
10001aaa:	b2c0      	uxtb	r0, r0
10001aac:	3820      	subs	r0, #32
10001aae:	b2c0      	uxtb	r0, r0
10001ab0:	283b      	cmp	r0, #59	@ 0x3b
10001ab2:	d900      	bls.n	10001ab6 <CW_TX_letter+0x1e>
10001ab4:	201f      	movs	r0, #31
10001ab6:	4b29      	ldr	r3, [pc, #164]	@ (10001b5c <CW_TX_letter+0xc4>)
10001ab8:	0080      	lsls	r0, r0, #2
10001aba:	58c3      	ldr	r3, [r0, r3]
10001abc:	019b      	lsls	r3, r3, #6
10001abe:	4698      	mov	r8, r3
10001ac0:	2700      	movs	r7, #0
10001ac2:	4b27      	ldr	r3, [pc, #156]	@ (10001b60 <CW_TX_letter+0xc8>)
10001ac4:	58c4      	ldr	r4, [r0, r3]
10001ac6:	3406      	adds	r4, #6
10001ac8:	e01a      	b.n	10001b00 <CW_TX_letter+0x68>
10001aca:	2320      	movs	r3, #32
10001acc:	1b1b      	subs	r3, r3, r4
10001ace:	003a      	movs	r2, r7
10001ad0:	409a      	lsls	r2, r3
10001ad2:	4645      	mov	r5, r8
10001ad4:	40e5      	lsrs	r5, r4
10001ad6:	4315      	orrs	r5, r2
10001ad8:	e019      	b.n	10001b0e <CW_TX_letter+0x76>
10001ada:	22d0      	movs	r2, #208	@ 0xd0
10001adc:	0612      	lsls	r2, r2, #24
10001ade:	2180      	movs	r1, #128	@ 0x80
10001ae0:	01c9      	lsls	r1, r1, #7
10001ae2:	6191      	str	r1, [r2, #24]
10001ae4:	e021      	b.n	10001b2a <CW_TX_letter+0x92>
10001ae6:	22d0      	movs	r2, #208	@ 0xd0
10001ae8:	0612      	lsls	r2, r2, #24
10001aea:	2180      	movs	r1, #128	@ 0x80
10001aec:	0209      	lsls	r1, r1, #8
10001aee:	6191      	str	r1, [r2, #24]
10001af0:	2b00      	cmp	r3, #0
10001af2:	d122      	bne.n	10001b3a <CW_TX_letter+0xa2>
10001af4:	4b1b      	ldr	r3, [pc, #108]	@ (10001b64 <CW_TX_letter+0xcc>)
10001af6:	6818      	ldr	r0, [r3, #0]
10001af8:	6859      	ldr	r1, [r3, #4]
10001afa:	f002 f84d 	bl	10003b98 <busy_wait_us>
10001afe:	3c01      	subs	r4, #1
10001b00:	2c00      	cmp	r4, #0
10001b02:	db24      	blt.n	10001b4e <CW_TX_letter+0xb6>
10001b04:	0023      	movs	r3, r4
10001b06:	3b20      	subs	r3, #32
10001b08:	d4df      	bmi.n	10001aca <CW_TX_letter+0x32>
10001b0a:	003d      	movs	r5, r7
10001b0c:	40dd      	lsrs	r5, r3
10001b0e:	2601      	movs	r6, #1
10001b10:	2001      	movs	r0, #1
10001b12:	4028      	ands	r0, r5
10001b14:	f7ff fec4 	bl	100018a0 <tx_enable>
10001b18:	002b      	movs	r3, r5
10001b1a:	4033      	ands	r3, r6
10001b1c:	4235      	tst	r5, r6
10001b1e:	d0dc      	beq.n	10001ada <CW_TX_letter+0x42>
10001b20:	22d0      	movs	r2, #208	@ 0xd0
10001b22:	0612      	lsls	r2, r2, #24
10001b24:	2180      	movs	r1, #128	@ 0x80
10001b26:	01c9      	lsls	r1, r1, #7
10001b28:	6151      	str	r1, [r2, #20]
10001b2a:	2b00      	cmp	r3, #0
10001b2c:	d0db      	beq.n	10001ae6 <CW_TX_letter+0x4e>
10001b2e:	22d0      	movs	r2, #208	@ 0xd0
10001b30:	0612      	lsls	r2, r2, #24
10001b32:	2180      	movs	r1, #128	@ 0x80
10001b34:	0209      	lsls	r1, r1, #8
10001b36:	6151      	str	r1, [r2, #20]
10001b38:	e7da      	b.n	10001af0 <CW_TX_letter+0x58>
10001b3a:	4b0a      	ldr	r3, [pc, #40]	@ (10001b64 <CW_TX_letter+0xcc>)
10001b3c:	6859      	ldr	r1, [r3, #4]
10001b3e:	07ca      	lsls	r2, r1, #31
10001b40:	6818      	ldr	r0, [r3, #0]
10001b42:	0840      	lsrs	r0, r0, #1
10001b44:	4310      	orrs	r0, r2
10001b46:	0849      	lsrs	r1, r1, #1
10001b48:	f002 f826 	bl	10003b98 <busy_wait_us>
10001b4c:	e7d2      	b.n	10001af4 <CW_TX_letter+0x5c>
10001b4e:	2000      	movs	r0, #0
10001b50:	f7ff fea6 	bl	100018a0 <tx_enable>
10001b54:	bc80      	pop	{r7}
10001b56:	46b8      	mov	r8, r7
10001b58:	bdf0      	pop	{r4, r5, r6, r7, pc}
10001b5a:	46c0      	nop			@ (mov r8, r8)
10001b5c:	20000ce0 	.word	0x20000ce0
10001b60:	20000bf4 	.word	0x20000bf4
10001b64:	20000b48 	.word	0x20000b48

10001b68 <console_init>:
10001b68:	b510      	push	{r4, lr}
10001b6a:	f006 f889 	bl	10007c80 <stdio_usb_connected>
10001b6e:	2800      	cmp	r0, #0
10001b70:	d10a      	bne.n	10001b88 <console_init+0x20>
10001b72:	2001      	movs	r0, #1
10001b74:	f002 f840 	bl	10003bf8 <busy_wait_ms>
10001b78:	f001 ffee 	bl	10003b58 <time_us_64>
10001b7c:	2900      	cmp	r1, #0
10001b7e:	d103      	bne.n	10001b88 <console_init+0x20>
10001b80:	d1f3      	bne.n	10001b6a <console_init+0x2>
10001b82:	4b03      	ldr	r3, [pc, #12]	@ (10001b90 <console_init+0x28>)
10001b84:	4298      	cmp	r0, r3
10001b86:	d9f0      	bls.n	10001b6a <console_init+0x2>
10001b88:	4802      	ldr	r0, [pc, #8]	@ (10001b94 <console_init+0x2c>)
10001b8a:	f005 fe01 	bl	10007790 <__wrap_puts>
10001b8e:	bd10      	pop	{r4, pc}
10001b90:	004c4b40 	.word	0x004c4b40
10001b94:	1000aed4 	.word	0x1000aed4

10001b98 <compare_command>:
10001b98:	b530      	push	{r4, r5, lr}
10001b9a:	0005      	movs	r5, r0
10001b9c:	2300      	movs	r3, #0
10001b9e:	2000      	movs	r0, #0
10001ba0:	e003      	b.n	10001baa <compare_command+0x12>
10001ba2:	3001      	adds	r0, #1
10001ba4:	b2c0      	uxtb	r0, r0
10001ba6:	3301      	adds	r3, #1
10001ba8:	b2db      	uxtb	r3, r3
10001baa:	428b      	cmp	r3, r1
10001bac:	d205      	bcs.n	10001bba <compare_command+0x22>
10001bae:	4a03      	ldr	r2, [pc, #12]	@ (10001bbc <compare_command+0x24>)
10001bb0:	5cd4      	ldrb	r4, [r2, r3]
10001bb2:	5cea      	ldrb	r2, [r5, r3]
10001bb4:	4294      	cmp	r4, r2
10001bb6:	d0f4      	beq.n	10001ba2 <compare_command+0xa>
10001bb8:	2000      	movs	r0, #0
10001bba:	bd30      	pop	{r4, r5, pc}
10001bbc:	20001e24 	.word	0x20001e24

10001bc0 <is_number>:
10001bc0:	b530      	push	{r4, r5, lr}
10001bc2:	0005      	movs	r5, r0
10001bc4:	2200      	movs	r2, #0
10001bc6:	2000      	movs	r0, #0
10001bc8:	e003      	b.n	10001bd2 <is_number+0x12>
10001bca:	3001      	adds	r0, #1
10001bcc:	b2c0      	uxtb	r0, r0
10001bce:	3201      	adds	r2, #1
10001bd0:	b2d2      	uxtb	r2, r2
10001bd2:	428a      	cmp	r2, r1
10001bd4:	d207      	bcs.n	10001be6 <is_number+0x26>
10001bd6:	18ab      	adds	r3, r5, r2
10001bd8:	4c03      	ldr	r4, [pc, #12]	@ (10001be8 <is_number+0x28>)
10001bda:	5ce3      	ldrb	r3, [r4, r3]
10001bdc:	3b30      	subs	r3, #48	@ 0x30
10001bde:	b2db      	uxtb	r3, r3
10001be0:	2b09      	cmp	r3, #9
10001be2:	d9f2      	bls.n	10001bca <is_number+0xa>
10001be4:	2000      	movs	r0, #0
10001be6:	bd30      	pop	{r4, r5, pc}
10001be8:	20001e24 	.word	0x20001e24

10001bec <char_to_number>:
10001bec:	3830      	subs	r0, #48	@ 0x30
10001bee:	b2c0      	uxtb	r0, r0
10001bf0:	2809      	cmp	r0, #9
10001bf2:	d900      	bls.n	10001bf6 <char_to_number+0xa>
10001bf4:	2000      	movs	r0, #0
10001bf6:	b240      	sxtb	r0, r0
10001bf8:	4770      	bx	lr
	...

10001bfc <string_to_uint64>:
10001bfc:	b5f0      	push	{r4, r5, r6, r7, lr}
10001bfe:	46de      	mov	lr, fp
10001c00:	4657      	mov	r7, sl
10001c02:	b580      	push	{r7, lr}
10001c04:	b083      	sub	sp, #12
10001c06:	4682      	mov	sl, r0
10001c08:	000d      	movs	r5, r1
10001c0a:	2400      	movs	r4, #0
10001c0c:	2000      	movs	r0, #0
10001c0e:	2100      	movs	r1, #0
10001c10:	e027      	b.n	10001c62 <string_to_uint64+0x66>
10001c12:	f004 f9b1 	bl	10005f78 <__wrap___aeabi_ul2d>
10001c16:	9000      	str	r0, [sp, #0]
10001c18:	9101      	str	r1, [sp, #4]
10001c1a:	4653      	mov	r3, sl
10001c1c:	191b      	adds	r3, r3, r4
10001c1e:	4a14      	ldr	r2, [pc, #80]	@ (10001c70 <string_to_uint64+0x74>)
10001c20:	5cd0      	ldrb	r0, [r2, r3]
10001c22:	f7ff ffe3 	bl	10001bec <char_to_number>
10001c26:	4683      	mov	fp, r0
10001c28:	1b28      	subs	r0, r5, r4
10001c2a:	3801      	subs	r0, #1
10001c2c:	f004 f95c 	bl	10005ee8 <__wrap___aeabi_i2d>
10001c30:	0002      	movs	r2, r0
10001c32:	000b      	movs	r3, r1
10001c34:	2000      	movs	r0, #0
10001c36:	490f      	ldr	r1, [pc, #60]	@ (10001c74 <string_to_uint64+0x78>)
10001c38:	f004 fcf4 	bl	10006624 <__wrap_pow>
10001c3c:	0006      	movs	r6, r0
10001c3e:	000f      	movs	r7, r1
10001c40:	4658      	mov	r0, fp
10001c42:	f004 f951 	bl	10005ee8 <__wrap___aeabi_i2d>
10001c46:	0032      	movs	r2, r6
10001c48:	003b      	movs	r3, r7
10001c4a:	f004 f8d4 	bl	10005df6 <__wrap___aeabi_dmul>
10001c4e:	0002      	movs	r2, r0
10001c50:	000b      	movs	r3, r1
10001c52:	9800      	ldr	r0, [sp, #0]
10001c54:	9901      	ldr	r1, [sp, #4]
10001c56:	f004 f8a7 	bl	10005da8 <__wrap___aeabi_dadd>
10001c5a:	f004 f999 	bl	10005f90 <__wrap___aeabi_d2ulz>
10001c5e:	3401      	adds	r4, #1
10001c60:	b2e4      	uxtb	r4, r4
10001c62:	42ac      	cmp	r4, r5
10001c64:	d3d5      	bcc.n	10001c12 <string_to_uint64+0x16>
10001c66:	b003      	add	sp, #12
10001c68:	bcc0      	pop	{r6, r7}
10001c6a:	46bb      	mov	fp, r7
10001c6c:	46b2      	mov	sl, r6
10001c6e:	bdf0      	pop	{r4, r5, r6, r7, pc}
10001c70:	20001e24 	.word	0x20001e24
10001c74:	40240000 	.word	0x40240000

10001c78 <string_to_uint16>:
10001c78:	b5f0      	push	{r4, r5, r6, r7, lr}
10001c7a:	46de      	mov	lr, fp
10001c7c:	4657      	mov	r7, sl
10001c7e:	b580      	push	{r7, lr}
10001c80:	b083      	sub	sp, #12
10001c82:	4682      	mov	sl, r0
10001c84:	000d      	movs	r5, r1
10001c86:	2400      	movs	r4, #0
10001c88:	2000      	movs	r0, #0
10001c8a:	e028      	b.n	10001cde <string_to_uint16+0x66>
10001c8c:	f004 f92c 	bl	10005ee8 <__wrap___aeabi_i2d>
10001c90:	9000      	str	r0, [sp, #0]
10001c92:	9101      	str	r1, [sp, #4]
10001c94:	4653      	mov	r3, sl
10001c96:	191b      	adds	r3, r3, r4
10001c98:	4a14      	ldr	r2, [pc, #80]	@ (10001cec <string_to_uint16+0x74>)
10001c9a:	5cd0      	ldrb	r0, [r2, r3]
10001c9c:	f7ff ffa6 	bl	10001bec <char_to_number>
10001ca0:	4683      	mov	fp, r0
10001ca2:	1b28      	subs	r0, r5, r4
10001ca4:	3801      	subs	r0, #1
10001ca6:	f004 f91f 	bl	10005ee8 <__wrap___aeabi_i2d>
10001caa:	0002      	movs	r2, r0
10001cac:	000b      	movs	r3, r1
10001cae:	2000      	movs	r0, #0
10001cb0:	490f      	ldr	r1, [pc, #60]	@ (10001cf0 <string_to_uint16+0x78>)
10001cb2:	f004 fcb7 	bl	10006624 <__wrap_pow>
10001cb6:	0006      	movs	r6, r0
10001cb8:	000f      	movs	r7, r1
10001cba:	4658      	mov	r0, fp
10001cbc:	f004 f914 	bl	10005ee8 <__wrap___aeabi_i2d>
10001cc0:	0032      	movs	r2, r6
10001cc2:	003b      	movs	r3, r7
10001cc4:	f004 f897 	bl	10005df6 <__wrap___aeabi_dmul>
10001cc8:	0002      	movs	r2, r0
10001cca:	000b      	movs	r3, r1
10001ccc:	9800      	ldr	r0, [sp, #0]
10001cce:	9901      	ldr	r1, [sp, #4]
10001cd0:	f004 f86a 	bl	10005da8 <__wrap___aeabi_dadd>
10001cd4:	f004 f944 	bl	10005f60 <__wrap___aeabi_d2uiz>
10001cd8:	b280      	uxth	r0, r0
10001cda:	3401      	adds	r4, #1
10001cdc:	b2e4      	uxtb	r4, r4
10001cde:	42ac      	cmp	r4, r5
10001ce0:	d3d4      	bcc.n	10001c8c <string_to_uint16+0x14>
10001ce2:	b003      	add	sp, #12
10001ce4:	bcc0      	pop	{r6, r7}
10001ce6:	46bb      	mov	fp, r7
10001ce8:	46b2      	mov	sl, r6
10001cea:	bdf0      	pop	{r4, r5, r6, r7, pc}
10001cec:	20001e24 	.word	0x20001e24
10001cf0:	40240000 	.word	0x40240000

10001cf4 <handle_console_command>:
10001cf4:	b570      	push	{r4, r5, r6, lr}
10001cf6:	48c4      	ldr	r0, [pc, #784]	@ (10002008 <handle_console_command+0x314>)
10001cf8:	2104      	movs	r1, #4
10001cfa:	f7ff ff4d 	bl	10001b98 <compare_command>
10001cfe:	2800      	cmp	r0, #0
10001d00:	d13b      	bne.n	10001d7a <handle_console_command+0x86>
10001d02:	48c2      	ldr	r0, [pc, #776]	@ (1000200c <handle_console_command+0x318>)
10001d04:	2106      	movs	r1, #6
10001d06:	f7ff ff47 	bl	10001b98 <compare_command>
10001d0a:	2800      	cmp	r0, #0
10001d0c:	d000      	beq.n	10001d10 <handle_console_command+0x1c>
10001d0e:	e072      	b.n	10001df6 <handle_console_command+0x102>
10001d10:	48bf      	ldr	r0, [pc, #764]	@ (10002010 <handle_console_command+0x31c>)
10001d12:	2105      	movs	r1, #5
10001d14:	f7ff ff40 	bl	10001b98 <compare_command>
10001d18:	2800      	cmp	r0, #0
10001d1a:	d100      	bne.n	10001d1e <handle_console_command+0x2a>
10001d1c:	e0a7      	b.n	10001e6e <handle_console_command+0x17a>
10001d1e:	2103      	movs	r1, #3
10001d20:	2005      	movs	r0, #5
10001d22:	f7ff ff4d 	bl	10001bc0 <is_number>
10001d26:	2800      	cmp	r0, #0
10001d28:	d100      	bne.n	10001d2c <handle_console_command+0x38>
10001d2a:	e09c      	b.n	10001e66 <handle_console_command+0x172>
10001d2c:	2103      	movs	r1, #3
10001d2e:	2005      	movs	r0, #5
10001d30:	f7ff ffa2 	bl	10001c78 <string_to_uint16>
10001d34:	1f43      	subs	r3, r0, #5
10001d36:	b29b      	uxth	r3, r3
10001d38:	2294      	movs	r2, #148	@ 0x94
10001d3a:	0052      	lsls	r2, r2, #1
10001d3c:	4293      	cmp	r3, r2
10001d3e:	d300      	bcc.n	10001d42 <handle_console_command+0x4e>
10001d40:	e08d      	b.n	10001e5e <handle_console_command+0x16a>
10001d42:	f7ff fe11 	bl	10001968 <set_baudrate>
10001d46:	4bb3      	ldr	r3, [pc, #716]	@ (10002014 <handle_console_command+0x320>)
10001d48:	8819      	ldrh	r1, [r3, #0]
10001d4a:	48b3      	ldr	r0, [pc, #716]	@ (10002018 <handle_console_command+0x324>)
10001d4c:	f005 fd50 	bl	100077f0 <__wrap_printf>
10001d50:	4bb2      	ldr	r3, [pc, #712]	@ (1000201c <handle_console_command+0x328>)
10001d52:	8819      	ldrh	r1, [r3, #0]
10001d54:	23d2      	movs	r3, #210	@ 0xd2
10001d56:	009b      	lsls	r3, r3, #2
10001d58:	469c      	mov	ip, r3
10001d5a:	4461      	add	r1, ip
10001d5c:	48b0      	ldr	r0, [pc, #704]	@ (10002020 <handle_console_command+0x32c>)
10001d5e:	f005 fd47 	bl	100077f0 <__wrap_printf>
10001d62:	4bb0      	ldr	r3, [pc, #704]	@ (10002024 <handle_console_command+0x330>)
10001d64:	781b      	ldrb	r3, [r3, #0]
10001d66:	2b01      	cmp	r3, #1
10001d68:	d100      	bne.n	10001d6c <handle_console_command+0x78>
10001d6a:	e072      	b.n	10001e52 <handle_console_command+0x15e>
10001d6c:	2b02      	cmp	r3, #2
10001d6e:	d100      	bne.n	10001d72 <handle_console_command+0x7e>
10001d70:	e072      	b.n	10001e58 <handle_console_command+0x164>
10001d72:	20ff      	movs	r0, #255	@ 0xff
10001d74:	f000 fc12 	bl	1000259c <save_current_to_preset>
10001d78:	e03c      	b.n	10001df4 <handle_console_command+0x100>
10001d7a:	48ab      	ldr	r0, [pc, #684]	@ (10002028 <handle_console_command+0x334>)
10001d7c:	f005 fd38 	bl	100077f0 <__wrap_printf>
10001d80:	48aa      	ldr	r0, [pc, #680]	@ (1000202c <handle_console_command+0x338>)
10001d82:	f005 fd05 	bl	10007790 <__wrap_puts>
10001d86:	48aa      	ldr	r0, [pc, #680]	@ (10002030 <handle_console_command+0x33c>)
10001d88:	f005 fd02 	bl	10007790 <__wrap_puts>
10001d8c:	48a9      	ldr	r0, [pc, #676]	@ (10002034 <handle_console_command+0x340>)
10001d8e:	f005 fcff 	bl	10007790 <__wrap_puts>
10001d92:	48a9      	ldr	r0, [pc, #676]	@ (10002038 <handle_console_command+0x344>)
10001d94:	f005 fcfc 	bl	10007790 <__wrap_puts>
10001d98:	48a8      	ldr	r0, [pc, #672]	@ (1000203c <handle_console_command+0x348>)
10001d9a:	f005 fcf9 	bl	10007790 <__wrap_puts>
10001d9e:	48a8      	ldr	r0, [pc, #672]	@ (10002040 <handle_console_command+0x34c>)
10001da0:	f005 fcf6 	bl	10007790 <__wrap_puts>
10001da4:	48a7      	ldr	r0, [pc, #668]	@ (10002044 <handle_console_command+0x350>)
10001da6:	f005 fcf3 	bl	10007790 <__wrap_puts>
10001daa:	4ca7      	ldr	r4, [pc, #668]	@ (10002048 <handle_console_command+0x354>)
10001dac:	0020      	movs	r0, r4
10001dae:	f005 fcef 	bl	10007790 <__wrap_puts>
10001db2:	0020      	movs	r0, r4
10001db4:	f005 fcec 	bl	10007790 <__wrap_puts>
10001db8:	48a4      	ldr	r0, [pc, #656]	@ (1000204c <handle_console_command+0x358>)
10001dba:	f005 fce9 	bl	10007790 <__wrap_puts>
10001dbe:	48a4      	ldr	r0, [pc, #656]	@ (10002050 <handle_console_command+0x35c>)
10001dc0:	f005 fce6 	bl	10007790 <__wrap_puts>
10001dc4:	48a3      	ldr	r0, [pc, #652]	@ (10002054 <handle_console_command+0x360>)
10001dc6:	f005 fce3 	bl	10007790 <__wrap_puts>
10001dca:	48a3      	ldr	r0, [pc, #652]	@ (10002058 <handle_console_command+0x364>)
10001dcc:	f005 fce0 	bl	10007790 <__wrap_puts>
10001dd0:	48a2      	ldr	r0, [pc, #648]	@ (1000205c <handle_console_command+0x368>)
10001dd2:	f005 fcdd 	bl	10007790 <__wrap_puts>
10001dd6:	48a2      	ldr	r0, [pc, #648]	@ (10002060 <handle_console_command+0x36c>)
10001dd8:	f005 fcda 	bl	10007790 <__wrap_puts>
10001ddc:	48a1      	ldr	r0, [pc, #644]	@ (10002064 <handle_console_command+0x370>)
10001dde:	f005 fcd7 	bl	10007790 <__wrap_puts>
10001de2:	48a1      	ldr	r0, [pc, #644]	@ (10002068 <handle_console_command+0x374>)
10001de4:	f005 fcd4 	bl	10007790 <__wrap_puts>
10001de8:	48a0      	ldr	r0, [pc, #640]	@ (1000206c <handle_console_command+0x378>)
10001dea:	f005 fd01 	bl	100077f0 <__wrap_printf>
10001dee:	48a0      	ldr	r0, [pc, #640]	@ (10002070 <handle_console_command+0x37c>)
10001df0:	f005 fcce 	bl	10007790 <__wrap_puts>
10001df4:	bd70      	pop	{r4, r5, r6, pc}
10001df6:	489f      	ldr	r0, [pc, #636]	@ (10002074 <handle_console_command+0x380>)
10001df8:	f005 fcfa 	bl	100077f0 <__wrap_printf>
10001dfc:	489e      	ldr	r0, [pc, #632]	@ (10002078 <handle_console_command+0x384>)
10001dfe:	f005 fcc7 	bl	10007790 <__wrap_puts>
10001e02:	4b88      	ldr	r3, [pc, #544]	@ (10002024 <handle_console_command+0x330>)
10001e04:	7819      	ldrb	r1, [r3, #0]
10001e06:	489d      	ldr	r0, [pc, #628]	@ (1000207c <handle_console_command+0x388>)
10001e08:	f005 fcf2 	bl	100077f0 <__wrap_printf>
10001e0c:	489c      	ldr	r0, [pc, #624]	@ (10002080 <handle_console_command+0x38c>)
10001e0e:	f005 fcbf 	bl	10007790 <__wrap_puts>
10001e12:	4b9c      	ldr	r3, [pc, #624]	@ (10002084 <handle_console_command+0x390>)
10001e14:	681a      	ldr	r2, [r3, #0]
10001e16:	685b      	ldr	r3, [r3, #4]
10001e18:	489b      	ldr	r0, [pc, #620]	@ (10002088 <handle_console_command+0x394>)
10001e1a:	f005 fce9 	bl	100077f0 <__wrap_printf>
10001e1e:	489b      	ldr	r0, [pc, #620]	@ (1000208c <handle_console_command+0x398>)
10001e20:	f005 fcb6 	bl	10007790 <__wrap_puts>
10001e24:	4b9a      	ldr	r3, [pc, #616]	@ (10002090 <handle_console_command+0x39c>)
10001e26:	681a      	ldr	r2, [r3, #0]
10001e28:	685b      	ldr	r3, [r3, #4]
10001e2a:	489a      	ldr	r0, [pc, #616]	@ (10002094 <handle_console_command+0x3a0>)
10001e2c:	f005 fce0 	bl	100077f0 <__wrap_printf>
10001e30:	4b78      	ldr	r3, [pc, #480]	@ (10002014 <handle_console_command+0x320>)
10001e32:	8819      	ldrh	r1, [r3, #0]
10001e34:	4898      	ldr	r0, [pc, #608]	@ (10002098 <handle_console_command+0x3a4>)
10001e36:	f005 fcdb 	bl	100077f0 <__wrap_printf>
10001e3a:	4898      	ldr	r0, [pc, #608]	@ (1000209c <handle_console_command+0x3a8>)
10001e3c:	f005 fca8 	bl	10007790 <__wrap_puts>
10001e40:	4b97      	ldr	r3, [pc, #604]	@ (100020a0 <handle_console_command+0x3ac>)
10001e42:	7819      	ldrb	r1, [r3, #0]
10001e44:	4897      	ldr	r0, [pc, #604]	@ (100020a4 <handle_console_command+0x3b0>)
10001e46:	f005 fcd3 	bl	100077f0 <__wrap_printf>
10001e4a:	4889      	ldr	r0, [pc, #548]	@ (10002070 <handle_console_command+0x37c>)
10001e4c:	f005 fca0 	bl	10007790 <__wrap_puts>
10001e50:	e7d0      	b.n	10001df4 <handle_console_command+0x100>
10001e52:	f7ff fe11 	bl	10001a78 <refresh_CW_config>
10001e56:	e78c      	b.n	10001d72 <handle_console_command+0x7e>
10001e58:	f7ff fdc4 	bl	100019e4 <refresh_RTTY_config>
10001e5c:	e789      	b.n	10001d72 <handle_console_command+0x7e>
10001e5e:	4892      	ldr	r0, [pc, #584]	@ (100020a8 <handle_console_command+0x3b4>)
10001e60:	f005 fc96 	bl	10007790 <__wrap_puts>
10001e64:	e7c6      	b.n	10001df4 <handle_console_command+0x100>
10001e66:	4890      	ldr	r0, [pc, #576]	@ (100020a8 <handle_console_command+0x3b4>)
10001e68:	f005 fc92 	bl	10007790 <__wrap_puts>
10001e6c:	e7c2      	b.n	10001df4 <handle_console_command+0x100>
10001e6e:	488f      	ldr	r0, [pc, #572]	@ (100020ac <handle_console_command+0x3b8>)
10001e70:	2106      	movs	r1, #6
10001e72:	f7ff fe91 	bl	10001b98 <compare_command>
10001e76:	2800      	cmp	r0, #0
10001e78:	d035      	beq.n	10001ee6 <handle_console_command+0x1f2>
10001e7a:	2109      	movs	r1, #9
10001e7c:	2006      	movs	r0, #6
10001e7e:	f7ff fe9f 	bl	10001bc0 <is_number>
10001e82:	2800      	cmp	r0, #0
10001e84:	d02b      	beq.n	10001ede <handle_console_command+0x1ea>
10001e86:	2109      	movs	r1, #9
10001e88:	2006      	movs	r0, #6
10001e8a:	f7ff feb7 	bl	10001bfc <string_to_uint64>
10001e8e:	0002      	movs	r2, r0
10001e90:	000b      	movs	r3, r1
10001e92:	4887      	ldr	r0, [pc, #540]	@ (100020b0 <handle_console_command+0x3bc>)
10001e94:	2101      	movs	r1, #1
10001e96:	4249      	negs	r1, r1
10001e98:	1880      	adds	r0, r0, r2
10001e9a:	4159      	adcs	r1, r3
10001e9c:	0004      	movs	r4, r0
10001e9e:	2900      	cmp	r1, #0
10001ea0:	d119      	bne.n	10001ed6 <handle_console_command+0x1e2>
10001ea2:	d102      	bne.n	10001eaa <handle_console_command+0x1b6>
10001ea4:	4983      	ldr	r1, [pc, #524]	@ (100020b4 <handle_console_command+0x3c0>)
10001ea6:	428c      	cmp	r4, r1
10001ea8:	d815      	bhi.n	10001ed6 <handle_console_command+0x1e2>
10001eaa:	4976      	ldr	r1, [pc, #472]	@ (10002084 <handle_console_command+0x390>)
10001eac:	600a      	str	r2, [r1, #0]
10001eae:	604b      	str	r3, [r1, #4]
10001eb0:	4881      	ldr	r0, [pc, #516]	@ (100020b8 <handle_console_command+0x3c4>)
10001eb2:	f005 fc9d 	bl	100077f0 <__wrap_printf>
10001eb6:	4b5b      	ldr	r3, [pc, #364]	@ (10002024 <handle_console_command+0x330>)
10001eb8:	781b      	ldrb	r3, [r3, #0]
10001eba:	2b01      	cmp	r3, #1
10001ebc:	d005      	beq.n	10001eca <handle_console_command+0x1d6>
10001ebe:	2b02      	cmp	r3, #2
10001ec0:	d006      	beq.n	10001ed0 <handle_console_command+0x1dc>
10001ec2:	20ff      	movs	r0, #255	@ 0xff
10001ec4:	f000 fb6a 	bl	1000259c <save_current_to_preset>
10001ec8:	e794      	b.n	10001df4 <handle_console_command+0x100>
10001eca:	f7ff fdd5 	bl	10001a78 <refresh_CW_config>
10001ece:	e7f8      	b.n	10001ec2 <handle_console_command+0x1ce>
10001ed0:	f7ff fd88 	bl	100019e4 <refresh_RTTY_config>
10001ed4:	e7f5      	b.n	10001ec2 <handle_console_command+0x1ce>
10001ed6:	4879      	ldr	r0, [pc, #484]	@ (100020bc <handle_console_command+0x3c8>)
10001ed8:	f005 fc5a 	bl	10007790 <__wrap_puts>
10001edc:	e78a      	b.n	10001df4 <handle_console_command+0x100>
10001ede:	4877      	ldr	r0, [pc, #476]	@ (100020bc <handle_console_command+0x3c8>)
10001ee0:	f005 fc56 	bl	10007790 <__wrap_puts>
10001ee4:	e786      	b.n	10001df4 <handle_console_command+0x100>
10001ee6:	4876      	ldr	r0, [pc, #472]	@ (100020c0 <handle_console_command+0x3cc>)
10001ee8:	2106      	movs	r1, #6
10001eea:	f7ff fe55 	bl	10001b98 <compare_command>
10001eee:	2800      	cmp	r0, #0
10001ef0:	d035      	beq.n	10001f5e <handle_console_command+0x26a>
10001ef2:	2109      	movs	r1, #9
10001ef4:	2006      	movs	r0, #6
10001ef6:	f7ff fe63 	bl	10001bc0 <is_number>
10001efa:	2800      	cmp	r0, #0
10001efc:	d02b      	beq.n	10001f56 <handle_console_command+0x262>
10001efe:	2109      	movs	r1, #9
10001f00:	2006      	movs	r0, #6
10001f02:	f7ff fe7b 	bl	10001bfc <string_to_uint64>
10001f06:	0002      	movs	r2, r0
10001f08:	000b      	movs	r3, r1
10001f0a:	2005      	movs	r0, #5
10001f0c:	4240      	negs	r0, r0
10001f0e:	17c1      	asrs	r1, r0, #31
10001f10:	1880      	adds	r0, r0, r2
10001f12:	4159      	adcs	r1, r3
10001f14:	0004      	movs	r4, r0
10001f16:	2900      	cmp	r1, #0
10001f18:	d119      	bne.n	10001f4e <handle_console_command+0x25a>
10001f1a:	d102      	bne.n	10001f22 <handle_console_command+0x22e>
10001f1c:	4969      	ldr	r1, [pc, #420]	@ (100020c4 <handle_console_command+0x3d0>)
10001f1e:	428c      	cmp	r4, r1
10001f20:	d815      	bhi.n	10001f4e <handle_console_command+0x25a>
10001f22:	495b      	ldr	r1, [pc, #364]	@ (10002090 <handle_console_command+0x39c>)
10001f24:	600a      	str	r2, [r1, #0]
10001f26:	604b      	str	r3, [r1, #4]
10001f28:	4867      	ldr	r0, [pc, #412]	@ (100020c8 <handle_console_command+0x3d4>)
10001f2a:	f005 fc61 	bl	100077f0 <__wrap_printf>
10001f2e:	4b3d      	ldr	r3, [pc, #244]	@ (10002024 <handle_console_command+0x330>)
10001f30:	781b      	ldrb	r3, [r3, #0]
10001f32:	2b01      	cmp	r3, #1
10001f34:	d005      	beq.n	10001f42 <handle_console_command+0x24e>
10001f36:	2b02      	cmp	r3, #2
10001f38:	d006      	beq.n	10001f48 <handle_console_command+0x254>
10001f3a:	20ff      	movs	r0, #255	@ 0xff
10001f3c:	f000 fb2e 	bl	1000259c <save_current_to_preset>
10001f40:	e758      	b.n	10001df4 <handle_console_command+0x100>
10001f42:	f7ff fd99 	bl	10001a78 <refresh_CW_config>
10001f46:	e7f8      	b.n	10001f3a <handle_console_command+0x246>
10001f48:	f7ff fd4c 	bl	100019e4 <refresh_RTTY_config>
10001f4c:	e7f5      	b.n	10001f3a <handle_console_command+0x246>
10001f4e:	485b      	ldr	r0, [pc, #364]	@ (100020bc <handle_console_command+0x3c8>)
10001f50:	f005 fc1e 	bl	10007790 <__wrap_puts>
10001f54:	e74e      	b.n	10001df4 <handle_console_command+0x100>
10001f56:	4859      	ldr	r0, [pc, #356]	@ (100020bc <handle_console_command+0x3c8>)
10001f58:	f005 fc1a 	bl	10007790 <__wrap_puts>
10001f5c:	e74a      	b.n	10001df4 <handle_console_command+0x100>
10001f5e:	485b      	ldr	r0, [pc, #364]	@ (100020cc <handle_console_command+0x3d8>)
10001f60:	2108      	movs	r1, #8
10001f62:	f7ff fe19 	bl	10001b98 <compare_command>
10001f66:	2800      	cmp	r0, #0
10001f68:	d02a      	beq.n	10001fc0 <handle_console_command+0x2cc>
10001f6a:	2102      	movs	r1, #2
10001f6c:	2008      	movs	r0, #8
10001f6e:	f7ff fe27 	bl	10001bc0 <is_number>
10001f72:	2800      	cmp	r0, #0
10001f74:	d01d      	beq.n	10001fb2 <handle_console_command+0x2be>
10001f76:	2102      	movs	r1, #2
10001f78:	2008      	movs	r0, #8
10001f7a:	f7ff fe3f 	bl	10001bfc <string_to_uint64>
10001f7e:	0002      	movs	r2, r0
10001f80:	000b      	movs	r3, r1
10001f82:	2001      	movs	r0, #1
10001f84:	4240      	negs	r0, r0
10001f86:	17c1      	asrs	r1, r0, #31
10001f88:	1880      	adds	r0, r0, r2
10001f8a:	4159      	adcs	r1, r3
10001f8c:	2900      	cmp	r1, #0
10001f8e:	d10c      	bne.n	10001faa <handle_console_command+0x2b6>
10001f90:	d101      	bne.n	10001f96 <handle_console_command+0x2a2>
10001f92:	2862      	cmp	r0, #98	@ 0x62
10001f94:	d809      	bhi.n	10001faa <handle_console_command+0x2b6>
10001f96:	b2d0      	uxtb	r0, r2
10001f98:	4c41      	ldr	r4, [pc, #260]	@ (100020a0 <handle_console_command+0x3ac>)
10001f9a:	7020      	strb	r0, [r4, #0]
10001f9c:	f7ff fd48 	bl	10001a30 <set_CW_WPM>
10001fa0:	7821      	ldrb	r1, [r4, #0]
10001fa2:	484b      	ldr	r0, [pc, #300]	@ (100020d0 <handle_console_command+0x3dc>)
10001fa4:	f005 fc24 	bl	100077f0 <__wrap_printf>
10001fa8:	e006      	b.n	10001fb8 <handle_console_command+0x2c4>
10001faa:	484a      	ldr	r0, [pc, #296]	@ (100020d4 <handle_console_command+0x3e0>)
10001fac:	f005 fbf0 	bl	10007790 <__wrap_puts>
10001fb0:	e002      	b.n	10001fb8 <handle_console_command+0x2c4>
10001fb2:	4849      	ldr	r0, [pc, #292]	@ (100020d8 <handle_console_command+0x3e4>)
10001fb4:	f005 fbec 	bl	10007790 <__wrap_puts>
10001fb8:	20ff      	movs	r0, #255	@ 0xff
10001fba:	f000 faef 	bl	1000259c <save_current_to_preset>
10001fbe:	e719      	b.n	10001df4 <handle_console_command+0x100>
10001fc0:	4846      	ldr	r0, [pc, #280]	@ (100020dc <handle_console_command+0x3e8>)
10001fc2:	2105      	movs	r1, #5
10001fc4:	f7ff fde8 	bl	10001b98 <compare_command>
10001fc8:	2800      	cmp	r0, #0
10001fca:	d100      	bne.n	10001fce <handle_console_command+0x2da>
10001fcc:	e08c      	b.n	100020e8 <handle_console_command+0x3f4>
10001fce:	2101      	movs	r1, #1
10001fd0:	2005      	movs	r0, #5
10001fd2:	f7ff fdf5 	bl	10001bc0 <is_number>
10001fd6:	2800      	cmp	r0, #0
10001fd8:	d012      	beq.n	10002000 <handle_console_command+0x30c>
10001fda:	2101      	movs	r1, #1
10001fdc:	2005      	movs	r0, #5
10001fde:	f7ff fe0d 	bl	10001bfc <string_to_uint64>
10001fe2:	4308      	orrs	r0, r1
10001fe4:	d105      	bne.n	10001ff2 <handle_console_command+0x2fe>
10001fe6:	f7ff fc5b 	bl	100018a0 <tx_enable>
10001fea:	483d      	ldr	r0, [pc, #244]	@ (100020e0 <handle_console_command+0x3ec>)
10001fec:	f005 fbd0 	bl	10007790 <__wrap_puts>
10001ff0:	e700      	b.n	10001df4 <handle_console_command+0x100>
10001ff2:	2001      	movs	r0, #1
10001ff4:	f7ff fc54 	bl	100018a0 <tx_enable>
10001ff8:	483a      	ldr	r0, [pc, #232]	@ (100020e4 <handle_console_command+0x3f0>)
10001ffa:	f005 fbc9 	bl	10007790 <__wrap_puts>
10001ffe:	e6f9      	b.n	10001df4 <handle_console_command+0x100>
10002000:	4835      	ldr	r0, [pc, #212]	@ (100020d8 <handle_console_command+0x3e4>)
10002002:	f005 fbc5 	bl	10007790 <__wrap_puts>
10002006:	e6f5      	b.n	10001df4 <handle_console_command+0x100>
10002008:	1000aeec 	.word	0x1000aeec
1000200c:	1000af70 	.word	0x1000af70
10002010:	1000b1f0 	.word	0x1000b1f0
10002014:	20000b56 	.word	0x20000b56
10002018:	1000b1f8 	.word	0x1000b1f8
1000201c:	20000b54 	.word	0x20000b54
10002020:	1000b214 	.word	0x1000b214
10002024:	20002554 	.word	0x20002554
10002028:	1000aef4 	.word	0x1000aef4
1000202c:	1000aefc 	.word	0x1000aefc
10002030:	1000af10 	.word	0x1000af10
10002034:	1000af44 	.word	0x1000af44
10002038:	1000af58 	.word	0x1000af58
1000203c:	1000af78 	.word	0x1000af78
10002040:	1000afb0 	.word	0x1000afb0
10002044:	1000b008 	.word	0x1000b008
10002048:	1000b05c 	.word	0x1000b05c
1000204c:	1000b06c 	.word	0x1000b06c
10002050:	1000b080 	.word	0x1000b080
10002054:	1000b090 	.word	0x1000b090
10002058:	1000b0ac 	.word	0x1000b0ac
1000205c:	1000b0d0 	.word	0x1000b0d0
10002060:	1000b104 	.word	0x1000b104
10002064:	1000b144 	.word	0x1000b144
10002068:	1000b174 	.word	0x1000b174
1000206c:	1000b1b0 	.word	0x1000b1b0
10002070:	1000b1e0 	.word	0x1000b1e0
10002074:	1000b1e8 	.word	0x1000b1e8
10002078:	1000ae2c 	.word	0x1000ae2c
1000207c:	1000ae3c 	.word	0x1000ae3c
10002080:	1000ae48 	.word	0x1000ae48
10002084:	20000b60 	.word	0x20000b60
10002088:	1000ae64 	.word	0x1000ae64
1000208c:	1000ae80 	.word	0x1000ae80
10002090:	20000b58 	.word	0x20000b58
10002094:	1000ae88 	.word	0x1000ae88
10002098:	1000aea4 	.word	0x1000aea4
1000209c:	1000aeb8 	.word	0x1000aeb8
100020a0:	20000b50 	.word	0x20000b50
100020a4:	1000aebc 	.word	0x1000aebc
100020a8:	1000b228 	.word	0x1000b228
100020ac:	1000b23c 	.word	0x1000b23c
100020b0:	ffffd8f0 	.word	0xffffd8f0
100020b4:	0beb9af0 	.word	0x0beb9af0
100020b8:	1000b244 	.word	0x1000b244
100020bc:	1000b268 	.word	0x1000b268
100020c0:	1000b27c 	.word	0x1000b27c
100020c4:	0000270b 	.word	0x0000270b
100020c8:	1000b284 	.word	0x1000b284
100020cc:	1000b2a4 	.word	0x1000b2a4
100020d0:	1000b2b0 	.word	0x1000b2b0
100020d4:	1000b2c8 	.word	0x1000b2c8
100020d8:	1000b2d8 	.word	0x1000b2d8
100020dc:	1000b2e8 	.word	0x1000b2e8
100020e0:	1000b2f0 	.word	0x1000b2f0
100020e4:	1000b2fc 	.word	0x1000b2fc
100020e8:	4886      	ldr	r0, [pc, #536]	@ (10002304 <handle_console_command+0x610>)
100020ea:	2109      	movs	r1, #9
100020ec:	f7ff fd54 	bl	10001b98 <compare_command>
100020f0:	2800      	cmp	r0, #0
100020f2:	d04f      	beq.n	10002194 <handle_console_command+0x4a0>
100020f4:	4b84      	ldr	r3, [pc, #528]	@ (10002308 <handle_console_command+0x614>)
100020f6:	781b      	ldrb	r3, [r3, #0]
100020f8:	2b02      	cmp	r3, #2
100020fa:	d003      	beq.n	10002104 <handle_console_command+0x410>
100020fc:	4883      	ldr	r0, [pc, #524]	@ (1000230c <handle_console_command+0x618>)
100020fe:	f005 fb47 	bl	10007790 <__wrap_puts>
10002102:	e677      	b.n	10001df4 <handle_console_command+0x100>
10002104:	2101      	movs	r1, #1
10002106:	2020      	movs	r0, #32
10002108:	f7ff fbd6 	bl	100018b8 <RTTYTXletter>
1000210c:	23d0      	movs	r3, #208	@ 0xd0
1000210e:	061b      	lsls	r3, r3, #24
10002110:	2280      	movs	r2, #128	@ 0x80
10002112:	0192      	lsls	r2, r2, #6
10002114:	615a      	str	r2, [r3, #20]
10002116:	2420      	movs	r4, #32
10002118:	e019      	b.n	1000214e <handle_console_command+0x45a>
1000211a:	200a      	movs	r0, #10
1000211c:	f005 fb04 	bl	10007728 <__wrap_putchar>
10002120:	2100      	movs	r1, #0
10002122:	200a      	movs	r0, #10
10002124:	f7ff fbc8 	bl	100018b8 <RTTYTXletter>
10002128:	4b79      	ldr	r3, [pc, #484]	@ (10002310 <handle_console_command+0x61c>)
1000212a:	881b      	ldrh	r3, [r3, #0]
1000212c:	0098      	lsls	r0, r3, #2
1000212e:	18c0      	adds	r0, r0, r3
10002130:	2100      	movs	r1, #0
10002132:	f001 fd31 	bl	10003b98 <busy_wait_us>
10002136:	2100      	movs	r1, #0
10002138:	200d      	movs	r0, #13
1000213a:	f7ff fbbd 	bl	100018b8 <RTTYTXletter>
1000213e:	4b75      	ldr	r3, [pc, #468]	@ (10002314 <handle_console_command+0x620>)
10002140:	8819      	ldrh	r1, [r3, #0]
10002142:	4875      	ldr	r0, [pc, #468]	@ (10002318 <handle_console_command+0x624>)
10002144:	f003 fbc4 	bl	100058d0 <__wrap___aeabi_idiv>
10002148:	17c1      	asrs	r1, r0, #31
1000214a:	f001 fd25 	bl	10003b98 <busy_wait_us>
1000214e:	2c03      	cmp	r4, #3
10002150:	d016      	beq.n	10002180 <handle_console_command+0x48c>
10002152:	2000      	movs	r0, #0
10002154:	f005 fb5c 	bl	10007810 <getchar_timeout_us>
10002158:	0005      	movs	r5, r0
1000215a:	b244      	sxtb	r4, r0
1000215c:	1c63      	adds	r3, r4, #1
1000215e:	d00b      	beq.n	10002178 <handle_console_command+0x484>
10002160:	2c0a      	cmp	r4, #10
10002162:	d0da      	beq.n	1000211a <handle_console_command+0x426>
10002164:	2c0d      	cmp	r4, #13
10002166:	d0d8      	beq.n	1000211a <handle_console_command+0x426>
10002168:	0020      	movs	r0, r4
1000216a:	f005 fadd 	bl	10007728 <__wrap_putchar>
1000216e:	b2e8      	uxtb	r0, r5
10002170:	2100      	movs	r1, #0
10002172:	f7ff fba1 	bl	100018b8 <RTTYTXletter>
10002176:	e7e2      	b.n	1000213e <handle_console_command+0x44a>
10002178:	2001      	movs	r0, #1
1000217a:	f001 fd3d 	bl	10003bf8 <busy_wait_ms>
1000217e:	e7e6      	b.n	1000214e <handle_console_command+0x45a>
10002180:	23d0      	movs	r3, #208	@ 0xd0
10002182:	061b      	lsls	r3, r3, #24
10002184:	2280      	movs	r2, #128	@ 0x80
10002186:	0192      	lsls	r2, r2, #6
10002188:	619a      	str	r2, [r3, #24]
1000218a:	4864      	ldr	r0, [pc, #400]	@ (1000231c <handle_console_command+0x628>)
1000218c:	0021      	movs	r1, r4
1000218e:	f005 fb2f 	bl	100077f0 <__wrap_printf>
10002192:	e62f      	b.n	10001df4 <handle_console_command+0x100>
10002194:	4862      	ldr	r0, [pc, #392]	@ (10002320 <handle_console_command+0x62c>)
10002196:	2107      	movs	r1, #7
10002198:	f7ff fcfe 	bl	10001b98 <compare_command>
1000219c:	2800      	cmp	r0, #0
1000219e:	d02d      	beq.n	100021fc <handle_console_command+0x508>
100021a0:	2101      	movs	r1, #1
100021a2:	2007      	movs	r0, #7
100021a4:	f7ff fd0c 	bl	10001bc0 <is_number>
100021a8:	2800      	cmp	r0, #0
100021aa:	d023      	beq.n	100021f4 <handle_console_command+0x500>
100021ac:	2101      	movs	r1, #1
100021ae:	2007      	movs	r0, #7
100021b0:	f7ff fd24 	bl	10001bfc <string_to_uint64>
100021b4:	0003      	movs	r3, r0
100021b6:	2900      	cmp	r1, #0
100021b8:	d112      	bne.n	100021e0 <handle_console_command+0x4ec>
100021ba:	d00f      	beq.n	100021dc <handle_console_command+0x4e8>
100021bc:	b2db      	uxtb	r3, r3
100021be:	4a52      	ldr	r2, [pc, #328]	@ (10002308 <handle_console_command+0x614>)
100021c0:	7013      	strb	r3, [r2, #0]
100021c2:	2b01      	cmp	r3, #1
100021c4:	d010      	beq.n	100021e8 <handle_console_command+0x4f4>
100021c6:	2b02      	cmp	r3, #2
100021c8:	d011      	beq.n	100021ee <handle_console_command+0x4fa>
100021ca:	20ff      	movs	r0, #255	@ 0xff
100021cc:	f000 f9e6 	bl	1000259c <save_current_to_preset>
100021d0:	4b4d      	ldr	r3, [pc, #308]	@ (10002308 <handle_console_command+0x614>)
100021d2:	7819      	ldrb	r1, [r3, #0]
100021d4:	4853      	ldr	r0, [pc, #332]	@ (10002324 <handle_console_command+0x630>)
100021d6:	f005 fb0b 	bl	100077f0 <__wrap_printf>
100021da:	e60b      	b.n	10001df4 <handle_console_command+0x100>
100021dc:	2802      	cmp	r0, #2
100021de:	d9ed      	bls.n	100021bc <handle_console_command+0x4c8>
100021e0:	4851      	ldr	r0, [pc, #324]	@ (10002328 <handle_console_command+0x634>)
100021e2:	f005 fad5 	bl	10007790 <__wrap_puts>
100021e6:	e605      	b.n	10001df4 <handle_console_command+0x100>
100021e8:	f7ff fc14 	bl	10001a14 <set_CW_mode>
100021ec:	e7ed      	b.n	100021ca <handle_console_command+0x4d6>
100021ee:	f7ff fbdf 	bl	100019b0 <set_RTTY_mode>
100021f2:	e7ea      	b.n	100021ca <handle_console_command+0x4d6>
100021f4:	484d      	ldr	r0, [pc, #308]	@ (1000232c <handle_console_command+0x638>)
100021f6:	f005 facb 	bl	10007790 <__wrap_puts>
100021fa:	e5fb      	b.n	10001df4 <handle_console_command+0x100>
100021fc:	484c      	ldr	r0, [pc, #304]	@ (10002330 <handle_console_command+0x63c>)
100021fe:	2107      	movs	r1, #7
10002200:	f7ff fcca 	bl	10001b98 <compare_command>
10002204:	2800      	cmp	r0, #0
10002206:	d036      	beq.n	10002276 <handle_console_command+0x582>
10002208:	4b3f      	ldr	r3, [pc, #252]	@ (10002308 <handle_console_command+0x614>)
1000220a:	781b      	ldrb	r3, [r3, #0]
1000220c:	2b01      	cmp	r3, #1
1000220e:	d003      	beq.n	10002218 <handle_console_command+0x524>
10002210:	483e      	ldr	r0, [pc, #248]	@ (1000230c <handle_console_command+0x618>)
10002212:	f005 fabd 	bl	10007790 <__wrap_puts>
10002216:	e5ed      	b.n	10001df4 <handle_console_command+0x100>
10002218:	2020      	movs	r0, #32
1000221a:	f7ff fc3d 	bl	10001a98 <CW_TX_letter>
1000221e:	23d0      	movs	r3, #208	@ 0xd0
10002220:	061b      	lsls	r3, r3, #24
10002222:	2280      	movs	r2, #128	@ 0x80
10002224:	0192      	lsls	r2, r2, #6
10002226:	615a      	str	r2, [r3, #20]
10002228:	2420      	movs	r4, #32
1000222a:	e002      	b.n	10002232 <handle_console_command+0x53e>
1000222c:	200a      	movs	r0, #10
1000222e:	f005 fa7b 	bl	10007728 <__wrap_putchar>
10002232:	2c03      	cmp	r4, #3
10002234:	d015      	beq.n	10002262 <handle_console_command+0x56e>
10002236:	2000      	movs	r0, #0
10002238:	f005 faea 	bl	10007810 <getchar_timeout_us>
1000223c:	0005      	movs	r5, r0
1000223e:	b244      	sxtb	r4, r0
10002240:	1c63      	adds	r3, r4, #1
10002242:	d00a      	beq.n	1000225a <handle_console_command+0x566>
10002244:	2c0a      	cmp	r4, #10
10002246:	d0f1      	beq.n	1000222c <handle_console_command+0x538>
10002248:	2c0d      	cmp	r4, #13
1000224a:	d0ef      	beq.n	1000222c <handle_console_command+0x538>
1000224c:	0020      	movs	r0, r4
1000224e:	f005 fa6b 	bl	10007728 <__wrap_putchar>
10002252:	b2e8      	uxtb	r0, r5
10002254:	f7ff fc20 	bl	10001a98 <CW_TX_letter>
10002258:	e7eb      	b.n	10002232 <handle_console_command+0x53e>
1000225a:	2001      	movs	r0, #1
1000225c:	f001 fccc 	bl	10003bf8 <busy_wait_ms>
10002260:	e7e7      	b.n	10002232 <handle_console_command+0x53e>
10002262:	23d0      	movs	r3, #208	@ 0xd0
10002264:	061b      	lsls	r3, r3, #24
10002266:	2280      	movs	r2, #128	@ 0x80
10002268:	0192      	lsls	r2, r2, #6
1000226a:	619a      	str	r2, [r3, #24]
1000226c:	482b      	ldr	r0, [pc, #172]	@ (1000231c <handle_console_command+0x628>)
1000226e:	0021      	movs	r1, r4
10002270:	f005 fabe 	bl	100077f0 <__wrap_printf>
10002274:	e5be      	b.n	10001df4 <handle_console_command+0x100>
10002276:	482f      	ldr	r0, [pc, #188]	@ (10002334 <handle_console_command+0x640>)
10002278:	2106      	movs	r1, #6
1000227a:	f7ff fc8d 	bl	10001b98 <compare_command>
1000227e:	2800      	cmp	r0, #0
10002280:	d01a      	beq.n	100022b8 <handle_console_command+0x5c4>
10002282:	2101      	movs	r1, #1
10002284:	2006      	movs	r0, #6
10002286:	f7ff fc9b 	bl	10001bc0 <is_number>
1000228a:	2800      	cmp	r0, #0
1000228c:	d010      	beq.n	100022b0 <handle_console_command+0x5bc>
1000228e:	2101      	movs	r1, #1
10002290:	2006      	movs	r0, #6
10002292:	f7ff fcb3 	bl	10001bfc <string_to_uint64>
10002296:	b2c0      	uxtb	r0, r0
10002298:	f000 f980 	bl	1000259c <save_current_to_preset>
1000229c:	2800      	cmp	r0, #0
1000229e:	d003      	beq.n	100022a8 <handle_console_command+0x5b4>
100022a0:	4825      	ldr	r0, [pc, #148]	@ (10002338 <handle_console_command+0x644>)
100022a2:	f005 fa75 	bl	10007790 <__wrap_puts>
100022a6:	e5a5      	b.n	10001df4 <handle_console_command+0x100>
100022a8:	4824      	ldr	r0, [pc, #144]	@ (1000233c <handle_console_command+0x648>)
100022aa:	f005 fa71 	bl	10007790 <__wrap_puts>
100022ae:	e5a1      	b.n	10001df4 <handle_console_command+0x100>
100022b0:	481e      	ldr	r0, [pc, #120]	@ (1000232c <handle_console_command+0x638>)
100022b2:	f005 fa6d 	bl	10007790 <__wrap_puts>
100022b6:	e59d      	b.n	10001df4 <handle_console_command+0x100>
100022b8:	4821      	ldr	r0, [pc, #132]	@ (10002340 <handle_console_command+0x64c>)
100022ba:	2106      	movs	r1, #6
100022bc:	f7ff fc6c 	bl	10001b98 <compare_command>
100022c0:	2800      	cmp	r0, #0
100022c2:	d01a      	beq.n	100022fa <handle_console_command+0x606>
100022c4:	2101      	movs	r1, #1
100022c6:	2006      	movs	r0, #6
100022c8:	f7ff fc7a 	bl	10001bc0 <is_number>
100022cc:	2800      	cmp	r0, #0
100022ce:	d010      	beq.n	100022f2 <handle_console_command+0x5fe>
100022d0:	2101      	movs	r1, #1
100022d2:	2006      	movs	r0, #6
100022d4:	f7ff fc92 	bl	10001bfc <string_to_uint64>
100022d8:	b2c0      	uxtb	r0, r0
100022da:	f000 fa0b 	bl	100026f4 <load_preset>
100022de:	2800      	cmp	r0, #0
100022e0:	d003      	beq.n	100022ea <handle_console_command+0x5f6>
100022e2:	4818      	ldr	r0, [pc, #96]	@ (10002344 <handle_console_command+0x650>)
100022e4:	f005 fa54 	bl	10007790 <__wrap_puts>
100022e8:	e584      	b.n	10001df4 <handle_console_command+0x100>
100022ea:	4817      	ldr	r0, [pc, #92]	@ (10002348 <handle_console_command+0x654>)
100022ec:	f005 fa50 	bl	10007790 <__wrap_puts>
100022f0:	e580      	b.n	10001df4 <handle_console_command+0x100>
100022f2:	480e      	ldr	r0, [pc, #56]	@ (1000232c <handle_console_command+0x638>)
100022f4:	f005 fa4c 	bl	10007790 <__wrap_puts>
100022f8:	e57c      	b.n	10001df4 <handle_console_command+0x100>
100022fa:	4814      	ldr	r0, [pc, #80]	@ (1000234c <handle_console_command+0x658>)
100022fc:	f005 fa48 	bl	10007790 <__wrap_puts>
10002300:	e578      	b.n	10001df4 <handle_console_command+0x100>
10002302:	46c0      	nop			@ (mov r8, r8)
10002304:	1000b308 	.word	0x1000b308
10002308:	20002554 	.word	0x20002554
1000230c:	1000b314 	.word	0x1000b314
10002310:	20000b52 	.word	0x20000b52
10002314:	20000b56 	.word	0x20000b56
10002318:	000f4240 	.word	0x000f4240
1000231c:	1000ae44 	.word	0x1000ae44
10002320:	1000b334 	.word	0x1000b334
10002324:	1000b33c 	.word	0x1000b33c
10002328:	1000b34c 	.word	0x1000b34c
1000232c:	1000b2d8 	.word	0x1000b2d8
10002330:	1000b360 	.word	0x1000b360
10002334:	1000b368 	.word	0x1000b368
10002338:	1000b370 	.word	0x1000b370
1000233c:	1000b380 	.word	0x1000b380
10002340:	1000b3bc 	.word	0x1000b3bc
10002344:	1000b3c4 	.word	0x1000b3c4
10002348:	1000b3d4 	.word	0x1000b3d4
1000234c:	1000b410 	.word	0x1000b410

10002350 <handle_console_rx>:
10002350:	b510      	push	{r4, lr}
10002352:	2000      	movs	r0, #0
10002354:	f005 fa5c 	bl	10007810 <getchar_timeout_us>
10002358:	b240      	sxtb	r0, r0
1000235a:	4b26      	ldr	r3, [pc, #152]	@ (100023f4 <handle_console_rx+0xa4>)
1000235c:	7018      	strb	r0, [r3, #0]
1000235e:	1c43      	adds	r3, r0, #1
10002360:	d013      	beq.n	1000238a <handle_console_rx+0x3a>
10002362:	2808      	cmp	r0, #8
10002364:	d012      	beq.n	1000238c <handle_console_rx+0x3c>
10002366:	280a      	cmp	r0, #10
10002368:	d01d      	beq.n	100023a6 <handle_console_rx+0x56>
1000236a:	280d      	cmp	r0, #13
1000236c:	d01b      	beq.n	100023a6 <handle_console_rx+0x56>
1000236e:	4b22      	ldr	r3, [pc, #136]	@ (100023f8 <handle_console_rx+0xa8>)
10002370:	781b      	ldrb	r3, [r3, #0]
10002372:	2b1f      	cmp	r3, #31
10002374:	d803      	bhi.n	1000237e <handle_console_rx+0x2e>
10002376:	281f      	cmp	r0, #31
10002378:	dd01      	ble.n	1000237e <handle_console_rx+0x2e>
1000237a:	287f      	cmp	r0, #127	@ 0x7f
1000237c:	d12e      	bne.n	100023dc <handle_console_rx+0x8c>
1000237e:	2001      	movs	r0, #1
10002380:	f001 fc3a 	bl	10003bf8 <busy_wait_ms>
10002384:	4b1b      	ldr	r3, [pc, #108]	@ (100023f4 <handle_console_rx+0xa4>)
10002386:	2200      	movs	r2, #0
10002388:	701a      	strb	r2, [r3, #0]
1000238a:	bd10      	pop	{r4, pc}
1000238c:	4b1a      	ldr	r3, [pc, #104]	@ (100023f8 <handle_console_rx+0xa8>)
1000238e:	781b      	ldrb	r3, [r3, #0]
10002390:	2b00      	cmp	r3, #0
10002392:	d0e8      	beq.n	10002366 <handle_console_rx+0x16>
10002394:	4a18      	ldr	r2, [pc, #96]	@ (100023f8 <handle_console_rx+0xa8>)
10002396:	3b01      	subs	r3, #1
10002398:	7013      	strb	r3, [r2, #0]
1000239a:	4818      	ldr	r0, [pc, #96]	@ (100023fc <handle_console_rx+0xac>)
1000239c:	2208      	movs	r2, #8
1000239e:	2108      	movs	r1, #8
100023a0:	f005 fa26 	bl	100077f0 <__wrap_printf>
100023a4:	e7ee      	b.n	10002384 <handle_console_rx+0x34>
100023a6:	200a      	movs	r0, #10
100023a8:	f005 f9be 	bl	10007728 <__wrap_putchar>
100023ac:	f7ff fca2 	bl	10001cf4 <handle_console_command>
100023b0:	4b11      	ldr	r3, [pc, #68]	@ (100023f8 <handle_console_rx+0xa8>)
100023b2:	2200      	movs	r2, #0
100023b4:	701a      	strb	r2, [r3, #0]
100023b6:	4b0f      	ldr	r3, [pc, #60]	@ (100023f4 <handle_console_rx+0xa4>)
100023b8:	701a      	strb	r2, [r3, #0]
100023ba:	2300      	movs	r3, #0
100023bc:	e003      	b.n	100023c6 <handle_console_rx+0x76>
100023be:	4a10      	ldr	r2, [pc, #64]	@ (10002400 <handle_console_rx+0xb0>)
100023c0:	2100      	movs	r1, #0
100023c2:	54d1      	strb	r1, [r2, r3]
100023c4:	3301      	adds	r3, #1
100023c6:	2b1f      	cmp	r3, #31
100023c8:	ddf9      	ble.n	100023be <handle_console_rx+0x6e>
100023ca:	480e      	ldr	r0, [pc, #56]	@ (10002404 <handle_console_rx+0xb4>)
100023cc:	f005 fa10 	bl	100077f0 <__wrap_printf>
100023d0:	2000      	movs	r0, #0
100023d2:	f005 fa1d 	bl	10007810 <getchar_timeout_us>
100023d6:	3001      	adds	r0, #1
100023d8:	d1fa      	bne.n	100023d0 <handle_console_rx+0x80>
100023da:	e7d6      	b.n	1000238a <handle_console_rx+0x3a>
100023dc:	f005 f9a4 	bl	10007728 <__wrap_putchar>
100023e0:	4905      	ldr	r1, [pc, #20]	@ (100023f8 <handle_console_rx+0xa8>)
100023e2:	780b      	ldrb	r3, [r1, #0]
100023e4:	4a06      	ldr	r2, [pc, #24]	@ (10002400 <handle_console_rx+0xb0>)
100023e6:	4803      	ldr	r0, [pc, #12]	@ (100023f4 <handle_console_rx+0xa4>)
100023e8:	7800      	ldrb	r0, [r0, #0]
100023ea:	54d0      	strb	r0, [r2, r3]
100023ec:	3301      	adds	r3, #1
100023ee:	700b      	strb	r3, [r1, #0]
100023f0:	e7c8      	b.n	10002384 <handle_console_rx+0x34>
100023f2:	46c0      	nop			@ (mov r8, r8)
100023f4:	2000254f 	.word	0x2000254f
100023f8:	20002552 	.word	0x20002552
100023fc:	1000b438 	.word	0x1000b438
10002400:	20001e24 	.word	0x20001e24
10002404:	1000aed0 	.word	0x1000aed0

10002408 <write_eeprom_single_uint8>:
10002408:	b570      	push	{r4, r5, r6, lr}
1000240a:	b084      	sub	sp, #16
1000240c:	0005      	movs	r5, r0
1000240e:	000e      	movs	r6, r1
10002410:	ac03      	add	r4, sp, #12
10002412:	2203      	movs	r2, #3
10002414:	2100      	movs	r1, #0
10002416:	0020      	movs	r0, r4
10002418:	f004 ffd4 	bl	100073c4 <__wrap_memset>
1000241c:	0a2b      	lsrs	r3, r5, #8
1000241e:	7023      	strb	r3, [r4, #0]
10002420:	7065      	strb	r5, [r4, #1]
10002422:	70a6      	strb	r6, [r4, #2]
10002424:	4806      	ldr	r0, [pc, #24]	@ (10002440 <write_eeprom_single_uint8+0x38>)
10002426:	2300      	movs	r3, #0
10002428:	9300      	str	r3, [sp, #0]
1000242a:	3303      	adds	r3, #3
1000242c:	0022      	movs	r2, r4
1000242e:	2150      	movs	r1, #80	@ 0x50
10002430:	f007 ff64 	bl	1000a2fc <i2c_write_blocking>
10002434:	2005      	movs	r0, #5
10002436:	f001 fbdf 	bl	10003bf8 <busy_wait_ms>
1000243a:	b004      	add	sp, #16
1000243c:	bd70      	pop	{r4, r5, r6, pc}
1000243e:	46c0      	nop			@ (mov r8, r8)
10002440:	20000ea0 	.word	0x20000ea0

10002444 <write_eeprom_single_uint16>:
10002444:	b570      	push	{r4, r5, r6, lr}
10002446:	0004      	movs	r4, r0
10002448:	000d      	movs	r5, r1
1000244a:	b2c9      	uxtb	r1, r1
1000244c:	f7ff ffdc 	bl	10002408 <write_eeprom_single_uint8>
10002450:	0a29      	lsrs	r1, r5, #8
10002452:	3401      	adds	r4, #1
10002454:	b2a0      	uxth	r0, r4
10002456:	f7ff ffd7 	bl	10002408 <write_eeprom_single_uint8>
1000245a:	bd70      	pop	{r4, r5, r6, pc}

1000245c <write_eeprom_single_uint64>:
1000245c:	b570      	push	{r4, r5, r6, lr}
1000245e:	0004      	movs	r4, r0
10002460:	000d      	movs	r5, r1
10002462:	b2c9      	uxtb	r1, r1
10002464:	f7ff ffd0 	bl	10002408 <write_eeprom_single_uint8>
10002468:	0a29      	lsrs	r1, r5, #8
1000246a:	b2c9      	uxtb	r1, r1
1000246c:	1c60      	adds	r0, r4, #1
1000246e:	b280      	uxth	r0, r0
10002470:	f7ff ffca 	bl	10002408 <write_eeprom_single_uint8>
10002474:	0c29      	lsrs	r1, r5, #16
10002476:	b2c9      	uxtb	r1, r1
10002478:	1ca0      	adds	r0, r4, #2
1000247a:	b280      	uxth	r0, r0
1000247c:	f7ff ffc4 	bl	10002408 <write_eeprom_single_uint8>
10002480:	0e29      	lsrs	r1, r5, #24
10002482:	1ce0      	adds	r0, r4, #3
10002484:	b280      	uxth	r0, r0
10002486:	f7ff ffbf 	bl	10002408 <write_eeprom_single_uint8>
1000248a:	1d20      	adds	r0, r4, #4
1000248c:	b280      	uxth	r0, r0
1000248e:	2100      	movs	r1, #0
10002490:	f7ff ffba 	bl	10002408 <write_eeprom_single_uint8>
10002494:	1d60      	adds	r0, r4, #5
10002496:	b280      	uxth	r0, r0
10002498:	2100      	movs	r1, #0
1000249a:	f7ff ffb5 	bl	10002408 <write_eeprom_single_uint8>
1000249e:	1da0      	adds	r0, r4, #6
100024a0:	b280      	uxth	r0, r0
100024a2:	2100      	movs	r1, #0
100024a4:	f7ff ffb0 	bl	10002408 <write_eeprom_single_uint8>
100024a8:	3407      	adds	r4, #7
100024aa:	b2a0      	uxth	r0, r4
100024ac:	2100      	movs	r1, #0
100024ae:	f7ff ffab 	bl	10002408 <write_eeprom_single_uint8>
100024b2:	bd70      	pop	{r4, r5, r6, pc}

100024b4 <read_eeprom_single_uint8>:
100024b4:	b530      	push	{r4, r5, lr}
100024b6:	b085      	sub	sp, #20
100024b8:	aa03      	add	r2, sp, #12
100024ba:	2500      	movs	r5, #0
100024bc:	8015      	strh	r5, [r2, #0]
100024be:	2300      	movs	r3, #0
100024c0:	4669      	mov	r1, sp
100024c2:	72cb      	strb	r3, [r1, #11]
100024c4:	0a03      	lsrs	r3, r0, #8
100024c6:	7013      	strb	r3, [r2, #0]
100024c8:	7050      	strb	r0, [r2, #1]
100024ca:	4c0a      	ldr	r4, [pc, #40]	@ (100024f4 <read_eeprom_single_uint8+0x40>)
100024cc:	2301      	movs	r3, #1
100024ce:	9300      	str	r3, [sp, #0]
100024d0:	3301      	adds	r3, #1
100024d2:	2150      	movs	r1, #80	@ 0x50
100024d4:	0020      	movs	r0, r4
100024d6:	f007 ff11 	bl	1000a2fc <i2c_write_blocking>
100024da:	9500      	str	r5, [sp, #0]
100024dc:	2301      	movs	r3, #1
100024de:	220b      	movs	r2, #11
100024e0:	446a      	add	r2, sp
100024e2:	2150      	movs	r1, #80	@ 0x50
100024e4:	0020      	movs	r0, r4
100024e6:	f007 ff15 	bl	1000a314 <i2c_read_blocking>
100024ea:	466b      	mov	r3, sp
100024ec:	7ad8      	ldrb	r0, [r3, #11]
100024ee:	b005      	add	sp, #20
100024f0:	bd30      	pop	{r4, r5, pc}
100024f2:	46c0      	nop			@ (mov r8, r8)
100024f4:	20000ea0 	.word	0x20000ea0

100024f8 <read_eeprom_single_uint16>:
100024f8:	b570      	push	{r4, r5, r6, lr}
100024fa:	0005      	movs	r5, r0
100024fc:	3001      	adds	r0, #1
100024fe:	b280      	uxth	r0, r0
10002500:	f7ff ffd8 	bl	100024b4 <read_eeprom_single_uint8>
10002504:	0204      	lsls	r4, r0, #8
10002506:	b2a4      	uxth	r4, r4
10002508:	0028      	movs	r0, r5
1000250a:	f7ff ffd3 	bl	100024b4 <read_eeprom_single_uint8>
1000250e:	1900      	adds	r0, r0, r4
10002510:	b280      	uxth	r0, r0
10002512:	bd70      	pop	{r4, r5, r6, pc}

10002514 <read_eeprom_single_uint64>:
10002514:	b570      	push	{r4, r5, r6, lr}
10002516:	0005      	movs	r5, r0
10002518:	3007      	adds	r0, #7
1000251a:	b280      	uxth	r0, r0
1000251c:	f7ff ffca 	bl	100024b4 <read_eeprom_single_uint8>
10002520:	0e04      	lsrs	r4, r0, #24
10002522:	0206      	lsls	r6, r0, #8
10002524:	1da8      	adds	r0, r5, #6
10002526:	b280      	uxth	r0, r0
10002528:	f7ff ffc4 	bl	100024b4 <read_eeprom_single_uint8>
1000252c:	4306      	orrs	r6, r0
1000252e:	0e33      	lsrs	r3, r6, #24
10002530:	0224      	lsls	r4, r4, #8
10002532:	431c      	orrs	r4, r3
10002534:	0236      	lsls	r6, r6, #8
10002536:	1d68      	adds	r0, r5, #5
10002538:	b280      	uxth	r0, r0
1000253a:	f7ff ffbb 	bl	100024b4 <read_eeprom_single_uint8>
1000253e:	4306      	orrs	r6, r0
10002540:	0e33      	lsrs	r3, r6, #24
10002542:	0224      	lsls	r4, r4, #8
10002544:	431c      	orrs	r4, r3
10002546:	0236      	lsls	r6, r6, #8
10002548:	1d28      	adds	r0, r5, #4
1000254a:	b280      	uxth	r0, r0
1000254c:	f7ff ffb2 	bl	100024b4 <read_eeprom_single_uint8>
10002550:	4306      	orrs	r6, r0
10002552:	0e33      	lsrs	r3, r6, #24
10002554:	0224      	lsls	r4, r4, #8
10002556:	431c      	orrs	r4, r3
10002558:	0236      	lsls	r6, r6, #8
1000255a:	1ce8      	adds	r0, r5, #3
1000255c:	b280      	uxth	r0, r0
1000255e:	f7ff ffa9 	bl	100024b4 <read_eeprom_single_uint8>
10002562:	4306      	orrs	r6, r0
10002564:	0e33      	lsrs	r3, r6, #24
10002566:	0224      	lsls	r4, r4, #8
10002568:	431c      	orrs	r4, r3
1000256a:	0236      	lsls	r6, r6, #8
1000256c:	1ca8      	adds	r0, r5, #2
1000256e:	b280      	uxth	r0, r0
10002570:	f7ff ffa0 	bl	100024b4 <read_eeprom_single_uint8>
10002574:	4306      	orrs	r6, r0
10002576:	0e33      	lsrs	r3, r6, #24
10002578:	0224      	lsls	r4, r4, #8
1000257a:	431c      	orrs	r4, r3
1000257c:	0236      	lsls	r6, r6, #8
1000257e:	1c68      	adds	r0, r5, #1
10002580:	b280      	uxth	r0, r0
10002582:	f7ff ff97 	bl	100024b4 <read_eeprom_single_uint8>
10002586:	4306      	orrs	r6, r0
10002588:	0e33      	lsrs	r3, r6, #24
1000258a:	0224      	lsls	r4, r4, #8
1000258c:	431c      	orrs	r4, r3
1000258e:	0236      	lsls	r6, r6, #8
10002590:	0028      	movs	r0, r5
10002592:	f7ff ff8f 	bl	100024b4 <read_eeprom_single_uint8>
10002596:	4330      	orrs	r0, r6
10002598:	0021      	movs	r1, r4
1000259a:	bd70      	pop	{r4, r5, r6, pc}

1000259c <save_current_to_preset>:
1000259c:	b570      	push	{r4, r5, r6, lr}
1000259e:	2807      	cmp	r0, #7
100025a0:	d90e      	bls.n	100025c0 <save_current_to_preset+0x24>
100025a2:	28ff      	cmp	r0, #255	@ 0xff
100025a4:	d02c      	beq.n	10002600 <save_current_to_preset+0x64>
100025a6:	4824      	ldr	r0, [pc, #144]	@ (10002638 <save_current_to_preset+0x9c>)
100025a8:	f005 f8f2 	bl	10007790 <__wrap_puts>
100025ac:	24d0      	movs	r4, #208	@ 0xd0
100025ae:	0624      	lsls	r4, r4, #24
100025b0:	2504      	movs	r5, #4
100025b2:	6165      	str	r5, [r4, #20]
100025b4:	2064      	movs	r0, #100	@ 0x64
100025b6:	f001 fb1f 	bl	10003bf8 <busy_wait_ms>
100025ba:	61a5      	str	r5, [r4, #24]
100025bc:	2000      	movs	r0, #0
100025be:	bd70      	pop	{r4, r5, r6, pc}
100025c0:	3001      	adds	r0, #1
100025c2:	0184      	lsls	r4, r0, #6
100025c4:	4b1d      	ldr	r3, [pc, #116]	@ (1000263c <save_current_to_preset+0xa0>)
100025c6:	7819      	ldrb	r1, [r3, #0]
100025c8:	0020      	movs	r0, r4
100025ca:	f7ff ff1d 	bl	10002408 <write_eeprom_single_uint8>
100025ce:	4b1c      	ldr	r3, [pc, #112]	@ (10002640 <save_current_to_preset+0xa4>)
100025d0:	6819      	ldr	r1, [r3, #0]
100025d2:	1c60      	adds	r0, r4, #1
100025d4:	f7ff ff42 	bl	1000245c <write_eeprom_single_uint64>
100025d8:	4b1a      	ldr	r3, [pc, #104]	@ (10002644 <save_current_to_preset+0xa8>)
100025da:	6819      	ldr	r1, [r3, #0]
100025dc:	0020      	movs	r0, r4
100025de:	3009      	adds	r0, #9
100025e0:	f7ff ff3c 	bl	1000245c <write_eeprom_single_uint64>
100025e4:	4b18      	ldr	r3, [pc, #96]	@ (10002648 <save_current_to_preset+0xac>)
100025e6:	8819      	ldrh	r1, [r3, #0]
100025e8:	0020      	movs	r0, r4
100025ea:	3011      	adds	r0, #17
100025ec:	f7ff ff2a 	bl	10002444 <write_eeprom_single_uint16>
100025f0:	4b16      	ldr	r3, [pc, #88]	@ (1000264c <save_current_to_preset+0xb0>)
100025f2:	7819      	ldrb	r1, [r3, #0]
100025f4:	0020      	movs	r0, r4
100025f6:	3013      	adds	r0, #19
100025f8:	f7ff ff06 	bl	10002408 <write_eeprom_single_uint8>
100025fc:	2001      	movs	r0, #1
100025fe:	e7de      	b.n	100025be <save_current_to_preset+0x22>
10002600:	4b0e      	ldr	r3, [pc, #56]	@ (1000263c <save_current_to_preset+0xa0>)
10002602:	7819      	ldrb	r1, [r3, #0]
10002604:	2000      	movs	r0, #0
10002606:	f7ff feff 	bl	10002408 <write_eeprom_single_uint8>
1000260a:	4b0d      	ldr	r3, [pc, #52]	@ (10002640 <save_current_to_preset+0xa4>)
1000260c:	6819      	ldr	r1, [r3, #0]
1000260e:	2001      	movs	r0, #1
10002610:	f7ff ff24 	bl	1000245c <write_eeprom_single_uint64>
10002614:	4b0b      	ldr	r3, [pc, #44]	@ (10002644 <save_current_to_preset+0xa8>)
10002616:	6819      	ldr	r1, [r3, #0]
10002618:	2009      	movs	r0, #9
1000261a:	f7ff ff1f 	bl	1000245c <write_eeprom_single_uint64>
1000261e:	4b0a      	ldr	r3, [pc, #40]	@ (10002648 <save_current_to_preset+0xac>)
10002620:	8819      	ldrh	r1, [r3, #0]
10002622:	2011      	movs	r0, #17
10002624:	f7ff ff0e 	bl	10002444 <write_eeprom_single_uint16>
10002628:	4b08      	ldr	r3, [pc, #32]	@ (1000264c <save_current_to_preset+0xb0>)
1000262a:	7819      	ldrb	r1, [r3, #0]
1000262c:	2013      	movs	r0, #19
1000262e:	f7ff feeb 	bl	10002408 <write_eeprom_single_uint8>
10002632:	2001      	movs	r0, #1
10002634:	e7c3      	b.n	100025be <save_current_to_preset+0x22>
10002636:	46c0      	nop			@ (mov r8, r8)
10002638:	1000b440 	.word	0x1000b440
1000263c:	20002554 	.word	0x20002554
10002640:	20000b60 	.word	0x20000b60
10002644:	20000b58 	.word	0x20000b58
10002648:	20000b56 	.word	0x20000b56
1000264c:	20000b50 	.word	0x20000b50

10002650 <handle_preset_switching>:
10002650:	b510      	push	{r4, lr}
10002652:	4b26      	ldr	r3, [pc, #152]	@ (100026ec <handle_preset_switching+0x9c>)
10002654:	781b      	ldrb	r3, [r3, #0]
10002656:	07da      	lsls	r2, r3, #31
10002658:	d524      	bpl.n	100026a4 <handle_preset_switching+0x54>
1000265a:	22d0      	movs	r2, #208	@ 0xd0
1000265c:	0612      	lsls	r2, r2, #24
1000265e:	2180      	movs	r1, #128	@ 0x80
10002660:	0249      	lsls	r1, r1, #9
10002662:	6151      	str	r1, [r2, #20]
10002664:	079a      	lsls	r2, r3, #30
10002666:	d523      	bpl.n	100026b0 <handle_preset_switching+0x60>
10002668:	22d0      	movs	r2, #208	@ 0xd0
1000266a:	0612      	lsls	r2, r2, #24
1000266c:	2180      	movs	r1, #128	@ 0x80
1000266e:	0289      	lsls	r1, r1, #10
10002670:	6151      	str	r1, [r2, #20]
10002672:	075b      	lsls	r3, r3, #29
10002674:	d522      	bpl.n	100026bc <handle_preset_switching+0x6c>
10002676:	23d0      	movs	r3, #208	@ 0xd0
10002678:	061b      	lsls	r3, r3, #24
1000267a:	2280      	movs	r2, #128	@ 0x80
1000267c:	02d2      	lsls	r2, r2, #11
1000267e:	615a      	str	r2, [r3, #20]
10002680:	23d0      	movs	r3, #208	@ 0xd0
10002682:	061b      	lsls	r3, r3, #24
10002684:	685b      	ldr	r3, [r3, #4]
10002686:	02db      	lsls	r3, r3, #11
10002688:	d403      	bmi.n	10002692 <handle_preset_switching+0x42>
1000268a:	4b19      	ldr	r3, [pc, #100]	@ (100026f0 <handle_preset_switching+0xa0>)
1000268c:	781b      	ldrb	r3, [r3, #0]
1000268e:	2b01      	cmp	r3, #1
10002690:	d01a      	beq.n	100026c8 <handle_preset_switching+0x78>
10002692:	23d0      	movs	r3, #208	@ 0xd0
10002694:	061b      	lsls	r3, r3, #24
10002696:	685b      	ldr	r3, [r3, #4]
10002698:	02db      	lsls	r3, r3, #11
1000269a:	d502      	bpl.n	100026a2 <handle_preset_switching+0x52>
1000269c:	4b14      	ldr	r3, [pc, #80]	@ (100026f0 <handle_preset_switching+0xa0>)
1000269e:	2201      	movs	r2, #1
100026a0:	701a      	strb	r2, [r3, #0]
100026a2:	bd10      	pop	{r4, pc}
100026a4:	22d0      	movs	r2, #208	@ 0xd0
100026a6:	0612      	lsls	r2, r2, #24
100026a8:	2180      	movs	r1, #128	@ 0x80
100026aa:	0249      	lsls	r1, r1, #9
100026ac:	6191      	str	r1, [r2, #24]
100026ae:	e7d9      	b.n	10002664 <handle_preset_switching+0x14>
100026b0:	22d0      	movs	r2, #208	@ 0xd0
100026b2:	0612      	lsls	r2, r2, #24
100026b4:	2180      	movs	r1, #128	@ 0x80
100026b6:	0289      	lsls	r1, r1, #10
100026b8:	6191      	str	r1, [r2, #24]
100026ba:	e7da      	b.n	10002672 <handle_preset_switching+0x22>
100026bc:	23d0      	movs	r3, #208	@ 0xd0
100026be:	061b      	lsls	r3, r3, #24
100026c0:	2280      	movs	r2, #128	@ 0x80
100026c2:	02d2      	lsls	r2, r2, #11
100026c4:	619a      	str	r2, [r3, #24]
100026c6:	e7db      	b.n	10002680 <handle_preset_switching+0x30>
100026c8:	2032      	movs	r0, #50	@ 0x32
100026ca:	f001 fa95 	bl	10003bf8 <busy_wait_ms>
100026ce:	4a07      	ldr	r2, [pc, #28]	@ (100026ec <handle_preset_switching+0x9c>)
100026d0:	7813      	ldrb	r3, [r2, #0]
100026d2:	3301      	adds	r3, #1
100026d4:	b2db      	uxtb	r3, r3
100026d6:	7013      	strb	r3, [r2, #0]
100026d8:	2b07      	cmp	r3, #7
100026da:	d902      	bls.n	100026e2 <handle_preset_switching+0x92>
100026dc:	0013      	movs	r3, r2
100026de:	2200      	movs	r2, #0
100026e0:	701a      	strb	r2, [r3, #0]
100026e2:	4b03      	ldr	r3, [pc, #12]	@ (100026f0 <handle_preset_switching+0xa0>)
100026e4:	2200      	movs	r2, #0
100026e6:	701a      	strb	r2, [r3, #0]
100026e8:	e7db      	b.n	100026a2 <handle_preset_switching+0x52>
100026ea:	46c0      	nop			@ (mov r8, r8)
100026ec:	20000dce 	.word	0x20000dce
100026f0:	20000dcd 	.word	0x20000dcd

100026f4 <load_preset>:
100026f4:	b570      	push	{r4, r5, r6, lr}
100026f6:	2807      	cmp	r0, #7
100026f8:	d90e      	bls.n	10002718 <load_preset+0x24>
100026fa:	28ff      	cmp	r0, #255	@ 0xff
100026fc:	d038      	beq.n	10002770 <load_preset+0x7c>
100026fe:	4830      	ldr	r0, [pc, #192]	@ (100027c0 <load_preset+0xcc>)
10002700:	f005 f846 	bl	10007790 <__wrap_puts>
10002704:	24d0      	movs	r4, #208	@ 0xd0
10002706:	0624      	lsls	r4, r4, #24
10002708:	2504      	movs	r5, #4
1000270a:	6165      	str	r5, [r4, #20]
1000270c:	2064      	movs	r0, #100	@ 0x64
1000270e:	f001 fa73 	bl	10003bf8 <busy_wait_ms>
10002712:	61a5      	str	r5, [r4, #24]
10002714:	2000      	movs	r0, #0
10002716:	bd70      	pop	{r4, r5, r6, pc}
10002718:	3001      	adds	r0, #1
1000271a:	0184      	lsls	r4, r0, #6
1000271c:	0020      	movs	r0, r4
1000271e:	f7ff fec9 	bl	100024b4 <read_eeprom_single_uint8>
10002722:	4d28      	ldr	r5, [pc, #160]	@ (100027c4 <load_preset+0xd0>)
10002724:	7028      	strb	r0, [r5, #0]
10002726:	1c60      	adds	r0, r4, #1
10002728:	f7ff fef4 	bl	10002514 <read_eeprom_single_uint64>
1000272c:	4b26      	ldr	r3, [pc, #152]	@ (100027c8 <load_preset+0xd4>)
1000272e:	6018      	str	r0, [r3, #0]
10002730:	6059      	str	r1, [r3, #4]
10002732:	0020      	movs	r0, r4
10002734:	3009      	adds	r0, #9
10002736:	f7ff feed 	bl	10002514 <read_eeprom_single_uint64>
1000273a:	4b24      	ldr	r3, [pc, #144]	@ (100027cc <load_preset+0xd8>)
1000273c:	6018      	str	r0, [r3, #0]
1000273e:	6059      	str	r1, [r3, #4]
10002740:	0020      	movs	r0, r4
10002742:	3011      	adds	r0, #17
10002744:	f7ff fed8 	bl	100024f8 <read_eeprom_single_uint16>
10002748:	4b21      	ldr	r3, [pc, #132]	@ (100027d0 <load_preset+0xdc>)
1000274a:	8018      	strh	r0, [r3, #0]
1000274c:	0020      	movs	r0, r4
1000274e:	3013      	adds	r0, #19
10002750:	f7ff feb0 	bl	100024b4 <read_eeprom_single_uint8>
10002754:	4b1f      	ldr	r3, [pc, #124]	@ (100027d4 <load_preset+0xe0>)
10002756:	7018      	strb	r0, [r3, #0]
10002758:	782b      	ldrb	r3, [r5, #0]
1000275a:	2b01      	cmp	r3, #1
1000275c:	d004      	beq.n	10002768 <load_preset+0x74>
1000275e:	2b02      	cmp	r3, #2
10002760:	d104      	bne.n	1000276c <load_preset+0x78>
10002762:	f7ff f925 	bl	100019b0 <set_RTTY_mode>
10002766:	e001      	b.n	1000276c <load_preset+0x78>
10002768:	f7ff f954 	bl	10001a14 <set_CW_mode>
1000276c:	2001      	movs	r0, #1
1000276e:	e7d2      	b.n	10002716 <load_preset+0x22>
10002770:	2000      	movs	r0, #0
10002772:	f7ff fe9f 	bl	100024b4 <read_eeprom_single_uint8>
10002776:	4c13      	ldr	r4, [pc, #76]	@ (100027c4 <load_preset+0xd0>)
10002778:	7020      	strb	r0, [r4, #0]
1000277a:	2001      	movs	r0, #1
1000277c:	f7ff feca 	bl	10002514 <read_eeprom_single_uint64>
10002780:	4b11      	ldr	r3, [pc, #68]	@ (100027c8 <load_preset+0xd4>)
10002782:	6018      	str	r0, [r3, #0]
10002784:	6059      	str	r1, [r3, #4]
10002786:	2009      	movs	r0, #9
10002788:	f7ff fec4 	bl	10002514 <read_eeprom_single_uint64>
1000278c:	4b0f      	ldr	r3, [pc, #60]	@ (100027cc <load_preset+0xd8>)
1000278e:	6018      	str	r0, [r3, #0]
10002790:	6059      	str	r1, [r3, #4]
10002792:	2011      	movs	r0, #17
10002794:	f7ff feb0 	bl	100024f8 <read_eeprom_single_uint16>
10002798:	4b0d      	ldr	r3, [pc, #52]	@ (100027d0 <load_preset+0xdc>)
1000279a:	8018      	strh	r0, [r3, #0]
1000279c:	2013      	movs	r0, #19
1000279e:	f7ff fe89 	bl	100024b4 <read_eeprom_single_uint8>
100027a2:	4b0c      	ldr	r3, [pc, #48]	@ (100027d4 <load_preset+0xe0>)
100027a4:	7018      	strb	r0, [r3, #0]
100027a6:	7823      	ldrb	r3, [r4, #0]
100027a8:	2b01      	cmp	r3, #1
100027aa:	d004      	beq.n	100027b6 <load_preset+0xc2>
100027ac:	2b02      	cmp	r3, #2
100027ae:	d104      	bne.n	100027ba <load_preset+0xc6>
100027b0:	f7ff f8fe 	bl	100019b0 <set_RTTY_mode>
100027b4:	e001      	b.n	100027ba <load_preset+0xc6>
100027b6:	f7ff f92d 	bl	10001a14 <set_CW_mode>
100027ba:	2001      	movs	r0, #1
100027bc:	e7ab      	b.n	10002716 <load_preset+0x22>
100027be:	46c0      	nop			@ (mov r8, r8)
100027c0:	1000b474 	.word	0x1000b474
100027c4:	20002554 	.word	0x20002554
100027c8:	20000b60 	.word	0x20000b60
100027cc:	20000b58 	.word	0x20000b58
100027d0:	20000b56 	.word	0x20000b56
100027d4:	20000b50 	.word	0x20000b50

100027d8 <handle_run_eeprom_btn>:
100027d8:	b5f8      	push	{r3, r4, r5, r6, r7, lr}
100027da:	23d0      	movs	r3, #208	@ 0xd0
100027dc:	061b      	lsls	r3, r3, #24
100027de:	685b      	ldr	r3, [r3, #4]
100027e0:	025b      	lsls	r3, r3, #9
100027e2:	d403      	bmi.n	100027ec <handle_run_eeprom_btn+0x14>
100027e4:	4b28      	ldr	r3, [pc, #160]	@ (10002888 <handle_run_eeprom_btn+0xb0>)
100027e6:	781b      	ldrb	r3, [r3, #0]
100027e8:	2b01      	cmp	r3, #1
100027ea:	d008      	beq.n	100027fe <handle_run_eeprom_btn+0x26>
100027ec:	23d0      	movs	r3, #208	@ 0xd0
100027ee:	061b      	lsls	r3, r3, #24
100027f0:	685b      	ldr	r3, [r3, #4]
100027f2:	025b      	lsls	r3, r3, #9
100027f4:	d502      	bpl.n	100027fc <handle_run_eeprom_btn+0x24>
100027f6:	4b24      	ldr	r3, [pc, #144]	@ (10002888 <handle_run_eeprom_btn+0xb0>)
100027f8:	2201      	movs	r2, #1
100027fa:	701a      	strb	r2, [r3, #0]
100027fc:	bdf8      	pop	{r3, r4, r5, r6, r7, pc}
100027fe:	24d0      	movs	r4, #208	@ 0xd0
10002800:	0624      	lsls	r4, r4, #24
10002802:	2780      	movs	r7, #128	@ 0x80
10002804:	027f      	lsls	r7, r7, #9
10002806:	6167      	str	r7, [r4, #20]
10002808:	2680      	movs	r6, #128	@ 0x80
1000280a:	02b6      	lsls	r6, r6, #10
1000280c:	6166      	str	r6, [r4, #20]
1000280e:	2580      	movs	r5, #128	@ 0x80
10002810:	02ed      	lsls	r5, r5, #11
10002812:	6165      	str	r5, [r4, #20]
10002814:	2064      	movs	r0, #100	@ 0x64
10002816:	f001 f9ef 	bl	10003bf8 <busy_wait_ms>
1000281a:	61a7      	str	r7, [r4, #24]
1000281c:	61a6      	str	r6, [r4, #24]
1000281e:	61a5      	str	r5, [r4, #24]
10002820:	2064      	movs	r0, #100	@ 0x64
10002822:	f001 f9e9 	bl	10003bf8 <busy_wait_ms>
10002826:	4b19      	ldr	r3, [pc, #100]	@ (1000288c <handle_run_eeprom_btn+0xb4>)
10002828:	781b      	ldrb	r3, [r3, #0]
1000282a:	07da      	lsls	r2, r3, #31
1000282c:	d519      	bpl.n	10002862 <handle_run_eeprom_btn+0x8a>
1000282e:	6167      	str	r7, [r4, #20]
10002830:	079a      	lsls	r2, r3, #30
10002832:	d51c      	bpl.n	1000286e <handle_run_eeprom_btn+0x96>
10002834:	22d0      	movs	r2, #208	@ 0xd0
10002836:	0612      	lsls	r2, r2, #24
10002838:	2180      	movs	r1, #128	@ 0x80
1000283a:	0289      	lsls	r1, r1, #10
1000283c:	6151      	str	r1, [r2, #20]
1000283e:	075b      	lsls	r3, r3, #29
10002840:	d51b      	bpl.n	1000287a <handle_run_eeprom_btn+0xa2>
10002842:	23d0      	movs	r3, #208	@ 0xd0
10002844:	061b      	lsls	r3, r3, #24
10002846:	2280      	movs	r2, #128	@ 0x80
10002848:	02d2      	lsls	r2, r2, #11
1000284a:	615a      	str	r2, [r3, #20]
1000284c:	2032      	movs	r0, #50	@ 0x32
1000284e:	f001 f9d3 	bl	10003bf8 <busy_wait_ms>
10002852:	4b0e      	ldr	r3, [pc, #56]	@ (1000288c <handle_run_eeprom_btn+0xb4>)
10002854:	7818      	ldrb	r0, [r3, #0]
10002856:	f7ff ff4d 	bl	100026f4 <load_preset>
1000285a:	4b0b      	ldr	r3, [pc, #44]	@ (10002888 <handle_run_eeprom_btn+0xb0>)
1000285c:	2200      	movs	r2, #0
1000285e:	701a      	strb	r2, [r3, #0]
10002860:	e7cc      	b.n	100027fc <handle_run_eeprom_btn+0x24>
10002862:	22d0      	movs	r2, #208	@ 0xd0
10002864:	0612      	lsls	r2, r2, #24
10002866:	2180      	movs	r1, #128	@ 0x80
10002868:	0249      	lsls	r1, r1, #9
1000286a:	6191      	str	r1, [r2, #24]
1000286c:	e7e0      	b.n	10002830 <handle_run_eeprom_btn+0x58>
1000286e:	22d0      	movs	r2, #208	@ 0xd0
10002870:	0612      	lsls	r2, r2, #24
10002872:	2180      	movs	r1, #128	@ 0x80
10002874:	0289      	lsls	r1, r1, #10
10002876:	6191      	str	r1, [r2, #24]
10002878:	e7e1      	b.n	1000283e <handle_run_eeprom_btn+0x66>
1000287a:	23d0      	movs	r3, #208	@ 0xd0
1000287c:	061b      	lsls	r3, r3, #24
1000287e:	2280      	movs	r2, #128	@ 0x80
10002880:	02d2      	lsls	r2, r2, #11
10002882:	619a      	str	r2, [r3, #24]
10002884:	e7e2      	b.n	1000284c <handle_run_eeprom_btn+0x74>
10002886:	46c0      	nop			@ (mov r8, r8)
10002888:	20000dcc 	.word	0x20000dcc
1000288c:	20000dce 	.word	0x20000dce

10002890 <gpio_set_function>:
10002890:	b510      	push	{r4, lr}
10002892:	0083      	lsls	r3, r0, #2
10002894:	4a08      	ldr	r2, [pc, #32]	@ (100028b8 <gpio_set_function+0x28>)
10002896:	4694      	mov	ip, r2
10002898:	4463      	add	r3, ip
1000289a:	681a      	ldr	r2, [r3, #0]
1000289c:	2440      	movs	r4, #64	@ 0x40
1000289e:	4062      	eors	r2, r4
100028a0:	3480      	adds	r4, #128	@ 0x80
100028a2:	4014      	ands	r4, r2
100028a4:	2280      	movs	r2, #128	@ 0x80
100028a6:	0152      	lsls	r2, r2, #5
100028a8:	4313      	orrs	r3, r2
100028aa:	601c      	str	r4, [r3, #0]
100028ac:	00c0      	lsls	r0, r0, #3
100028ae:	4b03      	ldr	r3, [pc, #12]	@ (100028bc <gpio_set_function+0x2c>)
100028b0:	469c      	mov	ip, r3
100028b2:	4460      	add	r0, ip
100028b4:	6041      	str	r1, [r0, #4]
100028b6:	bd10      	pop	{r4, pc}
100028b8:	4001c004 	.word	0x4001c004
100028bc:	40014000 	.word	0x40014000

100028c0 <gpio_set_pulls>:
100028c0:	0080      	lsls	r0, r0, #2
100028c2:	4b0b      	ldr	r3, [pc, #44]	@ (100028f0 <gpio_set_pulls+0x30>)
100028c4:	469c      	mov	ip, r3
100028c6:	4460      	add	r0, ip
100028c8:	2900      	cmp	r1, #0
100028ca:	d00d      	beq.n	100028e8 <gpio_set_pulls+0x28>
100028cc:	2308      	movs	r3, #8
100028ce:	2a00      	cmp	r2, #0
100028d0:	d00c      	beq.n	100028ec <gpio_set_pulls+0x2c>
100028d2:	2204      	movs	r2, #4
100028d4:	4313      	orrs	r3, r2
100028d6:	6802      	ldr	r2, [r0, #0]
100028d8:	4053      	eors	r3, r2
100028da:	220c      	movs	r2, #12
100028dc:	401a      	ands	r2, r3
100028de:	2380      	movs	r3, #128	@ 0x80
100028e0:	015b      	lsls	r3, r3, #5
100028e2:	4303      	orrs	r3, r0
100028e4:	601a      	str	r2, [r3, #0]
100028e6:	4770      	bx	lr
100028e8:	2300      	movs	r3, #0
100028ea:	e7f0      	b.n	100028ce <gpio_set_pulls+0xe>
100028ec:	2200      	movs	r2, #0
100028ee:	e7f1      	b.n	100028d4 <gpio_set_pulls+0x14>
100028f0:	4001c004 	.word	0x4001c004

100028f4 <gpio_init>:
100028f4:	b510      	push	{r4, lr}
100028f6:	2301      	movs	r3, #1
100028f8:	4083      	lsls	r3, r0
100028fa:	22d0      	movs	r2, #208	@ 0xd0
100028fc:	0612      	lsls	r2, r2, #24
100028fe:	6293      	str	r3, [r2, #40]	@ 0x28
10002900:	6193      	str	r3, [r2, #24]
10002902:	2105      	movs	r1, #5
10002904:	f7ff ffc4 	bl	10002890 <gpio_set_function>
10002908:	bd10      	pop	{r4, pc}
	...

1000290c <running_on_fpga>:
1000290c:	4b03      	ldr	r3, [pc, #12]	@ (1000291c <running_on_fpga+0x10>)
1000290e:	681b      	ldr	r3, [r3, #0]
10002910:	2002      	movs	r0, #2
10002912:	4018      	ands	r0, r3
10002914:	1e43      	subs	r3, r0, #1
10002916:	4198      	sbcs	r0, r3
10002918:	b2c0      	uxtb	r0, r0
1000291a:	4770      	bx	lr
1000291c:	4006c000 	.word	0x4006c000

10002920 <hw_claim_lock>:
10002920:	f3ef 8010 	mrs	r0, PRIMASK
10002924:	b672      	cpsid	i
10002926:	4b03      	ldr	r3, [pc, #12]	@ (10002934 <hw_claim_lock+0x14>)
10002928:	681b      	ldr	r3, [r3, #0]
1000292a:	2b00      	cmp	r3, #0
1000292c:	d0fb      	beq.n	10002926 <hw_claim_lock+0x6>
1000292e:	f3bf 8f5f 	dmb	sy
10002932:	4770      	bx	lr
10002934:	d000012c 	.word	0xd000012c

10002938 <hw_claim_unlock>:
10002938:	f3bf 8f5f 	dmb	sy
1000293c:	4b02      	ldr	r3, [pc, #8]	@ (10002948 <hw_claim_unlock+0x10>)
1000293e:	2200      	movs	r2, #0
10002940:	601a      	str	r2, [r3, #0]
10002942:	f380 8810 	msr	PRIMASK, r0
10002946:	4770      	bx	lr
10002948:	d000012c 	.word	0xd000012c

1000294c <hw_claim_or_assert>:
1000294c:	b5f8      	push	{r3, r4, r5, r6, r7, lr}
1000294e:	0006      	movs	r6, r0
10002950:	000c      	movs	r4, r1
10002952:	0015      	movs	r5, r2
10002954:	f7ff ffe4 	bl	10002920 <hw_claim_lock>
10002958:	08e3      	lsrs	r3, r4, #3
1000295a:	18f7      	adds	r7, r6, r3
1000295c:	5cf1      	ldrb	r1, [r6, r3]
1000295e:	2207      	movs	r2, #7
10002960:	4022      	ands	r2, r4
10002962:	2301      	movs	r3, #1
10002964:	4093      	lsls	r3, r2
10002966:	420b      	tst	r3, r1
10002968:	d105      	bne.n	10002976 <hw_claim_or_assert+0x2a>
1000296a:	b2db      	uxtb	r3, r3
1000296c:	430b      	orrs	r3, r1
1000296e:	703b      	strb	r3, [r7, #0]
10002970:	f7ff ffe2 	bl	10002938 <hw_claim_unlock>
10002974:	bdf8      	pop	{r3, r4, r5, r6, r7, pc}
10002976:	0021      	movs	r1, r4
10002978:	0028      	movs	r0, r5
1000297a:	f001 fe81 	bl	10004680 <panic>

1000297e <hw_claim_unused_from_range>:
1000297e:	b5f0      	push	{r4, r5, r6, r7, lr}
10002980:	b083      	sub	sp, #12
10002982:	0006      	movs	r6, r0
10002984:	9101      	str	r1, [sp, #4]
10002986:	0014      	movs	r4, r2
10002988:	001f      	movs	r7, r3
1000298a:	f7ff ffc9 	bl	10002920 <hw_claim_lock>
1000298e:	e000      	b.n	10002992 <hw_claim_unused_from_range+0x14>
10002990:	3401      	adds	r4, #1
10002992:	42bc      	cmp	r4, r7
10002994:	d80c      	bhi.n	100029b0 <hw_claim_unused_from_range+0x32>
10002996:	08e3      	lsrs	r3, r4, #3
10002998:	18f5      	adds	r5, r6, r3
1000299a:	5cf3      	ldrb	r3, [r6, r3]
1000299c:	2107      	movs	r1, #7
1000299e:	4021      	ands	r1, r4
100029a0:	2201      	movs	r2, #1
100029a2:	408a      	lsls	r2, r1
100029a4:	421a      	tst	r2, r3
100029a6:	d1f3      	bne.n	10002990 <hw_claim_unused_from_range+0x12>
100029a8:	b2d2      	uxtb	r2, r2
100029aa:	431a      	orrs	r2, r3
100029ac:	702a      	strb	r2, [r5, #0]
100029ae:	e001      	b.n	100029b4 <hw_claim_unused_from_range+0x36>
100029b0:	2401      	movs	r4, #1
100029b2:	4264      	negs	r4, r4
100029b4:	f7ff ffc0 	bl	10002938 <hw_claim_unlock>
100029b8:	2c00      	cmp	r4, #0
100029ba:	db02      	blt.n	100029c2 <hw_claim_unused_from_range+0x44>
100029bc:	0020      	movs	r0, r4
100029be:	b003      	add	sp, #12
100029c0:	bdf0      	pop	{r4, r5, r6, r7, pc}
100029c2:	9b01      	ldr	r3, [sp, #4]
100029c4:	2b00      	cmp	r3, #0
100029c6:	d0f9      	beq.n	100029bc <hw_claim_unused_from_range+0x3e>
100029c8:	9808      	ldr	r0, [sp, #32]
100029ca:	f001 fe59 	bl	10004680 <panic>
	...

100029d0 <spin_locks_reset>:
100029d0:	2300      	movs	r3, #0
100029d2:	e007      	b.n	100029e4 <spin_locks_reset+0x14>
100029d4:	4a05      	ldr	r2, [pc, #20]	@ (100029ec <spin_locks_reset+0x1c>)
100029d6:	189a      	adds	r2, r3, r2
100029d8:	0092      	lsls	r2, r2, #2
100029da:	f3bf 8f5f 	dmb	sy
100029de:	2100      	movs	r1, #0
100029e0:	6011      	str	r1, [r2, #0]
100029e2:	3301      	adds	r3, #1
100029e4:	2b1f      	cmp	r3, #31
100029e6:	d9f5      	bls.n	100029d4 <spin_locks_reset+0x4>
100029e8:	4770      	bx	lr
100029ea:	46c0      	nop			@ (mov r8, r8)
100029ec:	34000040 	.word	0x34000040

100029f0 <next_striped_spin_lock_num>:
100029f0:	4a05      	ldr	r2, [pc, #20]	@ (10002a08 <next_striped_spin_lock_num+0x18>)
100029f2:	7810      	ldrb	r0, [r2, #0]
100029f4:	1c43      	adds	r3, r0, #1
100029f6:	b2db      	uxtb	r3, r3
100029f8:	7013      	strb	r3, [r2, #0]
100029fa:	2b17      	cmp	r3, #23
100029fc:	d902      	bls.n	10002a04 <next_striped_spin_lock_num+0x14>
100029fe:	0013      	movs	r3, r2
10002a00:	2210      	movs	r2, #16
10002a02:	701a      	strb	r2, [r3, #0]
10002a04:	4770      	bx	lr
10002a06:	46c0      	nop			@ (mov r8, r8)
10002a08:	20000dcf 	.word	0x20000dcf

10002a0c <spin_lock_claim_unused>:
10002a0c:	b510      	push	{r4, lr}
10002a0e:	b082      	sub	sp, #8
10002a10:	0001      	movs	r1, r0
10002a12:	4c05      	ldr	r4, [pc, #20]	@ (10002a28 <spin_lock_claim_unused+0x1c>)
10002a14:	4b05      	ldr	r3, [pc, #20]	@ (10002a2c <spin_lock_claim_unused+0x20>)
10002a16:	9300      	str	r3, [sp, #0]
10002a18:	231f      	movs	r3, #31
10002a1a:	2218      	movs	r2, #24
10002a1c:	0020      	movs	r0, r4
10002a1e:	f7ff ffae 	bl	1000297e <hw_claim_unused_from_range>
10002a22:	b002      	add	sp, #8
10002a24:	bd10      	pop	{r4, pc}
10002a26:	46c0      	nop			@ (mov r8, r8)
10002a28:	20001df0 	.word	0x20001df0
10002a2c:	1000b4a8 	.word	0x1000b4a8

10002a30 <set_raw_irq_handler_and_unlock>:
10002a30:	4b07      	ldr	r3, [pc, #28]	@ (10002a50 <set_raw_irq_handler_and_unlock+0x20>)
10002a32:	689b      	ldr	r3, [r3, #8]
10002a34:	3010      	adds	r0, #16
10002a36:	0080      	lsls	r0, r0, #2
10002a38:	5019      	str	r1, [r3, r0]
10002a3a:	f3bf 8f5f 	dmb	sy
10002a3e:	f3bf 8f5f 	dmb	sy
10002a42:	4b04      	ldr	r3, [pc, #16]	@ (10002a54 <set_raw_irq_handler_and_unlock+0x24>)
10002a44:	2100      	movs	r1, #0
10002a46:	6019      	str	r1, [r3, #0]
10002a48:	f382 8810 	msr	PRIMASK, r2
10002a4c:	4770      	bx	lr
10002a4e:	46c0      	nop			@ (mov r8, r8)
10002a50:	e000ed00 	.word	0xe000ed00
10002a54:	d0000124 	.word	0xd0000124

10002a58 <resolve_branch>:
10002a58:	b510      	push	{r4, lr}
10002a5a:	8803      	ldrh	r3, [r0, #0]
10002a5c:	0ada      	lsrs	r2, r3, #11
10002a5e:	2a1c      	cmp	r2, #28
10002a60:	d105      	bne.n	10002a6e <resolve_branch+0x16>
10002a62:	055b      	lsls	r3, r3, #21
10002a64:	155b      	asrs	r3, r3, #21
10002a66:	3302      	adds	r3, #2
10002a68:	005b      	lsls	r3, r3, #1
10002a6a:	18c0      	adds	r0, r0, r3
10002a6c:	bd10      	pop	{r4, pc}
10002a6e:	4b03      	ldr	r3, [pc, #12]	@ (10002a7c <resolve_branch+0x24>)
10002a70:	4a03      	ldr	r2, [pc, #12]	@ (10002a80 <resolve_branch+0x28>)
10002a72:	4804      	ldr	r0, [pc, #16]	@ (10002a84 <resolve_branch+0x2c>)
10002a74:	21b1      	movs	r1, #177	@ 0xb1
10002a76:	f001 fd6b 	bl	10004550 <__assert_func>
10002a7a:	46c0      	nop			@ (mov r8, r8)
10002a7c:	1000b4c4 	.word	0x1000b4c4
10002a80:	1000c478 	.word	0x1000c478
10002a84:	1000b4dc 	.word	0x1000b4dc

10002a88 <make_branch>:
10002a88:	b510      	push	{r4, lr}
10002a8a:	1a09      	subs	r1, r1, r0
10002a8c:	1f0b      	subs	r3, r1, #4
10002a8e:	4a0a      	ldr	r2, [pc, #40]	@ (10002ab8 <make_branch+0x30>)
10002a90:	1888      	adds	r0, r1, r2
10002a92:	4a0a      	ldr	r2, [pc, #40]	@ (10002abc <make_branch+0x34>)
10002a94:	4290      	cmp	r0, r2
10002a96:	d808      	bhi.n	10002aaa <make_branch+0x22>
10002a98:	07c9      	lsls	r1, r1, #31
10002a9a:	d406      	bmi.n	10002aaa <make_branch+0x22>
10002a9c:	105b      	asrs	r3, r3, #1
10002a9e:	055b      	lsls	r3, r3, #21
10002aa0:	0d5b      	lsrs	r3, r3, #21
10002aa2:	4807      	ldr	r0, [pc, #28]	@ (10002ac0 <make_branch+0x38>)
10002aa4:	4318      	orrs	r0, r3
10002aa6:	b280      	uxth	r0, r0
10002aa8:	bd10      	pop	{r4, pc}
10002aaa:	4b06      	ldr	r3, [pc, #24]	@ (10002ac4 <make_branch+0x3c>)
10002aac:	4a06      	ldr	r2, [pc, #24]	@ (10002ac8 <make_branch+0x40>)
10002aae:	4807      	ldr	r0, [pc, #28]	@ (10002acc <make_branch+0x44>)
10002ab0:	21a3      	movs	r1, #163	@ 0xa3
10002ab2:	f001 fd4d 	bl	10004550 <__assert_func>
10002ab6:	46c0      	nop			@ (mov r8, r8)
10002ab8:	000007fc 	.word	0x000007fc
10002abc:	00000ffe 	.word	0x00000ffe
10002ac0:	ffffe000 	.word	0xffffe000
10002ac4:	1000b51c 	.word	0x1000b51c
10002ac8:	1000c46c 	.word	0x1000c46c
10002acc:	1000b4dc 	.word	0x1000b4dc

10002ad0 <insert_branch_and_link>:
10002ad0:	b510      	push	{r4, lr}
10002ad2:	1a09      	subs	r1, r1, r0
10002ad4:	3904      	subs	r1, #4
10002ad6:	084a      	lsrs	r2, r1, #1
10002ad8:	0b09      	lsrs	r1, r1, #12
10002ada:	d108      	bne.n	10002aee <insert_branch_and_link+0x1e>
10002adc:	0549      	lsls	r1, r1, #21
10002ade:	0d49      	lsrs	r1, r1, #21
10002ae0:	4b06      	ldr	r3, [pc, #24]	@ (10002afc <insert_branch_and_link+0x2c>)
10002ae2:	430b      	orrs	r3, r1
10002ae4:	8003      	strh	r3, [r0, #0]
10002ae6:	4b06      	ldr	r3, [pc, #24]	@ (10002b00 <insert_branch_and_link+0x30>)
10002ae8:	4313      	orrs	r3, r2
10002aea:	8043      	strh	r3, [r0, #2]
10002aec:	bd10      	pop	{r4, pc}
10002aee:	4b05      	ldr	r3, [pc, #20]	@ (10002b04 <insert_branch_and_link+0x34>)
10002af0:	4a05      	ldr	r2, [pc, #20]	@ (10002b08 <insert_branch_and_link+0x38>)
10002af2:	4806      	ldr	r0, [pc, #24]	@ (10002b0c <insert_branch_and_link+0x3c>)
10002af4:	21ab      	movs	r1, #171	@ 0xab
10002af6:	f001 fd2b 	bl	10004550 <__assert_func>
10002afa:	46c0      	nop			@ (mov r8, r8)
10002afc:	fffff000 	.word	0xfffff000
10002b00:	fffff800 	.word	0xfffff800
10002b04:	1000b54c 	.word	0x1000b54c
10002b08:	1000c440 	.word	0x1000c440
10002b0c:	1000b4dc 	.word	0x1000b4dc

10002b10 <irq_is_enabled>:
10002b10:	2301      	movs	r3, #1
10002b12:	4083      	lsls	r3, r0
10002b14:	4a03      	ldr	r2, [pc, #12]	@ (10002b24 <irq_is_enabled+0x14>)
10002b16:	6810      	ldr	r0, [r2, #0]
10002b18:	4018      	ands	r0, r3
10002b1a:	1e43      	subs	r3, r0, #1
10002b1c:	4198      	sbcs	r0, r3
10002b1e:	b2c0      	uxtb	r0, r0
10002b20:	4770      	bx	lr
10002b22:	46c0      	nop			@ (mov r8, r8)
10002b24:	e000e100 	.word	0xe000e100

10002b28 <irq_set_mask_enabled>:
10002b28:	2900      	cmp	r1, #0
10002b2a:	d004      	beq.n	10002b36 <irq_set_mask_enabled+0xe>
10002b2c:	4b03      	ldr	r3, [pc, #12]	@ (10002b3c <irq_set_mask_enabled+0x14>)
10002b2e:	6018      	str	r0, [r3, #0]
10002b30:	4b03      	ldr	r3, [pc, #12]	@ (10002b40 <irq_set_mask_enabled+0x18>)
10002b32:	6018      	str	r0, [r3, #0]
10002b34:	4770      	bx	lr
10002b36:	4b03      	ldr	r3, [pc, #12]	@ (10002b44 <irq_set_mask_enabled+0x1c>)
10002b38:	6018      	str	r0, [r3, #0]
10002b3a:	e7fb      	b.n	10002b34 <irq_set_mask_enabled+0xc>
10002b3c:	e000e280 	.word	0xe000e280
10002b40:	e000e100 	.word	0xe000e100
10002b44:	e000e180 	.word	0xe000e180

10002b48 <irq_set_enabled>:
10002b48:	b510      	push	{r4, lr}
10002b4a:	2301      	movs	r3, #1
10002b4c:	4083      	lsls	r3, r0
10002b4e:	0018      	movs	r0, r3
10002b50:	f7ff ffea 	bl	10002b28 <irq_set_mask_enabled>
10002b54:	bd10      	pop	{r4, pc}
	...

10002b58 <irq_set_pending>:
10002b58:	2301      	movs	r3, #1
10002b5a:	4083      	lsls	r3, r0
10002b5c:	4a01      	ldr	r2, [pc, #4]	@ (10002b64 <irq_set_pending+0xc>)
10002b5e:	6013      	str	r3, [r2, #0]
10002b60:	4770      	bx	lr
10002b62:	46c0      	nop			@ (mov r8, r8)
10002b64:	e000e200 	.word	0xe000e200

10002b68 <irq_get_vtable_handler>:
10002b68:	4b02      	ldr	r3, [pc, #8]	@ (10002b74 <irq_get_vtable_handler+0xc>)
10002b6a:	689b      	ldr	r3, [r3, #8]
10002b6c:	3010      	adds	r0, #16
10002b6e:	0080      	lsls	r0, r0, #2
10002b70:	58c0      	ldr	r0, [r0, r3]
10002b72:	4770      	bx	lr
10002b74:	e000ed00 	.word	0xe000ed00

10002b78 <irq_has_shared_handler>:
10002b78:	b510      	push	{r4, lr}
10002b7a:	f7ff fff5 	bl	10002b68 <irq_get_vtable_handler>
10002b7e:	2800      	cmp	r0, #0
10002b80:	d005      	beq.n	10002b8e <irq_has_shared_handler+0x16>
10002b82:	4b05      	ldr	r3, [pc, #20]	@ (10002b98 <irq_has_shared_handler+0x20>)
10002b84:	1ac0      	subs	r0, r0, r3
10002b86:	282f      	cmp	r0, #47	@ 0x2f
10002b88:	d803      	bhi.n	10002b92 <irq_has_shared_handler+0x1a>
10002b8a:	2001      	movs	r0, #1
10002b8c:	bd10      	pop	{r4, pc}
10002b8e:	2000      	movs	r0, #0
10002b90:	e7fc      	b.n	10002b8c <irq_has_shared_handler+0x14>
10002b92:	2000      	movs	r0, #0
10002b94:	e7fa      	b.n	10002b8c <irq_has_shared_handler+0x14>
10002b96:	46c0      	nop			@ (mov r8, r8)
10002b98:	20000dd0 	.word	0x20000dd0

10002b9c <irq_set_exclusive_handler>:
10002b9c:	b570      	push	{r4, r5, r6, lr}
10002b9e:	0004      	movs	r4, r0
10002ba0:	000d      	movs	r5, r1
10002ba2:	f3ef 8610 	mrs	r6, PRIMASK
10002ba6:	b672      	cpsid	i
10002ba8:	4b0c      	ldr	r3, [pc, #48]	@ (10002bdc <irq_set_exclusive_handler+0x40>)
10002baa:	681b      	ldr	r3, [r3, #0]
10002bac:	2b00      	cmp	r3, #0
10002bae:	d0fb      	beq.n	10002ba8 <irq_set_exclusive_handler+0xc>
10002bb0:	f3bf 8f5f 	dmb	sy
10002bb4:	0020      	movs	r0, r4
10002bb6:	f7ff ffd7 	bl	10002b68 <irq_get_vtable_handler>
10002bba:	4b09      	ldr	r3, [pc, #36]	@ (10002be0 <irq_set_exclusive_handler+0x44>)
10002bbc:	4298      	cmp	r0, r3
10002bbe:	d001      	beq.n	10002bc4 <irq_set_exclusive_handler+0x28>
10002bc0:	42a8      	cmp	r0, r5
10002bc2:	d105      	bne.n	10002bd0 <irq_set_exclusive_handler+0x34>
10002bc4:	0032      	movs	r2, r6
10002bc6:	0029      	movs	r1, r5
10002bc8:	0020      	movs	r0, r4
10002bca:	f7ff ff31 	bl	10002a30 <set_raw_irq_handler_and_unlock>
10002bce:	bd70      	pop	{r4, r5, r6, pc}
10002bd0:	4b04      	ldr	r3, [pc, #16]	@ (10002be4 <irq_set_exclusive_handler+0x48>)
10002bd2:	4a05      	ldr	r2, [pc, #20]	@ (10002be8 <irq_set_exclusive_handler+0x4c>)
10002bd4:	4805      	ldr	r0, [pc, #20]	@ (10002bec <irq_set_exclusive_handler+0x50>)
10002bd6:	2186      	movs	r1, #134	@ 0x86
10002bd8:	f001 fcba 	bl	10004550 <__assert_func>
10002bdc:	d0000124 	.word	0xd0000124
10002be0:	100001cd 	.word	0x100001cd
10002be4:	1000b55c 	.word	0x1000b55c
10002be8:	1000c4a0 	.word	0x1000c4a0
10002bec:	1000b4dc 	.word	0x1000b4dc

10002bf0 <irq_add_shared_handler>:
10002bf0:	b5f0      	push	{r4, r5, r6, r7, lr}
10002bf2:	46de      	mov	lr, fp
10002bf4:	4657      	mov	r7, sl
10002bf6:	464e      	mov	r6, r9
10002bf8:	4645      	mov	r5, r8
10002bfa:	b5e0      	push	{r5, r6, r7, lr}
10002bfc:	b089      	sub	sp, #36	@ 0x24
10002bfe:	4681      	mov	r9, r0
10002c00:	9101      	str	r1, [sp, #4]
10002c02:	0015      	movs	r5, r2
10002c04:	f3ef 8a10 	mrs	sl, PRIMASK
10002c08:	b672      	cpsid	i
10002c0a:	4b6d      	ldr	r3, [pc, #436]	@ (10002dc0 <irq_add_shared_handler+0x1d0>)
10002c0c:	681b      	ldr	r3, [r3, #0]
10002c0e:	2b00      	cmp	r3, #0
10002c10:	d0fb      	beq.n	10002c0a <irq_add_shared_handler+0x1a>
10002c12:	f3bf 8f5f 	dmb	sy
10002c16:	4b6b      	ldr	r3, [pc, #428]	@ (10002dc4 <irq_add_shared_handler+0x1d4>)
10002c18:	2600      	movs	r6, #0
10002c1a:	579e      	ldrsb	r6, [r3, r6]
10002c1c:	2e00      	cmp	r6, #0
10002c1e:	db41      	blt.n	10002ca4 <irq_add_shared_handler+0xb4>
10002c20:	0074      	lsls	r4, r6, #1
10002c22:	19a4      	adds	r4, r4, r6
10002c24:	00a4      	lsls	r4, r4, #2
10002c26:	4868      	ldr	r0, [pc, #416]	@ (10002dc8 <irq_add_shared_handler+0x1d8>)
10002c28:	1824      	adds	r4, r4, r0
10002c2a:	2206      	movs	r2, #6
10002c2c:	56a2      	ldrsb	r2, [r4, r2]
10002c2e:	4b65      	ldr	r3, [pc, #404]	@ (10002dc4 <irq_add_shared_handler+0x1d4>)
10002c30:	701a      	strb	r2, [r3, #0]
10002c32:	4b66      	ldr	r3, [pc, #408]	@ (10002dcc <irq_add_shared_handler+0x1dc>)
10002c34:	689a      	ldr	r2, [r3, #8]
10002c36:	464b      	mov	r3, r9
10002c38:	3310      	adds	r3, #16
10002c3a:	009b      	lsls	r3, r3, #2
10002c3c:	58d3      	ldr	r3, [r2, r3]
10002c3e:	4698      	mov	r8, r3
10002c40:	001f      	movs	r7, r3
10002c42:	1a18      	subs	r0, r3, r0
10002c44:	282f      	cmp	r0, #47	@ 0x2f
10002c46:	d939      	bls.n	10002cbc <irq_add_shared_handler+0xcc>
10002c48:	4b61      	ldr	r3, [pc, #388]	@ (10002dd0 <irq_add_shared_handler+0x1e0>)
10002c4a:	4598      	cmp	r8, r3
10002c4c:	d130      	bne.n	10002cb0 <irq_add_shared_handler+0xc0>
10002c4e:	af05      	add	r7, sp, #20
10002c50:	4b60      	ldr	r3, [pc, #384]	@ (10002dd4 <irq_add_shared_handler+0x1e4>)
10002c52:	803b      	strh	r3, [r7, #0]
10002c54:	4960      	ldr	r1, [pc, #384]	@ (10002dd8 <irq_add_shared_handler+0x1e8>)
10002c56:	0073      	lsls	r3, r6, #1
10002c58:	469b      	mov	fp, r3
10002c5a:	1998      	adds	r0, r3, r6
10002c5c:	0080      	lsls	r0, r0, #2
10002c5e:	4b5a      	ldr	r3, [pc, #360]	@ (10002dc8 <irq_add_shared_handler+0x1d8>)
10002c60:	4698      	mov	r8, r3
10002c62:	4440      	add	r0, r8
10002c64:	3002      	adds	r0, #2
10002c66:	f7ff ff0f 	bl	10002a88 <make_branch>
10002c6a:	8078      	strh	r0, [r7, #2]
10002c6c:	4b5b      	ldr	r3, [pc, #364]	@ (10002ddc <irq_add_shared_handler+0x1ec>)
10002c6e:	80bb      	strh	r3, [r7, #4]
10002c70:	23ff      	movs	r3, #255	@ 0xff
10002c72:	71bb      	strb	r3, [r7, #6]
10002c74:	71fd      	strb	r5, [r7, #7]
10002c76:	9b01      	ldr	r3, [sp, #4]
10002c78:	9307      	str	r3, [sp, #28]
10002c7a:	0033      	movs	r3, r6
10002c7c:	445b      	add	r3, fp
10002c7e:	009b      	lsls	r3, r3, #2
10002c80:	4443      	add	r3, r8
10002c82:	cf07      	ldmia	r7!, {r0, r1, r2}
10002c84:	c307      	stmia	r3!, {r0, r1, r2}
10002c86:	2301      	movs	r3, #1
10002c88:	431c      	orrs	r4, r3
10002c8a:	46a0      	mov	r8, r4
10002c8c:	4652      	mov	r2, sl
10002c8e:	4641      	mov	r1, r8
10002c90:	4648      	mov	r0, r9
10002c92:	f7ff fecd 	bl	10002a30 <set_raw_irq_handler_and_unlock>
10002c96:	b009      	add	sp, #36	@ 0x24
10002c98:	bcf0      	pop	{r4, r5, r6, r7}
10002c9a:	46bb      	mov	fp, r7
10002c9c:	46b2      	mov	sl, r6
10002c9e:	46a9      	mov	r9, r5
10002ca0:	46a0      	mov	r8, r4
10002ca2:	bdf0      	pop	{r4, r5, r6, r7, pc}
10002ca4:	4b4e      	ldr	r3, [pc, #312]	@ (10002de0 <irq_add_shared_handler+0x1f0>)
10002ca6:	4a4f      	ldr	r2, [pc, #316]	@ (10002de4 <irq_add_shared_handler+0x1f4>)
10002ca8:	484f      	ldr	r0, [pc, #316]	@ (10002de8 <irq_add_shared_handler+0x1f8>)
10002caa:	21d7      	movs	r1, #215	@ 0xd7
10002cac:	f001 fc50 	bl	10004550 <__assert_func>
10002cb0:	4b4e      	ldr	r3, [pc, #312]	@ (10002dec <irq_add_shared_handler+0x1fc>)
10002cb2:	4a4c      	ldr	r2, [pc, #304]	@ (10002de4 <irq_add_shared_handler+0x1f4>)
10002cb4:	484c      	ldr	r0, [pc, #304]	@ (10002de8 <irq_add_shared_handler+0x1f8>)
10002cb6:	21de      	movs	r1, #222	@ 0xde
10002cb8:	f001 fc4a 	bl	10004550 <__assert_func>
10002cbc:	3801      	subs	r0, #1
10002cbe:	210c      	movs	r1, #12
10002cc0:	f002 fe2e 	bl	10005920 <__wrap___aeabi_uidiv>
10002cc4:	2900      	cmp	r1, #0
10002cc6:	d112      	bne.n	10002cee <irq_add_shared_handler+0xfe>
10002cc8:	2301      	movs	r3, #1
10002cca:	439f      	bics	r7, r3
10002ccc:	46bb      	mov	fp, r7
10002cce:	003b      	movs	r3, r7
10002cd0:	2700      	movs	r7, #0
10002cd2:	79da      	ldrb	r2, [r3, #7]
10002cd4:	42aa      	cmp	r2, r5
10002cd6:	d911      	bls.n	10002cfc <irq_add_shared_handler+0x10c>
10002cd8:	2106      	movs	r1, #6
10002cda:	5659      	ldrsb	r1, [r3, r1]
10002cdc:	2900      	cmp	r1, #0
10002cde:	db0c      	blt.n	10002cfa <irq_add_shared_handler+0x10a>
10002ce0:	004a      	lsls	r2, r1, #1
10002ce2:	1852      	adds	r2, r2, r1
10002ce4:	0092      	lsls	r2, r2, #2
10002ce6:	4938      	ldr	r1, [pc, #224]	@ (10002dc8 <irq_add_shared_handler+0x1d8>)
10002ce8:	001f      	movs	r7, r3
10002cea:	188b      	adds	r3, r1, r2
10002cec:	e7f1      	b.n	10002cd2 <irq_add_shared_handler+0xe2>
10002cee:	4b40      	ldr	r3, [pc, #256]	@ (10002df0 <irq_add_shared_handler+0x200>)
10002cf0:	4a3c      	ldr	r2, [pc, #240]	@ (10002de4 <irq_add_shared_handler+0x1f4>)
10002cf2:	483d      	ldr	r0, [pc, #244]	@ (10002de8 <irq_add_shared_handler+0x1f8>)
10002cf4:	21ea      	movs	r1, #234	@ 0xea
10002cf6:	f001 fc2b 	bl	10004550 <__assert_func>
10002cfa:	001f      	movs	r7, r3
10002cfc:	2f00      	cmp	r7, #0
10002cfe:	d02e      	beq.n	10002d5e <irq_add_shared_handler+0x16e>
10002d00:	ab05      	add	r3, sp, #20
10002d02:	4a3c      	ldr	r2, [pc, #240]	@ (10002df4 <irq_add_shared_handler+0x204>)
10002d04:	801a      	strh	r2, [r3, #0]
10002d06:	3a81      	subs	r2, #129	@ 0x81
10002d08:	805a      	strh	r2, [r3, #2]
10002d0a:	2306      	movs	r3, #6
10002d0c:	56fb      	ldrsb	r3, [r7, r3]
10002d0e:	9302      	str	r3, [sp, #8]
10002d10:	2b00      	cmp	r3, #0
10002d12:	da17      	bge.n	10002d44 <irq_add_shared_handler+0x154>
10002d14:	4838      	ldr	r0, [pc, #224]	@ (10002df8 <irq_add_shared_handler+0x208>)
10002d16:	ab05      	add	r3, sp, #20
10002d18:	469b      	mov	fp, r3
10002d1a:	8098      	strh	r0, [r3, #4]
10002d1c:	9a02      	ldr	r2, [sp, #8]
10002d1e:	719a      	strb	r2, [r3, #6]
10002d20:	71dd      	strb	r5, [r3, #7]
10002d22:	9a01      	ldr	r2, [sp, #4]
10002d24:	9207      	str	r2, [sp, #28]
10002d26:	1d38      	adds	r0, r7, #4
10002d28:	0021      	movs	r1, r4
10002d2a:	f7ff fead 	bl	10002a88 <make_branch>
10002d2e:	80b8      	strh	r0, [r7, #4]
10002d30:	71be      	strb	r6, [r7, #6]
10002d32:	4b25      	ldr	r3, [pc, #148]	@ (10002dc8 <irq_add_shared_handler+0x1d8>)
10002d34:	0072      	lsls	r2, r6, #1
10002d36:	1992      	adds	r2, r2, r6
10002d38:	0092      	lsls	r2, r2, #2
10002d3a:	189b      	adds	r3, r3, r2
10002d3c:	465a      	mov	r2, fp
10002d3e:	ca13      	ldmia	r2!, {r0, r1, r4}
10002d40:	c313      	stmia	r3!, {r0, r1, r4}
10002d42:	e7a3      	b.n	10002c8c <irq_add_shared_handler+0x9c>
10002d44:	1d38      	adds	r0, r7, #4
10002d46:	f7ff fe87 	bl	10002a58 <resolve_branch>
10002d4a:	0001      	movs	r1, r0
10002d4c:	0070      	lsls	r0, r6, #1
10002d4e:	1980      	adds	r0, r0, r6
10002d50:	0080      	lsls	r0, r0, #2
10002d52:	4b1d      	ldr	r3, [pc, #116]	@ (10002dc8 <irq_add_shared_handler+0x1d8>)
10002d54:	18c0      	adds	r0, r0, r3
10002d56:	3004      	adds	r0, #4
10002d58:	f7ff fe96 	bl	10002a88 <make_branch>
10002d5c:	e7db      	b.n	10002d16 <irq_add_shared_handler+0x126>
10002d5e:	af05      	add	r7, sp, #20
10002d60:	4b1c      	ldr	r3, [pc, #112]	@ (10002dd4 <irq_add_shared_handler+0x1e4>)
10002d62:	803b      	strh	r3, [r7, #0]
10002d64:	491c      	ldr	r1, [pc, #112]	@ (10002dd8 <irq_add_shared_handler+0x1e8>)
10002d66:	0073      	lsls	r3, r6, #1
10002d68:	9302      	str	r3, [sp, #8]
10002d6a:	199b      	adds	r3, r3, r6
10002d6c:	009b      	lsls	r3, r3, #2
10002d6e:	4a16      	ldr	r2, [pc, #88]	@ (10002dc8 <irq_add_shared_handler+0x1d8>)
10002d70:	4690      	mov	r8, r2
10002d72:	001a      	movs	r2, r3
10002d74:	4442      	add	r2, r8
10002d76:	9203      	str	r2, [sp, #12]
10002d78:	1c90      	adds	r0, r2, #2
10002d7a:	f7ff fe85 	bl	10002a88 <make_branch>
10002d7e:	8078      	strh	r0, [r7, #2]
10002d80:	9a03      	ldr	r2, [sp, #12]
10002d82:	1d10      	adds	r0, r2, #4
10002d84:	4659      	mov	r1, fp
10002d86:	f7ff fe7f 	bl	10002a88 <make_branch>
10002d8a:	80b8      	strh	r0, [r7, #4]
10002d8c:	4b1b      	ldr	r3, [pc, #108]	@ (10002dfc <irq_add_shared_handler+0x20c>)
10002d8e:	465a      	mov	r2, fp
10002d90:	4641      	mov	r1, r8
10002d92:	1a52      	subs	r2, r2, r1
10002d94:	4152      	adcs	r2, r2
10002d96:	4353      	muls	r3, r2
10002d98:	0d1b      	lsrs	r3, r3, #20
10002d9a:	71bb      	strb	r3, [r7, #6]
10002d9c:	71fd      	strb	r5, [r7, #7]
10002d9e:	9a01      	ldr	r2, [sp, #4]
10002da0:	9207      	str	r2, [sp, #28]
10002da2:	9b02      	ldr	r3, [sp, #8]
10002da4:	199b      	adds	r3, r3, r6
10002da6:	009b      	lsls	r3, r3, #2
10002da8:	4443      	add	r3, r8
10002daa:	cf07      	ldmia	r7!, {r0, r1, r2}
10002dac:	c307      	stmia	r3!, {r0, r1, r2}
10002dae:	4b11      	ldr	r3, [pc, #68]	@ (10002df4 <irq_add_shared_handler+0x204>)
10002db0:	465a      	mov	r2, fp
10002db2:	8013      	strh	r3, [r2, #0]
10002db4:	3b81      	subs	r3, #129	@ 0x81
10002db6:	8053      	strh	r3, [r2, #2]
10002db8:	2301      	movs	r3, #1
10002dba:	431c      	orrs	r4, r3
10002dbc:	46a0      	mov	r8, r4
10002dbe:	e765      	b.n	10002c8c <irq_add_shared_handler+0x9c>
10002dc0:	d0000124 	.word	0xd0000124
10002dc4:	20002555 	.word	0x20002555
10002dc8:	20000dd0 	.word	0x20000dd0
10002dcc:	e000ed00 	.word	0xe000ed00
10002dd0:	100001cd 	.word	0x100001cd
10002dd4:	ffffa100 	.word	0xffffa100
10002dd8:	20000e00 	.word	0x20000e00
10002ddc:	ffffbd01 	.word	0xffffbd01
10002de0:	1000b594 	.word	0x1000b594
10002de4:	1000c488 	.word	0x1000c488
10002de8:	1000b4dc 	.word	0x1000b4dc
10002dec:	1000b5bc 	.word	0x1000b5bc
10002df0:	1000b5e4 	.word	0x1000b5e4
10002df4:	00004801 	.word	0x00004801
10002df8:	0000bd01 	.word	0x0000bd01
10002dfc:	0000aaaa 	.word	0x0000aaaa

10002e00 <irq_remove_handler>:
10002e00:	b5f0      	push	{r4, r5, r6, r7, lr}
10002e02:	46ce      	mov	lr, r9
10002e04:	4647      	mov	r7, r8
10002e06:	b580      	push	{r7, lr}
10002e08:	b083      	sub	sp, #12
10002e0a:	0006      	movs	r6, r0
10002e0c:	000d      	movs	r5, r1
10002e0e:	f3ef 8810 	mrs	r8, PRIMASK
10002e12:	b672      	cpsid	i
10002e14:	4b4f      	ldr	r3, [pc, #316]	@ (10002f54 <irq_remove_handler+0x154>)
10002e16:	681b      	ldr	r3, [r3, #0]
10002e18:	2b00      	cmp	r3, #0
10002e1a:	d0fb      	beq.n	10002e14 <irq_remove_handler+0x14>
10002e1c:	f3bf 8f5f 	dmb	sy
10002e20:	4b4d      	ldr	r3, [pc, #308]	@ (10002f58 <irq_remove_handler+0x158>)
10002e22:	689a      	ldr	r2, [r3, #8]
10002e24:	0034      	movs	r4, r6
10002e26:	3410      	adds	r4, #16
10002e28:	00a3      	lsls	r3, r4, #2
10002e2a:	58d7      	ldr	r7, [r2, r3]
10002e2c:	4b4b      	ldr	r3, [pc, #300]	@ (10002f5c <irq_remove_handler+0x15c>)
10002e2e:	429f      	cmp	r7, r3
10002e30:	d007      	beq.n	10002e42 <irq_remove_handler+0x42>
10002e32:	42af      	cmp	r7, r5
10002e34:	d100      	bne.n	10002e38 <irq_remove_handler+0x38>
10002e36:	e08b      	b.n	10002f50 <irq_remove_handler+0x150>
10002e38:	9701      	str	r7, [sp, #4]
10002e3a:	4b49      	ldr	r3, [pc, #292]	@ (10002f60 <irq_remove_handler+0x160>)
10002e3c:	1afb      	subs	r3, r7, r3
10002e3e:	2b2f      	cmp	r3, #47	@ 0x2f
10002e40:	d909      	bls.n	10002e56 <irq_remove_handler+0x56>
10002e42:	4642      	mov	r2, r8
10002e44:	0039      	movs	r1, r7
10002e46:	0030      	movs	r0, r6
10002e48:	f7ff fdf2 	bl	10002a30 <set_raw_irq_handler_and_unlock>
10002e4c:	b003      	add	sp, #12
10002e4e:	bcc0      	pop	{r6, r7}
10002e50:	46b9      	mov	r9, r7
10002e52:	46b0      	mov	r8, r6
10002e54:	bdf0      	pop	{r4, r5, r6, r7, pc}
10002e56:	0030      	movs	r0, r6
10002e58:	f7ff fe5a 	bl	10002b10 <irq_is_enabled>
10002e5c:	4681      	mov	r9, r0
10002e5e:	2100      	movs	r1, #0
10002e60:	0030      	movs	r0, r6
10002e62:	f7ff fe71 	bl	10002b48 <irq_set_enabled>
10002e66:	f3bf 8f5f 	dmb	sy
10002e6a:	f3ef 8105 	mrs	r1, IPSR
10002e6e:	2900      	cmp	r1, #0
10002e70:	d001      	beq.n	10002e76 <irq_remove_handler+0x76>
10002e72:	428c      	cmp	r4, r1
10002e74:	d111      	bne.n	10002e9a <irq_remove_handler+0x9a>
10002e76:	2301      	movs	r3, #1
10002e78:	9c01      	ldr	r4, [sp, #4]
10002e7a:	439c      	bics	r4, r3
10002e7c:	2000      	movs	r0, #0
10002e7e:	68a3      	ldr	r3, [r4, #8]
10002e80:	42ab      	cmp	r3, r5
10002e82:	d012      	beq.n	10002eaa <irq_remove_handler+0xaa>
10002e84:	2206      	movs	r2, #6
10002e86:	56a2      	ldrsb	r2, [r4, r2]
10002e88:	2a00      	cmp	r2, #0
10002e8a:	db0d      	blt.n	10002ea8 <irq_remove_handler+0xa8>
10002e8c:	0053      	lsls	r3, r2, #1
10002e8e:	189b      	adds	r3, r3, r2
10002e90:	009b      	lsls	r3, r3, #2
10002e92:	4a33      	ldr	r2, [pc, #204]	@ (10002f60 <irq_remove_handler+0x160>)
10002e94:	0020      	movs	r0, r4
10002e96:	18d4      	adds	r4, r2, r3
10002e98:	e7f1      	b.n	10002e7e <irq_remove_handler+0x7e>
10002e9a:	4b32      	ldr	r3, [pc, #200]	@ (10002f64 <irq_remove_handler+0x164>)
10002e9c:	4a32      	ldr	r2, [pc, #200]	@ (10002f68 <irq_remove_handler+0x168>)
10002e9e:	2136      	movs	r1, #54	@ 0x36
10002ea0:	4832      	ldr	r0, [pc, #200]	@ (10002f6c <irq_remove_handler+0x16c>)
10002ea2:	31ff      	adds	r1, #255	@ 0xff
10002ea4:	f001 fb54 	bl	10004550 <__assert_func>
10002ea8:	0020      	movs	r0, r4
10002eaa:	42ab      	cmp	r3, r5
10002eac:	d149      	bne.n	10002f42 <irq_remove_handler+0x142>
10002eae:	2506      	movs	r5, #6
10002eb0:	5765      	ldrsb	r5, [r4, r5]
10002eb2:	2d00      	cmp	r5, #0
10002eb4:	db2b      	blt.n	10002f0e <irq_remove_handler+0x10e>
10002eb6:	4b2a      	ldr	r3, [pc, #168]	@ (10002f60 <irq_remove_handler+0x160>)
10002eb8:	006a      	lsls	r2, r5, #1
10002eba:	1952      	adds	r2, r2, r5
10002ebc:	0092      	lsls	r2, r2, #2
10002ebe:	189b      	adds	r3, r3, r2
10002ec0:	689a      	ldr	r2, [r3, #8]
10002ec2:	60a2      	str	r2, [r4, #8]
10002ec4:	79da      	ldrb	r2, [r3, #7]
10002ec6:	71e2      	strb	r2, [r4, #7]
10002ec8:	799b      	ldrb	r3, [r3, #6]
10002eca:	b25b      	sxtb	r3, r3
10002ecc:	71a3      	strb	r3, [r4, #6]
10002ece:	2b00      	cmp	r3, #0
10002ed0:	da0f      	bge.n	10002ef2 <irq_remove_handler+0xf2>
10002ed2:	4827      	ldr	r0, [pc, #156]	@ (10002f70 <irq_remove_handler+0x170>)
10002ed4:	80a0      	strh	r0, [r4, #4]
10002ed6:	4b22      	ldr	r3, [pc, #136]	@ (10002f60 <irq_remove_handler+0x160>)
10002ed8:	006a      	lsls	r2, r5, #1
10002eda:	1952      	adds	r2, r2, r5
10002edc:	0092      	lsls	r2, r2, #2
10002ede:	189b      	adds	r3, r3, r2
10002ee0:	4a24      	ldr	r2, [pc, #144]	@ (10002f74 <irq_remove_handler+0x174>)
10002ee2:	7811      	ldrb	r1, [r2, #0]
10002ee4:	7199      	strb	r1, [r3, #6]
10002ee6:	7015      	strb	r5, [r2, #0]
10002ee8:	4649      	mov	r1, r9
10002eea:	0030      	movs	r0, r6
10002eec:	f7ff fe2c 	bl	10002b48 <irq_set_enabled>
10002ef0:	e7a7      	b.n	10002e42 <irq_remove_handler+0x42>
10002ef2:	0068      	lsls	r0, r5, #1
10002ef4:	1940      	adds	r0, r0, r5
10002ef6:	0080      	lsls	r0, r0, #2
10002ef8:	4b19      	ldr	r3, [pc, #100]	@ (10002f60 <irq_remove_handler+0x160>)
10002efa:	18c0      	adds	r0, r0, r3
10002efc:	3004      	adds	r0, #4
10002efe:	f7ff fdab 	bl	10002a58 <resolve_branch>
10002f02:	0001      	movs	r1, r0
10002f04:	1d23      	adds	r3, r4, #4
10002f06:	0018      	movs	r0, r3
10002f08:	f7ff fdbe 	bl	10002a88 <make_branch>
10002f0c:	e7e2      	b.n	10002ed4 <irq_remove_handler+0xd4>
10002f0e:	2900      	cmp	r1, #0
10002f10:	d112      	bne.n	10002f38 <irq_remove_handler+0x138>
10002f12:	2800      	cmp	r0, #0
10002f14:	d00e      	beq.n	10002f34 <irq_remove_handler+0x134>
10002f16:	23ff      	movs	r3, #255	@ 0xff
10002f18:	7183      	strb	r3, [r0, #6]
10002f1a:	4b17      	ldr	r3, [pc, #92]	@ (10002f78 <irq_remove_handler+0x178>)
10002f1c:	8083      	strh	r3, [r0, #4]
10002f1e:	4915      	ldr	r1, [pc, #84]	@ (10002f74 <irq_remove_handler+0x174>)
10002f20:	780b      	ldrb	r3, [r1, #0]
10002f22:	71a3      	strb	r3, [r4, #6]
10002f24:	4a0e      	ldr	r2, [pc, #56]	@ (10002f60 <irq_remove_handler+0x160>)
10002f26:	4b15      	ldr	r3, [pc, #84]	@ (10002f7c <irq_remove_handler+0x17c>)
10002f28:	1aa4      	subs	r4, r4, r2
10002f2a:	4164      	adcs	r4, r4
10002f2c:	4363      	muls	r3, r4
10002f2e:	0d1b      	lsrs	r3, r3, #20
10002f30:	700b      	strb	r3, [r1, #0]
10002f32:	e7d9      	b.n	10002ee8 <irq_remove_handler+0xe8>
10002f34:	4f09      	ldr	r7, [pc, #36]	@ (10002f5c <irq_remove_handler+0x15c>)
10002f36:	e7f2      	b.n	10002f1e <irq_remove_handler+0x11e>
10002f38:	4911      	ldr	r1, [pc, #68]	@ (10002f80 <irq_remove_handler+0x180>)
10002f3a:	1d20      	adds	r0, r4, #4
10002f3c:	f7ff fdc8 	bl	10002ad0 <insert_branch_and_link>
10002f40:	e7d2      	b.n	10002ee8 <irq_remove_handler+0xe8>
10002f42:	4b10      	ldr	r3, [pc, #64]	@ (10002f84 <irq_remove_handler+0x184>)
10002f44:	4a08      	ldr	r2, [pc, #32]	@ (10002f68 <irq_remove_handler+0x168>)
10002f46:	216a      	movs	r1, #106	@ 0x6a
10002f48:	4808      	ldr	r0, [pc, #32]	@ (10002f6c <irq_remove_handler+0x16c>)
10002f4a:	31ff      	adds	r1, #255	@ 0xff
10002f4c:	f001 fb00 	bl	10004550 <__assert_func>
10002f50:	4f02      	ldr	r7, [pc, #8]	@ (10002f5c <irq_remove_handler+0x15c>)
10002f52:	e776      	b.n	10002e42 <irq_remove_handler+0x42>
10002f54:	d0000124 	.word	0xd0000124
10002f58:	e000ed00 	.word	0xe000ed00
10002f5c:	100001cd 	.word	0x100001cd
10002f60:	20000dd0 	.word	0x20000dd0
10002f64:	1000b658 	.word	0x1000b658
10002f68:	1000c458 	.word	0x1000c458
10002f6c:	1000b4dc 	.word	0x1000b4dc
10002f70:	0000bd01 	.word	0x0000bd01
10002f74:	20002555 	.word	0x20002555
10002f78:	ffffbd01 	.word	0xffffbd01
10002f7c:	0000aaaa 	.word	0x0000aaaa
10002f80:	20000e0a 	.word	0x20000e0a
10002f84:	1000b68c 	.word	0x1000b68c

10002f88 <irq_add_tail_to_free_list>:
10002f88:	b570      	push	{r4, r5, r6, lr}
10002f8a:	2201      	movs	r2, #1
10002f8c:	4302      	orrs	r2, r0
10002f8e:	4b2e      	ldr	r3, [pc, #184]	@ (10003048 <irq_add_tail_to_free_list+0xc0>)
10002f90:	1ad3      	subs	r3, r2, r3
10002f92:	2b2f      	cmp	r3, #47	@ 0x2f
10002f94:	d828      	bhi.n	10002fe8 <irq_add_tail_to_free_list+0x60>
10002f96:	f3ef 8305 	mrs	r3, IPSR
10002f9a:	2b00      	cmp	r3, #0
10002f9c:	d02b      	beq.n	10002ff6 <irq_add_tail_to_free_list+0x6e>
10002f9e:	f3ef 8c10 	mrs	ip, PRIMASK
10002fa2:	b672      	cpsid	i
10002fa4:	4929      	ldr	r1, [pc, #164]	@ (1000304c <irq_add_tail_to_free_list+0xc4>)
10002fa6:	6809      	ldr	r1, [r1, #0]
10002fa8:	2900      	cmp	r1, #0
10002faa:	d0fb      	beq.n	10002fa4 <irq_add_tail_to_free_list+0x1c>
10002fac:	f3bf 8f5f 	dmb	sy
10002fb0:	4c25      	ldr	r4, [pc, #148]	@ (10003048 <irq_add_tail_to_free_list+0xc0>)
10002fb2:	4927      	ldr	r1, [pc, #156]	@ (10003050 <irq_add_tail_to_free_list+0xc8>)
10002fb4:	0005      	movs	r5, r0
10002fb6:	1b2d      	subs	r5, r5, r4
10002fb8:	416d      	adcs	r5, r5
10002fba:	4369      	muls	r1, r5
10002fbc:	0d09      	lsrs	r1, r1, #20
10002fbe:	b24c      	sxtb	r4, r1
10002fc0:	4924      	ldr	r1, [pc, #144]	@ (10003054 <irq_add_tail_to_free_list+0xcc>)
10002fc2:	6889      	ldr	r1, [r1, #8]
10002fc4:	009b      	lsls	r3, r3, #2
10002fc6:	58c9      	ldr	r1, [r1, r3]
10002fc8:	4291      	cmp	r1, r2
10002fca:	d01b      	beq.n	10003004 <irq_add_tail_to_free_list+0x7c>
10002fcc:	2100      	movs	r1, #0
10002fce:	2903      	cmp	r1, #3
10002fd0:	d832      	bhi.n	10003038 <irq_add_tail_to_free_list+0xb0>
10002fd2:	4b1d      	ldr	r3, [pc, #116]	@ (10003048 <irq_add_tail_to_free_list+0xc0>)
10002fd4:	004a      	lsls	r2, r1, #1
10002fd6:	1852      	adds	r2, r2, r1
10002fd8:	0092      	lsls	r2, r2, #2
10002fda:	189b      	adds	r3, r3, r2
10002fdc:	799b      	ldrb	r3, [r3, #6]
10002fde:	b25b      	sxtb	r3, r3
10002fe0:	42a3      	cmp	r3, r4
10002fe2:	d01f      	beq.n	10003024 <irq_add_tail_to_free_list+0x9c>
10002fe4:	3101      	adds	r1, #1
10002fe6:	e7f2      	b.n	10002fce <irq_add_tail_to_free_list+0x46>
10002fe8:	4b1b      	ldr	r3, [pc, #108]	@ (10003058 <irq_add_tail_to_free_list+0xd0>)
10002fea:	4a1c      	ldr	r2, [pc, #112]	@ (1000305c <irq_add_tail_to_free_list+0xd4>)
10002fec:	21c7      	movs	r1, #199	@ 0xc7
10002fee:	481c      	ldr	r0, [pc, #112]	@ (10003060 <irq_add_tail_to_free_list+0xd8>)
10002ff0:	0049      	lsls	r1, r1, #1
10002ff2:	f001 faad 	bl	10004550 <__assert_func>
10002ff6:	4b1b      	ldr	r3, [pc, #108]	@ (10003064 <irq_add_tail_to_free_list+0xdc>)
10002ff8:	4a18      	ldr	r2, [pc, #96]	@ (1000305c <irq_add_tail_to_free_list+0xd4>)
10002ffa:	2192      	movs	r1, #146	@ 0x92
10002ffc:	4818      	ldr	r0, [pc, #96]	@ (10003060 <irq_add_tail_to_free_list+0xd8>)
10002ffe:	31ff      	adds	r1, #255	@ 0xff
10003000:	f001 faa6 	bl	10004550 <__assert_func>
10003004:	4a13      	ldr	r2, [pc, #76]	@ (10003054 <irq_add_tail_to_free_list+0xcc>)
10003006:	6892      	ldr	r2, [r2, #8]
10003008:	4917      	ldr	r1, [pc, #92]	@ (10003068 <irq_add_tail_to_free_list+0xe0>)
1000300a:	50d1      	str	r1, [r2, r3]
1000300c:	4b17      	ldr	r3, [pc, #92]	@ (1000306c <irq_add_tail_to_free_list+0xe4>)
1000300e:	781a      	ldrb	r2, [r3, #0]
10003010:	7182      	strb	r2, [r0, #6]
10003012:	701c      	strb	r4, [r3, #0]
10003014:	f3bf 8f5f 	dmb	sy
10003018:	4b0c      	ldr	r3, [pc, #48]	@ (1000304c <irq_add_tail_to_free_list+0xc4>)
1000301a:	2200      	movs	r2, #0
1000301c:	601a      	str	r2, [r3, #0]
1000301e:	f38c 8810 	msr	PRIMASK, ip
10003022:	bd70      	pop	{r4, r5, r6, pc}
10003024:	4b08      	ldr	r3, [pc, #32]	@ (10003048 <irq_add_tail_to_free_list+0xc0>)
10003026:	004a      	lsls	r2, r1, #1
10003028:	1855      	adds	r5, r2, r1
1000302a:	00ad      	lsls	r5, r5, #2
1000302c:	195d      	adds	r5, r3, r5
1000302e:	26ff      	movs	r6, #255	@ 0xff
10003030:	71ae      	strb	r6, [r5, #6]
10003032:	4a0f      	ldr	r2, [pc, #60]	@ (10003070 <irq_add_tail_to_free_list+0xe8>)
10003034:	80aa      	strh	r2, [r5, #4]
10003036:	e7e9      	b.n	1000300c <irq_add_tail_to_free_list+0x84>
10003038:	4b0e      	ldr	r3, [pc, #56]	@ (10003074 <irq_add_tail_to_free_list+0xec>)
1000303a:	4a08      	ldr	r2, [pc, #32]	@ (1000305c <irq_add_tail_to_free_list+0xd4>)
1000303c:	21d1      	movs	r1, #209	@ 0xd1
1000303e:	4808      	ldr	r0, [pc, #32]	@ (10003060 <irq_add_tail_to_free_list+0xd8>)
10003040:	0049      	lsls	r1, r1, #1
10003042:	f001 fa85 	bl	10004550 <__assert_func>
10003046:	46c0      	nop			@ (mov r8, r8)
10003048:	20000dd0 	.word	0x20000dd0
1000304c:	d0000124 	.word	0xd0000124
10003050:	0000aaaa 	.word	0x0000aaaa
10003054:	e000ed00 	.word	0xe000ed00
10003058:	1000b694 	.word	0x1000b694
1000305c:	1000c424 	.word	0x1000c424
10003060:	1000b4dc 	.word	0x1000b4dc
10003064:	1000b6bc 	.word	0x1000b6bc
10003068:	100001cd 	.word	0x100001cd
1000306c:	20002555 	.word	0x20002555
10003070:	ffffbd01 	.word	0xffffbd01
10003074:	1000b6c8 	.word	0x1000b6c8

10003078 <irq_init_priorities>:
10003078:	2200      	movs	r2, #0
1000307a:	4b04      	ldr	r3, [pc, #16]	@ (1000308c <irq_init_priorities+0x14>)
1000307c:	e002      	b.n	10003084 <irq_init_priorities+0xc>
1000307e:	4904      	ldr	r1, [pc, #16]	@ (10003090 <irq_init_priorities+0x18>)
10003080:	c302      	stmia	r3!, {r1}
10003082:	3201      	adds	r2, #1
10003084:	2a07      	cmp	r2, #7
10003086:	d9fa      	bls.n	1000307e <irq_init_priorities+0x6>
10003088:	4770      	bx	lr
1000308a:	46c0      	nop			@ (mov r8, r8)
1000308c:	e000e400 	.word	0xe000e400
10003090:	80808080 	.word	0x80808080

10003094 <user_irq_claim_unused>:
10003094:	b510      	push	{r4, lr}
10003096:	b082      	sub	sp, #8
10003098:	0001      	movs	r1, r0
1000309a:	4c07      	ldr	r4, [pc, #28]	@ (100030b8 <user_irq_claim_unused+0x24>)
1000309c:	4b07      	ldr	r3, [pc, #28]	@ (100030bc <user_irq_claim_unused+0x28>)
1000309e:	9300      	str	r3, [sp, #0]
100030a0:	2305      	movs	r3, #5
100030a2:	2200      	movs	r2, #0
100030a4:	0020      	movs	r0, r4
100030a6:	f7ff fc6a 	bl	1000297e <hw_claim_unused_from_range>
100030aa:	2800      	cmp	r0, #0
100030ac:	db01      	blt.n	100030b2 <user_irq_claim_unused+0x1e>
100030ae:	231f      	movs	r3, #31
100030b0:	1a18      	subs	r0, r3, r0
100030b2:	b002      	add	sp, #8
100030b4:	bd10      	pop	{r4, pc}
100030b6:	46c0      	nop			@ (mov r8, r8)
100030b8:	2000255e 	.word	0x2000255e
100030bc:	1000b6d0 	.word	0x1000b6d0

100030c0 <lock_init>:
100030c0:	4b02      	ldr	r3, [pc, #8]	@ (100030cc <lock_init+0xc>)
100030c2:	469c      	mov	ip, r3
100030c4:	4461      	add	r1, ip
100030c6:	0089      	lsls	r1, r1, #2
100030c8:	6001      	str	r1, [r0, #0]
100030ca:	4770      	bx	lr
100030cc:	34000040 	.word	0x34000040

100030d0 <update_us_since_boot>:
100030d0:	b510      	push	{r4, lr}
100030d2:	2b00      	cmp	r3, #0
100030d4:	db02      	blt.n	100030dc <update_us_since_boot+0xc>
100030d6:	6002      	str	r2, [r0, #0]
100030d8:	6043      	str	r3, [r0, #4]
100030da:	bd10      	pop	{r4, pc}
100030dc:	4b02      	ldr	r3, [pc, #8]	@ (100030e8 <update_us_since_boot+0x18>)
100030de:	4a03      	ldr	r2, [pc, #12]	@ (100030ec <update_us_since_boot+0x1c>)
100030e0:	4803      	ldr	r0, [pc, #12]	@ (100030f0 <update_us_since_boot+0x20>)
100030e2:	213f      	movs	r1, #63	@ 0x3f
100030e4:	f001 fa34 	bl	10004550 <__assert_func>
100030e8:	1000b6ec 	.word	0x1000b6ec
100030ec:	1000c4e0 	.word	0x1000c4e0
100030f0:	1000b708 	.word	0x1000b708

100030f4 <delayed_by_ms>:
100030f4:	b570      	push	{r4, r5, r6, lr}
100030f6:	b082      	sub	sp, #8
100030f8:	0006      	movs	r6, r0
100030fa:	0014      	movs	r4, r2
100030fc:	001d      	movs	r5, r3
100030fe:	22fa      	movs	r2, #250	@ 0xfa
10003100:	0092      	lsls	r2, r2, #2
10003102:	2300      	movs	r3, #0
10003104:	9806      	ldr	r0, [sp, #24]
10003106:	2100      	movs	r1, #0
10003108:	f003 ffb2 	bl	10007070 <__wrap___aeabi_lmul>
1000310c:	0002      	movs	r2, r0
1000310e:	000b      	movs	r3, r1
10003110:	1912      	adds	r2, r2, r4
10003112:	416b      	adcs	r3, r5
10003114:	2b00      	cmp	r3, #0
10003116:	db09      	blt.n	1000312c <delayed_by_ms+0x38>
10003118:	4668      	mov	r0, sp
1000311a:	f7ff ffd9 	bl	100030d0 <update_us_since_boot>
1000311e:	9a00      	ldr	r2, [sp, #0]
10003120:	9b01      	ldr	r3, [sp, #4]
10003122:	6032      	str	r2, [r6, #0]
10003124:	6073      	str	r3, [r6, #4]
10003126:	0030      	movs	r0, r6
10003128:	b002      	add	sp, #8
1000312a:	bd70      	pop	{r4, r5, r6, pc}
1000312c:	2201      	movs	r2, #1
1000312e:	4252      	negs	r2, r2
10003130:	4b00      	ldr	r3, [pc, #0]	@ (10003134 <delayed_by_ms+0x40>)
10003132:	e7f1      	b.n	10003118 <delayed_by_ms+0x24>
10003134:	7fffffff 	.word	0x7fffffff

10003138 <get_absolute_time>:
10003138:	b510      	push	{r4, lr}
1000313a:	b082      	sub	sp, #8
1000313c:	0004      	movs	r4, r0
1000313e:	f000 fd0b 	bl	10003b58 <time_us_64>
10003142:	0002      	movs	r2, r0
10003144:	000b      	movs	r3, r1
10003146:	4668      	mov	r0, sp
10003148:	f7ff ffc2 	bl	100030d0 <update_us_since_boot>
1000314c:	9a00      	ldr	r2, [sp, #0]
1000314e:	9b01      	ldr	r3, [sp, #4]
10003150:	6022      	str	r2, [r4, #0]
10003152:	6063      	str	r3, [r4, #4]
10003154:	0020      	movs	r0, r4
10003156:	b002      	add	sp, #8
10003158:	bd10      	pop	{r4, pc}

1000315a <make_timeout_time_ms>:
1000315a:	b530      	push	{r4, r5, lr}
1000315c:	b085      	sub	sp, #20
1000315e:	0004      	movs	r4, r0
10003160:	000d      	movs	r5, r1
10003162:	a802      	add	r0, sp, #8
10003164:	f7ff ffe8 	bl	10003138 <get_absolute_time>
10003168:	9a02      	ldr	r2, [sp, #8]
1000316a:	9b03      	ldr	r3, [sp, #12]
1000316c:	9500      	str	r5, [sp, #0]
1000316e:	0020      	movs	r0, r4
10003170:	f7ff ffc0 	bl	100030f4 <delayed_by_ms>
10003174:	0020      	movs	r0, r4
10003176:	b005      	add	sp, #20
10003178:	bd30      	pop	{r4, r5, pc}

1000317a <mutex_init>:
1000317a:	b510      	push	{r4, lr}
1000317c:	0004      	movs	r4, r0
1000317e:	f7ff fc37 	bl	100029f0 <next_striped_spin_lock_num>
10003182:	0001      	movs	r1, r0
10003184:	0020      	movs	r0, r4
10003186:	f7ff ff9b 	bl	100030c0 <lock_init>
1000318a:	23ff      	movs	r3, #255	@ 0xff
1000318c:	7123      	strb	r3, [r4, #4]
1000318e:	f3bf 8f5f 	dmb	sy
10003192:	bd10      	pop	{r4, pc}

10003194 <recursive_mutex_init>:
10003194:	b510      	push	{r4, lr}
10003196:	0004      	movs	r4, r0
10003198:	f7ff fc2a 	bl	100029f0 <next_striped_spin_lock_num>
1000319c:	0001      	movs	r1, r0
1000319e:	0020      	movs	r0, r4
100031a0:	f7ff ff8e 	bl	100030c0 <lock_init>
100031a4:	23ff      	movs	r3, #255	@ 0xff
100031a6:	7123      	strb	r3, [r4, #4]
100031a8:	2300      	movs	r3, #0
100031aa:	7163      	strb	r3, [r4, #5]
100031ac:	f3bf 8f5f 	dmb	sy
100031b0:	bd10      	pop	{r4, pc}
	...

100031b4 <critical_section_init_with_lock_num>:
100031b4:	4b03      	ldr	r3, [pc, #12]	@ (100031c4 <critical_section_init_with_lock_num+0x10>)
100031b6:	469c      	mov	ip, r3
100031b8:	4461      	add	r1, ip
100031ba:	0089      	lsls	r1, r1, #2
100031bc:	6001      	str	r1, [r0, #0]
100031be:	f3bf 8f5f 	dmb	sy
100031c2:	4770      	bx	lr
100031c4:	34000040 	.word	0x34000040

100031c8 <critical_section_init>:
100031c8:	b510      	push	{r4, lr}
100031ca:	0004      	movs	r4, r0
100031cc:	2001      	movs	r0, #1
100031ce:	f7ff fc1d 	bl	10002a0c <spin_lock_claim_unused>
100031d2:	0001      	movs	r1, r0
100031d4:	0020      	movs	r0, r4
100031d6:	f7ff ffed 	bl	100031b4 <critical_section_init_with_lock_num>
100031da:	bd10      	pop	{r4, pc}

100031dc <time_reached>:
100031dc:	4b08      	ldr	r3, [pc, #32]	@ (10003200 <time_reached+0x24>)
100031de:	6a5b      	ldr	r3, [r3, #36]	@ 0x24
100031e0:	4299      	cmp	r1, r3
100031e2:	d809      	bhi.n	100031f8 <time_reached+0x1c>
100031e4:	4a06      	ldr	r2, [pc, #24]	@ (10003200 <time_reached+0x24>)
100031e6:	6a92      	ldr	r2, [r2, #40]	@ 0x28
100031e8:	4282      	cmp	r2, r0
100031ea:	d207      	bcs.n	100031fc <time_reached+0x20>
100031ec:	4299      	cmp	r1, r3
100031ee:	d001      	beq.n	100031f4 <time_reached+0x18>
100031f0:	2001      	movs	r0, #1
100031f2:	e002      	b.n	100031fa <time_reached+0x1e>
100031f4:	2000      	movs	r0, #0
100031f6:	e000      	b.n	100031fa <time_reached+0x1e>
100031f8:	2000      	movs	r0, #0
100031fa:	4770      	bx	lr
100031fc:	2001      	movs	r0, #1
100031fe:	e7fc      	b.n	100031fa <time_reached+0x1e>
10003200:	40054000 	.word	0x40054000

10003204 <get_entry>:
10003204:	b510      	push	{r4, lr}
10003206:	2900      	cmp	r1, #0
10003208:	d00a      	beq.n	10003220 <get_entry+0x1c>
1000320a:	6803      	ldr	r3, [r0, #0]
1000320c:	7b1b      	ldrb	r3, [r3, #12]
1000320e:	428b      	cmp	r3, r1
10003210:	d306      	bcc.n	10003220 <get_entry+0x1c>
10003212:	6880      	ldr	r0, [r0, #8]
10003214:	4b05      	ldr	r3, [pc, #20]	@ (1000322c <get_entry+0x28>)
10003216:	469c      	mov	ip, r3
10003218:	4461      	add	r1, ip
1000321a:	0109      	lsls	r1, r1, #4
1000321c:	1840      	adds	r0, r0, r1
1000321e:	bd10      	pop	{r4, pc}
10003220:	4b03      	ldr	r3, [pc, #12]	@ (10003230 <get_entry+0x2c>)
10003222:	4a04      	ldr	r2, [pc, #16]	@ (10003234 <get_entry+0x30>)
10003224:	4804      	ldr	r0, [pc, #16]	@ (10003238 <get_entry+0x34>)
10003226:	213c      	movs	r1, #60	@ 0x3c
10003228:	f001 f992 	bl	10004550 <__assert_func>
1000322c:	0fffffff 	.word	0x0fffffff
10003230:	1000b7dc 	.word	0x1000b7dc
10003234:	1000c5c8 	.word	0x1000c5c8
10003238:	1000b800 	.word	0x1000b800

1000323c <timer_pool_entry_comparator>:
1000323c:	b5f8      	push	{r3, r4, r5, r6, r7, lr}
1000323e:	0004      	movs	r4, r0
10003240:	0017      	movs	r7, r2
10003242:	f7ff ffdf 	bl	10003204 <get_entry>
10003246:	6806      	ldr	r6, [r0, #0]
10003248:	6845      	ldr	r5, [r0, #4]
1000324a:	0039      	movs	r1, r7
1000324c:	0020      	movs	r0, r4
1000324e:	f7ff ffd9 	bl	10003204 <get_entry>
10003252:	6802      	ldr	r2, [r0, #0]
10003254:	6843      	ldr	r3, [r0, #4]
10003256:	2001      	movs	r0, #1
10003258:	42ab      	cmp	r3, r5
1000325a:	d801      	bhi.n	10003260 <timer_pool_entry_comparator+0x24>
1000325c:	d002      	beq.n	10003264 <timer_pool_entry_comparator+0x28>
1000325e:	2000      	movs	r0, #0
10003260:	b2c0      	uxtb	r0, r0
10003262:	bdf8      	pop	{r3, r4, r5, r6, r7, pc}
10003264:	42b2      	cmp	r2, r6
10003266:	d8fb      	bhi.n	10003260 <timer_pool_entry_comparator+0x24>
10003268:	e7f9      	b.n	1000325e <timer_pool_entry_comparator+0x22>
	...

1000326c <update_us_since_boot>:
1000326c:	b510      	push	{r4, lr}
1000326e:	2b00      	cmp	r3, #0
10003270:	db02      	blt.n	10003278 <update_us_since_boot+0xc>
10003272:	6002      	str	r2, [r0, #0]
10003274:	6043      	str	r3, [r0, #4]
10003276:	bd10      	pop	{r4, pc}
10003278:	4b02      	ldr	r3, [pc, #8]	@ (10003284 <update_us_since_boot+0x18>)
1000327a:	4a03      	ldr	r2, [pc, #12]	@ (10003288 <update_us_since_boot+0x1c>)
1000327c:	4803      	ldr	r0, [pc, #12]	@ (1000328c <update_us_since_boot+0x20>)
1000327e:	213f      	movs	r1, #63	@ 0x3f
10003280:	f001 f966 	bl	10004550 <__assert_func>
10003284:	1000b6ec 	.word	0x1000b6ec
10003288:	1000c594 	.word	0x1000c594
1000328c:	1000b708 	.word	0x1000b708

10003290 <delayed_by_us>:
10003290:	b510      	push	{r4, lr}
10003292:	b082      	sub	sp, #8
10003294:	0004      	movs	r4, r0
10003296:	9804      	ldr	r0, [sp, #16]
10003298:	9905      	ldr	r1, [sp, #20]
1000329a:	1812      	adds	r2, r2, r0
1000329c:	414b      	adcs	r3, r1
1000329e:	2b00      	cmp	r3, #0
100032a0:	db09      	blt.n	100032b6 <delayed_by_us+0x26>
100032a2:	4668      	mov	r0, sp
100032a4:	f7ff ffe2 	bl	1000326c <update_us_since_boot>
100032a8:	9a00      	ldr	r2, [sp, #0]
100032aa:	9b01      	ldr	r3, [sp, #4]
100032ac:	6022      	str	r2, [r4, #0]
100032ae:	6063      	str	r3, [r4, #4]
100032b0:	0020      	movs	r0, r4
100032b2:	b002      	add	sp, #8
100032b4:	bd10      	pop	{r4, pc}
100032b6:	2201      	movs	r2, #1
100032b8:	4252      	negs	r2, r2
100032ba:	4b01      	ldr	r3, [pc, #4]	@ (100032c0 <delayed_by_us+0x30>)
100032bc:	e7f1      	b.n	100032a2 <delayed_by_us+0x12>
100032be:	46c0      	nop			@ (mov r8, r8)
100032c0:	7fffffff 	.word	0x7fffffff

100032c4 <ph_get_node>:
100032c4:	b510      	push	{r4, lr}
100032c6:	2900      	cmp	r1, #0
100032c8:	d008      	beq.n	100032dc <ph_get_node+0x18>
100032ca:	7b03      	ldrb	r3, [r0, #12]
100032cc:	428b      	cmp	r3, r1
100032ce:	d305      	bcc.n	100032dc <ph_get_node+0x18>
100032d0:	6800      	ldr	r0, [r0, #0]
100032d2:	004b      	lsls	r3, r1, #1
100032d4:	185b      	adds	r3, r3, r1
100032d6:	3b03      	subs	r3, #3
100032d8:	18c0      	adds	r0, r0, r3
100032da:	bd10      	pop	{r4, pc}
100032dc:	4b02      	ldr	r3, [pc, #8]	@ (100032e8 <ph_get_node+0x24>)
100032de:	4a03      	ldr	r2, [pc, #12]	@ (100032ec <ph_get_node+0x28>)
100032e0:	4803      	ldr	r0, [pc, #12]	@ (100032f0 <ph_get_node+0x2c>)
100032e2:	2168      	movs	r1, #104	@ 0x68
100032e4:	f001 f934 	bl	10004550 <__assert_func>
100032e8:	1000b838 	.word	0x1000b838
100032ec:	1000c570 	.word	0x1000c570
100032f0:	1000b854 	.word	0x1000b854

100032f4 <ph_contains_node>:
100032f4:	b510      	push	{r4, lr}
100032f6:	7b43      	ldrb	r3, [r0, #13]
100032f8:	428b      	cmp	r3, r1
100032fa:	d101      	bne.n	10003300 <ph_contains_node+0xc>
100032fc:	2001      	movs	r0, #1
100032fe:	bd10      	pop	{r4, pc}
10003300:	f7ff ffe0 	bl	100032c4 <ph_get_node>
10003304:	7883      	ldrb	r3, [r0, #2]
10003306:	2b00      	cmp	r3, #0
10003308:	d101      	bne.n	1000330e <ph_contains_node+0x1a>
1000330a:	2000      	movs	r0, #0
1000330c:	e7f7      	b.n	100032fe <ph_contains_node+0xa>
1000330e:	2001      	movs	r0, #1
10003310:	e7f5      	b.n	100032fe <ph_contains_node+0xa>

10003312 <ph_new_node>:
10003312:	b570      	push	{r4, r5, r6, lr}
10003314:	0004      	movs	r4, r0
10003316:	7b85      	ldrb	r5, [r0, #14]
10003318:	2d00      	cmp	r5, #0
1000331a:	d101      	bne.n	10003320 <ph_new_node+0xe>
1000331c:	0028      	movs	r0, r5
1000331e:	bd70      	pop	{r4, r5, r6, pc}
10003320:	0029      	movs	r1, r5
10003322:	f7ff ffcf 	bl	100032c4 <ph_get_node>
10003326:	7843      	ldrb	r3, [r0, #1]
10003328:	73a3      	strb	r3, [r4, #14]
1000332a:	2b00      	cmp	r3, #0
1000332c:	d100      	bne.n	10003330 <ph_new_node+0x1e>
1000332e:	73e3      	strb	r3, [r4, #15]
10003330:	2300      	movs	r3, #0
10003332:	7083      	strb	r3, [r0, #2]
10003334:	7043      	strb	r3, [r0, #1]
10003336:	7003      	strb	r3, [r0, #0]
10003338:	e7f0      	b.n	1000331c <ph_new_node+0xa>
	...

1000333c <ph_add_child_node>:
1000333c:	b5f8      	push	{r3, r4, r5, r6, r7, lr}
1000333e:	0006      	movs	r6, r0
10003340:	000c      	movs	r4, r1
10003342:	0015      	movs	r5, r2
10003344:	f7ff ffbe 	bl	100032c4 <ph_get_node>
10003348:	0007      	movs	r7, r0
1000334a:	2c00      	cmp	r4, #0
1000334c:	d00d      	beq.n	1000336a <ph_add_child_node+0x2e>
1000334e:	2d00      	cmp	r5, #0
10003350:	d011      	beq.n	10003376 <ph_add_child_node+0x3a>
10003352:	42ac      	cmp	r4, r5
10003354:	d015      	beq.n	10003382 <ph_add_child_node+0x46>
10003356:	0029      	movs	r1, r5
10003358:	0030      	movs	r0, r6
1000335a:	f7ff ffb3 	bl	100032c4 <ph_get_node>
1000335e:	7084      	strb	r4, [r0, #2]
10003360:	783b      	ldrb	r3, [r7, #0]
10003362:	2b00      	cmp	r3, #0
10003364:	d113      	bne.n	1000338e <ph_add_child_node+0x52>
10003366:	703d      	strb	r5, [r7, #0]
10003368:	bdf8      	pop	{r3, r4, r5, r6, r7, pc}
1000336a:	4b0a      	ldr	r3, [pc, #40]	@ (10003394 <ph_add_child_node+0x58>)
1000336c:	4a0a      	ldr	r2, [pc, #40]	@ (10003398 <ph_add_child_node+0x5c>)
1000336e:	480b      	ldr	r0, [pc, #44]	@ (1000339c <ph_add_child_node+0x60>)
10003370:	216f      	movs	r1, #111	@ 0x6f
10003372:	f001 f8ed 	bl	10004550 <__assert_func>
10003376:	4b0a      	ldr	r3, [pc, #40]	@ (100033a0 <ph_add_child_node+0x64>)
10003378:	4a07      	ldr	r2, [pc, #28]	@ (10003398 <ph_add_child_node+0x5c>)
1000337a:	4808      	ldr	r0, [pc, #32]	@ (1000339c <ph_add_child_node+0x60>)
1000337c:	2170      	movs	r1, #112	@ 0x70
1000337e:	f001 f8e7 	bl	10004550 <__assert_func>
10003382:	4b08      	ldr	r3, [pc, #32]	@ (100033a4 <ph_add_child_node+0x68>)
10003384:	4a04      	ldr	r2, [pc, #16]	@ (10003398 <ph_add_child_node+0x5c>)
10003386:	4805      	ldr	r0, [pc, #20]	@ (1000339c <ph_add_child_node+0x60>)
10003388:	2171      	movs	r1, #113	@ 0x71
1000338a:	f001 f8e1 	bl	10004550 <__assert_func>
1000338e:	7043      	strb	r3, [r0, #1]
10003390:	703d      	strb	r5, [r7, #0]
10003392:	e7e9      	b.n	10003368 <ph_add_child_node+0x2c>
10003394:	1000b8a0 	.word	0x1000b8a0
10003398:	1000c54c 	.word	0x1000c54c
1000339c:	1000b854 	.word	0x1000b854
100033a0:	1000b8ac 	.word	0x1000b8ac
100033a4:	1000b8b8 	.word	0x1000b8b8

100033a8 <ph_merge_nodes>:
100033a8:	b570      	push	{r4, r5, r6, lr}
100033aa:	0006      	movs	r6, r0
100033ac:	000d      	movs	r5, r1
100033ae:	0014      	movs	r4, r2
100033b0:	2900      	cmp	r1, #0
100033b2:	d014      	beq.n	100033de <ph_merge_nodes+0x36>
100033b4:	2a00      	cmp	r2, #0
100033b6:	d014      	beq.n	100033e2 <ph_merge_nodes+0x3a>
100033b8:	6843      	ldr	r3, [r0, #4]
100033ba:	6880      	ldr	r0, [r0, #8]
100033bc:	4798      	blx	r3
100033be:	2800      	cmp	r0, #0
100033c0:	d006      	beq.n	100033d0 <ph_merge_nodes+0x28>
100033c2:	0022      	movs	r2, r4
100033c4:	0029      	movs	r1, r5
100033c6:	0030      	movs	r0, r6
100033c8:	f7ff ffb8 	bl	1000333c <ph_add_child_node>
100033cc:	0028      	movs	r0, r5
100033ce:	e007      	b.n	100033e0 <ph_merge_nodes+0x38>
100033d0:	002a      	movs	r2, r5
100033d2:	0021      	movs	r1, r4
100033d4:	0030      	movs	r0, r6
100033d6:	f7ff ffb1 	bl	1000333c <ph_add_child_node>
100033da:	0020      	movs	r0, r4
100033dc:	e000      	b.n	100033e0 <ph_merge_nodes+0x38>
100033de:	0010      	movs	r0, r2
100033e0:	bd70      	pop	{r4, r5, r6, pc}
100033e2:	0008      	movs	r0, r1
100033e4:	e7fc      	b.n	100033e0 <ph_merge_nodes+0x38>
	...

100033e8 <ph_insert_node>:
100033e8:	b570      	push	{r4, r5, r6, lr}
100033ea:	0004      	movs	r4, r0
100033ec:	1e0d      	subs	r5, r1, #0
100033ee:	d00c      	beq.n	1000340a <ph_insert_node+0x22>
100033f0:	f7ff ff68 	bl	100032c4 <ph_get_node>
100033f4:	2300      	movs	r3, #0
100033f6:	7083      	strb	r3, [r0, #2]
100033f8:	7043      	strb	r3, [r0, #1]
100033fa:	7003      	strb	r3, [r0, #0]
100033fc:	7b61      	ldrb	r1, [r4, #13]
100033fe:	002a      	movs	r2, r5
10003400:	0020      	movs	r0, r4
10003402:	f7ff ffd1 	bl	100033a8 <ph_merge_nodes>
10003406:	7360      	strb	r0, [r4, #13]
10003408:	bd70      	pop	{r4, r5, r6, pc}
1000340a:	4b03      	ldr	r3, [pc, #12]	@ (10003418 <ph_insert_node+0x30>)
1000340c:	4a03      	ldr	r2, [pc, #12]	@ (1000341c <ph_insert_node+0x34>)
1000340e:	4804      	ldr	r0, [pc, #16]	@ (10003420 <ph_insert_node+0x38>)
10003410:	21a5      	movs	r1, #165	@ 0xa5
10003412:	f001 f89d 	bl	10004550 <__assert_func>
10003416:	46c0      	nop			@ (mov r8, r8)
10003418:	1000b8d0 	.word	0x1000b8d0
1000341c:	1000c560 	.word	0x1000c560
10003420:	1000b854 	.word	0x1000b854

10003424 <ph_free_node>:
10003424:	b570      	push	{r4, r5, r6, lr}
10003426:	0004      	movs	r4, r0
10003428:	1e0d      	subs	r5, r1, #0
1000342a:	d00f      	beq.n	1000344c <ph_free_node+0x28>
1000342c:	f7ff ff62 	bl	100032f4 <ph_contains_node>
10003430:	2800      	cmp	r0, #0
10003432:	d10b      	bne.n	1000344c <ph_free_node+0x28>
10003434:	7be1      	ldrb	r1, [r4, #15]
10003436:	2900      	cmp	r1, #0
10003438:	d10e      	bne.n	10003458 <ph_free_node+0x34>
1000343a:	7ba3      	ldrb	r3, [r4, #14]
1000343c:	2b00      	cmp	r3, #0
1000343e:	d103      	bne.n	10003448 <ph_free_node+0x24>
10003440:	7be3      	ldrb	r3, [r4, #15]
10003442:	2b00      	cmp	r3, #0
10003444:	d10d      	bne.n	10003462 <ph_free_node+0x3e>
10003446:	73a5      	strb	r5, [r4, #14]
10003448:	73e5      	strb	r5, [r4, #15]
1000344a:	bd70      	pop	{r4, r5, r6, pc}
1000344c:	4b08      	ldr	r3, [pc, #32]	@ (10003470 <ph_free_node+0x4c>)
1000344e:	4a09      	ldr	r2, [pc, #36]	@ (10003474 <ph_free_node+0x50>)
10003450:	4809      	ldr	r0, [pc, #36]	@ (10003478 <ph_free_node+0x54>)
10003452:	21f6      	movs	r1, #246	@ 0xf6
10003454:	f001 f87c 	bl	10004550 <__assert_func>
10003458:	0020      	movs	r0, r4
1000345a:	f7ff ff33 	bl	100032c4 <ph_get_node>
1000345e:	7045      	strb	r5, [r0, #1]
10003460:	e7eb      	b.n	1000343a <ph_free_node+0x16>
10003462:	4b06      	ldr	r3, [pc, #24]	@ (1000347c <ph_free_node+0x58>)
10003464:	4a03      	ldr	r2, [pc, #12]	@ (10003474 <ph_free_node+0x50>)
10003466:	4804      	ldr	r0, [pc, #16]	@ (10003478 <ph_free_node+0x54>)
10003468:	21fb      	movs	r1, #251	@ 0xfb
1000346a:	f001 f871 	bl	10004550 <__assert_func>
1000346e:	46c0      	nop			@ (mov r8, r8)
10003470:	1000b8d4 	.word	0x1000b8d4
10003474:	1000c53c 	.word	0x1000c53c
10003478:	1000b854 	.word	0x1000b854
1000347c:	1000b8f8 	.word	0x1000b8f8

10003480 <get_entry_id_high>:
10003480:	b510      	push	{r4, lr}
10003482:	2900      	cmp	r1, #0
10003484:	d007      	beq.n	10003496 <get_entry_id_high+0x16>
10003486:	6803      	ldr	r3, [r0, #0]
10003488:	7b1b      	ldrb	r3, [r3, #12]
1000348a:	428b      	cmp	r3, r1
1000348c:	d303      	bcc.n	10003496 <get_entry_id_high+0x16>
1000348e:	68c0      	ldr	r0, [r0, #12]
10003490:	3901      	subs	r1, #1
10003492:	1840      	adds	r0, r0, r1
10003494:	bd10      	pop	{r4, pc}
10003496:	4b03      	ldr	r3, [pc, #12]	@ (100034a4 <get_entry_id_high+0x24>)
10003498:	4a03      	ldr	r2, [pc, #12]	@ (100034a8 <get_entry_id_high+0x28>)
1000349a:	4804      	ldr	r0, [pc, #16]	@ (100034ac <get_entry_id_high+0x2c>)
1000349c:	2141      	movs	r1, #65	@ 0x41
1000349e:	f001 f857 	bl	10004550 <__assert_func>
100034a2:	46c0      	nop			@ (mov r8, r8)
100034a4:	1000b7dc 	.word	0x1000b7dc
100034a8:	1000c528 	.word	0x1000c528
100034ac:	1000b800 	.word	0x1000b800

100034b0 <alarm_pool_post_alloc_init>:
100034b0:	b570      	push	{r4, r5, r6, lr}
100034b2:	0005      	movs	r5, r0
100034b4:	000c      	movs	r4, r1
100034b6:	0008      	movs	r0, r1
100034b8:	f000 fc72 	bl	10003da0 <hardware_alarm_cancel>
100034bc:	4909      	ldr	r1, [pc, #36]	@ (100034e4 <alarm_pool_post_alloc_init+0x34>)
100034be:	0020      	movs	r0, r4
100034c0:	f000 fbb2 	bl	10003c28 <hardware_alarm_set_callback>
100034c4:	f7ff fa94 	bl	100029f0 <next_striped_spin_lock_num>
100034c8:	4b07      	ldr	r3, [pc, #28]	@ (100034e8 <alarm_pool_post_alloc_init+0x38>)
100034ca:	469c      	mov	ip, r3
100034cc:	4460      	add	r0, ip
100034ce:	0080      	lsls	r0, r0, #2
100034d0:	6068      	str	r0, [r5, #4]
100034d2:	752c      	strb	r4, [r5, #20]
100034d4:	23d0      	movs	r3, #208	@ 0xd0
100034d6:	061b      	lsls	r3, r3, #24
100034d8:	781b      	ldrb	r3, [r3, #0]
100034da:	756b      	strb	r3, [r5, #21]
100034dc:	4b03      	ldr	r3, [pc, #12]	@ (100034ec <alarm_pool_post_alloc_init+0x3c>)
100034de:	00a4      	lsls	r4, r4, #2
100034e0:	50e5      	str	r5, [r4, r3]
100034e2:	bd70      	pop	{r4, r5, r6, pc}
100034e4:	100035d9 	.word	0x100035d9
100034e8:	34000040 	.word	0x34000040
100034ec:	200022f0 	.word	0x200022f0

100034f0 <sleep_until_callback>:
100034f0:	4b0a      	ldr	r3, [pc, #40]	@ (1000351c <sleep_until_callback+0x2c>)
100034f2:	681a      	ldr	r2, [r3, #0]
100034f4:	f3ef 8110 	mrs	r1, PRIMASK
100034f8:	b672      	cpsid	i
100034fa:	6813      	ldr	r3, [r2, #0]
100034fc:	2b00      	cmp	r3, #0
100034fe:	d0fc      	beq.n	100034fa <sleep_until_callback+0xa>
10003500:	f3bf 8f5f 	dmb	sy
10003504:	4b05      	ldr	r3, [pc, #20]	@ (1000351c <sleep_until_callback+0x2c>)
10003506:	681b      	ldr	r3, [r3, #0]
10003508:	f3bf 8f5f 	dmb	sy
1000350c:	2200      	movs	r2, #0
1000350e:	601a      	str	r2, [r3, #0]
10003510:	f381 8810 	msr	PRIMASK, r1
10003514:	bf40      	sev
10003516:	2000      	movs	r0, #0
10003518:	2100      	movs	r1, #0
1000351a:	4770      	bx	lr
1000351c:	20002514 	.word	0x20002514

10003520 <get_absolute_time>:
10003520:	b510      	push	{r4, lr}
10003522:	b082      	sub	sp, #8
10003524:	0004      	movs	r4, r0
10003526:	f000 fb17 	bl	10003b58 <time_us_64>
1000352a:	0002      	movs	r2, r0
1000352c:	000b      	movs	r3, r1
1000352e:	4668      	mov	r0, sp
10003530:	f7ff fe9c 	bl	1000326c <update_us_since_boot>
10003534:	9a00      	ldr	r2, [sp, #0]
10003536:	9b01      	ldr	r3, [sp, #4]
10003538:	6022      	str	r2, [r4, #0]
1000353a:	6063      	str	r3, [r4, #4]
1000353c:	0020      	movs	r0, r4
1000353e:	b002      	add	sp, #8
10003540:	bd10      	pop	{r4, pc}
	...

10003544 <add_alarm_under_lock>:
10003544:	b5f0      	push	{r4, r5, r6, r7, lr}
10003546:	b083      	sub	sp, #12
10003548:	0007      	movs	r7, r0
1000354a:	9201      	str	r2, [sp, #4]
1000354c:	001d      	movs	r5, r3
1000354e:	ab0a      	add	r3, sp, #40	@ 0x28
10003550:	781c      	ldrb	r4, [r3, #0]
10003552:	ab0b      	add	r3, sp, #44	@ 0x2c
10003554:	781e      	ldrb	r6, [r3, #0]
10003556:	2c00      	cmp	r4, #0
10003558:	d00b      	beq.n	10003572 <add_alarm_under_lock+0x2e>
1000355a:	6800      	ldr	r0, [r0, #0]
1000355c:	0021      	movs	r1, r4
1000355e:	f7ff fec9 	bl	100032f4 <ph_contains_node>
10003562:	2800      	cmp	r0, #0
10003564:	d009      	beq.n	1000357a <add_alarm_under_lock+0x36>
10003566:	4b19      	ldr	r3, [pc, #100]	@ (100035cc <add_alarm_under_lock+0x88>)
10003568:	4a19      	ldr	r2, [pc, #100]	@ (100035d0 <add_alarm_under_lock+0x8c>)
1000356a:	481a      	ldr	r0, [pc, #104]	@ (100035d4 <add_alarm_under_lock+0x90>)
1000356c:	2167      	movs	r1, #103	@ 0x67
1000356e:	f000 ffef 	bl	10004550 <__assert_func>
10003572:	6800      	ldr	r0, [r0, #0]
10003574:	f7ff fecd 	bl	10003312 <ph_new_node>
10003578:	0004      	movs	r4, r0
1000357a:	2c00      	cmp	r4, #0
1000357c:	d102      	bne.n	10003584 <add_alarm_under_lock+0x40>
1000357e:	0020      	movs	r0, r4
10003580:	b003      	add	sp, #12
10003582:	bdf0      	pop	{r4, r5, r6, r7, pc}
10003584:	0021      	movs	r1, r4
10003586:	0038      	movs	r0, r7
10003588:	f7ff fe3c 	bl	10003204 <get_entry>
1000358c:	9b01      	ldr	r3, [sp, #4]
1000358e:	6003      	str	r3, [r0, #0]
10003590:	6045      	str	r5, [r0, #4]
10003592:	9b08      	ldr	r3, [sp, #32]
10003594:	6083      	str	r3, [r0, #8]
10003596:	9b09      	ldr	r3, [sp, #36]	@ 0x24
10003598:	60c3      	str	r3, [r0, #12]
1000359a:	6838      	ldr	r0, [r7, #0]
1000359c:	0021      	movs	r1, r4
1000359e:	f7ff ff23 	bl	100033e8 <ph_insert_node>
100035a2:	42a0      	cmp	r0, r4
100035a4:	d1eb      	bne.n	1000357e <add_alarm_under_lock+0x3a>
100035a6:	7d38      	ldrb	r0, [r7, #20]
100035a8:	9a01      	ldr	r2, [sp, #4]
100035aa:	002b      	movs	r3, r5
100035ac:	f000 fb84 	bl	10003cb8 <hardware_alarm_set_target>
100035b0:	1e05      	subs	r5, r0, #0
100035b2:	d001      	beq.n	100035b8 <add_alarm_under_lock+0x74>
100035b4:	2e00      	cmp	r6, #0
100035b6:	d004      	beq.n	100035c2 <add_alarm_under_lock+0x7e>
100035b8:	9b0c      	ldr	r3, [sp, #48]	@ 0x30
100035ba:	2b00      	cmp	r3, #0
100035bc:	d0df      	beq.n	1000357e <add_alarm_under_lock+0x3a>
100035be:	701d      	strb	r5, [r3, #0]
100035c0:	e7dd      	b.n	1000357e <add_alarm_under_lock+0x3a>
100035c2:	6838      	ldr	r0, [r7, #0]
100035c4:	0021      	movs	r1, r4
100035c6:	f000 fd31 	bl	1000402c <ph_remove_and_free_node>
100035ca:	e7f5      	b.n	100035b8 <add_alarm_under_lock+0x74>
100035cc:	1000b90c 	.word	0x1000b90c
100035d0:	1000c57c 	.word	0x1000c57c
100035d4:	1000b800 	.word	0x1000b800

100035d8 <alarm_pool_alarm_callback>:
100035d8:	b5f0      	push	{r4, r5, r6, r7, lr}
100035da:	46de      	mov	lr, fp
100035dc:	4657      	mov	r7, sl
100035de:	464e      	mov	r6, r9
100035e0:	4645      	mov	r5, r8
100035e2:	b5e0      	push	{r5, r6, r7, lr}
100035e4:	b08f      	sub	sp, #60	@ 0x3c
100035e6:	900b      	str	r0, [sp, #44]	@ 0x2c
100035e8:	2100      	movs	r1, #0
100035ea:	4b79      	ldr	r3, [pc, #484]	@ (100037d0 <alarm_pool_alarm_callback+0x1f8>)
100035ec:	0082      	lsls	r2, r0, #2
100035ee:	58d4      	ldr	r4, [r2, r3]
100035f0:	4689      	mov	r9, r1
100035f2:	e083      	b.n	100036fc <alarm_pool_alarm_callback+0x124>
100035f4:	0029      	movs	r1, r5
100035f6:	0020      	movs	r0, r4
100035f8:	f7ff fe04 	bl	10003204 <get_entry>
100035fc:	4680      	mov	r8, r0
100035fe:	6802      	ldr	r2, [r0, #0]
10003600:	6843      	ldr	r3, [r0, #4]
10003602:	1b92      	subs	r2, r2, r6
10003604:	41bb      	sbcs	r3, r7
10003606:	2b00      	cmp	r3, #0
10003608:	dd09      	ble.n	1000361e <alarm_pool_alarm_callback+0x46>
1000360a:	4643      	mov	r3, r8
1000360c:	681a      	ldr	r2, [r3, #0]
1000360e:	685b      	ldr	r3, [r3, #4]
10003610:	980b      	ldr	r0, [sp, #44]	@ 0x2c
10003612:	f000 fb51 	bl	10003cb8 <hardware_alarm_set_target>
10003616:	2300      	movs	r3, #0
10003618:	4698      	mov	r8, r3
1000361a:	2600      	movs	r6, #0
1000361c:	e08a      	b.n	10003734 <alarm_pool_alarm_callback+0x15c>
1000361e:	2b00      	cmp	r3, #0
10003620:	d101      	bne.n	10003626 <alarm_pool_alarm_callback+0x4e>
10003622:	2a00      	cmp	r2, #0
10003624:	d1f1      	bne.n	1000360a <alarm_pool_alarm_callback+0x32>
10003626:	2100      	movs	r1, #0
10003628:	4658      	mov	r0, fp
1000362a:	f000 fcf5 	bl	10004018 <ph_remove_head>
1000362e:	0007      	movs	r7, r0
10003630:	42a8      	cmp	r0, r5
10003632:	d115      	bne.n	10003660 <alarm_pool_alarm_callback+0x88>
10003634:	4643      	mov	r3, r8
10003636:	681a      	ldr	r2, [r3, #0]
10003638:	685b      	ldr	r3, [r3, #4]
1000363a:	9208      	str	r2, [sp, #32]
1000363c:	9309      	str	r3, [sp, #36]	@ 0x24
1000363e:	4643      	mov	r3, r8
10003640:	689e      	ldr	r6, [r3, #8]
10003642:	68db      	ldr	r3, [r3, #12]
10003644:	4698      	mov	r8, r3
10003646:	2e00      	cmp	r6, #0
10003648:	d010      	beq.n	1000366c <alarm_pool_alarm_callback+0x94>
1000364a:	0029      	movs	r1, r5
1000364c:	0020      	movs	r0, r4
1000364e:	f7ff ff17 	bl	10003480 <get_entry_id_high>
10003652:	7803      	ldrb	r3, [r0, #0]
10003654:	4699      	mov	r9, r3
10003656:	021b      	lsls	r3, r3, #8
10003658:	431f      	orrs	r7, r3
1000365a:	6127      	str	r7, [r4, #16]
1000365c:	2000      	movs	r0, #0
1000365e:	e069      	b.n	10003734 <alarm_pool_alarm_callback+0x15c>
10003660:	4b5c      	ldr	r3, [pc, #368]	@ (100037d4 <alarm_pool_alarm_callback+0x1fc>)
10003662:	4a5d      	ldr	r2, [pc, #372]	@ (100037d8 <alarm_pool_alarm_callback+0x200>)
10003664:	485d      	ldr	r0, [pc, #372]	@ (100037dc <alarm_pool_alarm_callback+0x204>)
10003666:	218e      	movs	r1, #142	@ 0x8e
10003668:	f000 ff72 	bl	10004550 <__assert_func>
1000366c:	4b5c      	ldr	r3, [pc, #368]	@ (100037e0 <alarm_pool_alarm_callback+0x208>)
1000366e:	4a5a      	ldr	r2, [pc, #360]	@ (100037d8 <alarm_pool_alarm_callback+0x200>)
10003670:	485a      	ldr	r0, [pc, #360]	@ (100037dc <alarm_pool_alarm_callback+0x204>)
10003672:	2192      	movs	r1, #146	@ 0x92
10003674:	f000 ff6c 	bl	10004550 <__assert_func>
10003678:	6923      	ldr	r3, [r4, #16]
1000367a:	2b00      	cmp	r3, #0
1000367c:	d100      	bne.n	10003680 <alarm_pool_alarm_callback+0xa8>
1000367e:	e077      	b.n	10003770 <alarm_pool_alarm_callback+0x198>
10003680:	42bb      	cmp	r3, r7
10003682:	d119      	bne.n	100036b8 <alarm_pool_alarm_callback+0xe0>
10003684:	9806      	ldr	r0, [sp, #24]
10003686:	9907      	ldr	r1, [sp, #28]
10003688:	2300      	movs	r3, #0
1000368a:	4242      	negs	r2, r0
1000368c:	418b      	sbcs	r3, r1
1000368e:	9200      	str	r2, [sp, #0]
10003690:	9301      	str	r3, [sp, #4]
10003692:	9a08      	ldr	r2, [sp, #32]
10003694:	9b09      	ldr	r3, [sp, #36]	@ 0x24
10003696:	a80c      	add	r0, sp, #48	@ 0x30
10003698:	f7ff fdfa 	bl	10003290 <delayed_by_us>
1000369c:	9a0c      	ldr	r2, [sp, #48]	@ 0x30
1000369e:	9b0d      	ldr	r3, [sp, #52]	@ 0x34
100036a0:	2100      	movs	r1, #0
100036a2:	9104      	str	r1, [sp, #16]
100036a4:	3101      	adds	r1, #1
100036a6:	9103      	str	r1, [sp, #12]
100036a8:	9502      	str	r5, [sp, #8]
100036aa:	4641      	mov	r1, r8
100036ac:	9101      	str	r1, [sp, #4]
100036ae:	9600      	str	r6, [sp, #0]
100036b0:	0020      	movs	r0, r4
100036b2:	f7ff ff47 	bl	10003544 <add_alarm_under_lock>
100036b6:	e016      	b.n	100036e6 <alarm_pool_alarm_callback+0x10e>
100036b8:	4b4a      	ldr	r3, [pc, #296]	@ (100037e4 <alarm_pool_alarm_callback+0x20c>)
100036ba:	4a47      	ldr	r2, [pc, #284]	@ (100037d8 <alarm_pool_alarm_callback+0x200>)
100036bc:	4847      	ldr	r0, [pc, #284]	@ (100037dc <alarm_pool_alarm_callback+0x204>)
100036be:	21a1      	movs	r1, #161	@ 0xa1
100036c0:	f000 ff46 	bl	10004550 <__assert_func>
100036c4:	9a06      	ldr	r2, [sp, #24]
100036c6:	9b07      	ldr	r3, [sp, #28]
100036c8:	2b00      	cmp	r3, #0
100036ca:	d101      	bne.n	100036d0 <alarm_pool_alarm_callback+0xf8>
100036cc:	2a00      	cmp	r2, #0
100036ce:	d152      	bne.n	10003776 <alarm_pool_alarm_callback+0x19e>
100036d0:	6820      	ldr	r0, [r4, #0]
100036d2:	0029      	movs	r1, r5
100036d4:	f7ff fea6 	bl	10003424 <ph_free_node>
100036d8:	0029      	movs	r1, r5
100036da:	0020      	movs	r0, r4
100036dc:	f7ff fed0 	bl	10003480 <get_entry_id_high>
100036e0:	7803      	ldrb	r3, [r0, #0]
100036e2:	3301      	adds	r3, #1
100036e4:	7003      	strb	r3, [r0, #0]
100036e6:	2300      	movs	r3, #0
100036e8:	6123      	str	r3, [r4, #16]
100036ea:	6862      	ldr	r2, [r4, #4]
100036ec:	f3bf 8f5f 	dmb	sy
100036f0:	6013      	str	r3, [r2, #0]
100036f2:	f38a 8810 	msr	PRIMASK, sl
100036f6:	2001      	movs	r0, #1
100036f8:	2800      	cmp	r0, #0
100036fa:	d061      	beq.n	100037c0 <alarm_pool_alarm_callback+0x1e8>
100036fc:	a80c      	add	r0, sp, #48	@ 0x30
100036fe:	f7ff ff0f 	bl	10003520 <get_absolute_time>
10003702:	9e0c      	ldr	r6, [sp, #48]	@ 0x30
10003704:	9f0d      	ldr	r7, [sp, #52]	@ 0x34
10003706:	2200      	movs	r2, #0
10003708:	2300      	movs	r3, #0
1000370a:	9208      	str	r2, [sp, #32]
1000370c:	9309      	str	r3, [sp, #36]	@ 0x24
1000370e:	6862      	ldr	r2, [r4, #4]
10003710:	f3ef 8a10 	mrs	sl, PRIMASK
10003714:	b672      	cpsid	i
10003716:	6813      	ldr	r3, [r2, #0]
10003718:	2b00      	cmp	r3, #0
1000371a:	d0fc      	beq.n	10003716 <alarm_pool_alarm_callback+0x13e>
1000371c:	f3bf 8f5f 	dmb	sy
10003720:	6823      	ldr	r3, [r4, #0]
10003722:	469b      	mov	fp, r3
10003724:	7b5d      	ldrb	r5, [r3, #13]
10003726:	2d00      	cmp	r5, #0
10003728:	d000      	beq.n	1000372c <alarm_pool_alarm_callback+0x154>
1000372a:	e763      	b.n	100035f4 <alarm_pool_alarm_callback+0x1c>
1000372c:	2300      	movs	r3, #0
1000372e:	4698      	mov	r8, r3
10003730:	2600      	movs	r6, #0
10003732:	2000      	movs	r0, #0
10003734:	6863      	ldr	r3, [r4, #4]
10003736:	f3bf 8f5f 	dmb	sy
1000373a:	2200      	movs	r2, #0
1000373c:	601a      	str	r2, [r3, #0]
1000373e:	f38a 8810 	msr	PRIMASK, sl
10003742:	2e00      	cmp	r6, #0
10003744:	d0d8      	beq.n	100036f8 <alarm_pool_alarm_callback+0x120>
10003746:	464b      	mov	r3, r9
10003748:	021f      	lsls	r7, r3, #8
1000374a:	432f      	orrs	r7, r5
1000374c:	4641      	mov	r1, r8
1000374e:	0038      	movs	r0, r7
10003750:	47b0      	blx	r6
10003752:	9006      	str	r0, [sp, #24]
10003754:	9107      	str	r1, [sp, #28]
10003756:	6862      	ldr	r2, [r4, #4]
10003758:	f3ef 8a10 	mrs	sl, PRIMASK
1000375c:	b672      	cpsid	i
1000375e:	6813      	ldr	r3, [r2, #0]
10003760:	2b00      	cmp	r3, #0
10003762:	d0fc      	beq.n	1000375e <alarm_pool_alarm_callback+0x186>
10003764:	f3bf 8f5f 	dmb	sy
10003768:	9b07      	ldr	r3, [sp, #28]
1000376a:	2b00      	cmp	r3, #0
1000376c:	da00      	bge.n	10003770 <alarm_pool_alarm_callback+0x198>
1000376e:	e783      	b.n	10003678 <alarm_pool_alarm_callback+0xa0>
10003770:	9b07      	ldr	r3, [sp, #28]
10003772:	2b00      	cmp	r3, #0
10003774:	dda6      	ble.n	100036c4 <alarm_pool_alarm_callback+0xec>
10003776:	6923      	ldr	r3, [r4, #16]
10003778:	2b00      	cmp	r3, #0
1000377a:	d0a9      	beq.n	100036d0 <alarm_pool_alarm_callback+0xf8>
1000377c:	42bb      	cmp	r3, r7
1000377e:	d119      	bne.n	100037b4 <alarm_pool_alarm_callback+0x1dc>
10003780:	a80c      	add	r0, sp, #48	@ 0x30
10003782:	f7ff fecd 	bl	10003520 <get_absolute_time>
10003786:	9a0c      	ldr	r2, [sp, #48]	@ 0x30
10003788:	9b0d      	ldr	r3, [sp, #52]	@ 0x34
1000378a:	9806      	ldr	r0, [sp, #24]
1000378c:	9907      	ldr	r1, [sp, #28]
1000378e:	9000      	str	r0, [sp, #0]
10003790:	9101      	str	r1, [sp, #4]
10003792:	a80c      	add	r0, sp, #48	@ 0x30
10003794:	f7ff fd7c 	bl	10003290 <delayed_by_us>
10003798:	9a0c      	ldr	r2, [sp, #48]	@ 0x30
1000379a:	9b0d      	ldr	r3, [sp, #52]	@ 0x34
1000379c:	2100      	movs	r1, #0
1000379e:	9104      	str	r1, [sp, #16]
100037a0:	3101      	adds	r1, #1
100037a2:	9103      	str	r1, [sp, #12]
100037a4:	9502      	str	r5, [sp, #8]
100037a6:	4641      	mov	r1, r8
100037a8:	9101      	str	r1, [sp, #4]
100037aa:	9600      	str	r6, [sp, #0]
100037ac:	0020      	movs	r0, r4
100037ae:	f7ff fec9 	bl	10003544 <add_alarm_under_lock>
100037b2:	e798      	b.n	100036e6 <alarm_pool_alarm_callback+0x10e>
100037b4:	4b0b      	ldr	r3, [pc, #44]	@ (100037e4 <alarm_pool_alarm_callback+0x20c>)
100037b6:	4a08      	ldr	r2, [pc, #32]	@ (100037d8 <alarm_pool_alarm_callback+0x200>)
100037b8:	4808      	ldr	r0, [pc, #32]	@ (100037dc <alarm_pool_alarm_callback+0x204>)
100037ba:	21a4      	movs	r1, #164	@ 0xa4
100037bc:	f000 fec8 	bl	10004550 <__assert_func>
100037c0:	b00f      	add	sp, #60	@ 0x3c
100037c2:	bcf0      	pop	{r4, r5, r6, r7}
100037c4:	46bb      	mov	fp, r7
100037c6:	46b2      	mov	sl, r6
100037c8:	46a9      	mov	r9, r5
100037ca:	46a0      	mov	r8, r4
100037cc:	bdf0      	pop	{r4, r5, r6, r7, pc}
100037ce:	46c0      	nop			@ (mov r8, r8)
100037d0:	200022f0 	.word	0x200022f0
100037d4:	1000b934 	.word	0x1000b934
100037d8:	1000c5ac 	.word	0x1000c5ac
100037dc:	1000b800 	.word	0x1000b800
100037e0:	1000b94c 	.word	0x1000b94c
100037e4:	1000b958 	.word	0x1000b958

100037e8 <alarm_pool_init_default>:
100037e8:	b510      	push	{r4, lr}
100037ea:	4b0c      	ldr	r3, [pc, #48]	@ (1000381c <alarm_pool_init_default+0x34>)
100037ec:	685b      	ldr	r3, [r3, #4]
100037ee:	2b00      	cmp	r3, #0
100037f0:	d004      	beq.n	100037fc <alarm_pool_init_default+0x14>
100037f2:	480b      	ldr	r0, [pc, #44]	@ (10003820 <alarm_pool_init_default+0x38>)
100037f4:	210a      	movs	r1, #10
100037f6:	f7ff fc63 	bl	100030c0 <lock_init>
100037fa:	bd10      	pop	{r4, pc}
100037fc:	4c07      	ldr	r4, [pc, #28]	@ (1000381c <alarm_pool_init_default+0x34>)
100037fe:	4a09      	ldr	r2, [pc, #36]	@ (10003824 <alarm_pool_init_default+0x3c>)
10003800:	6820      	ldr	r0, [r4, #0]
10003802:	0023      	movs	r3, r4
10003804:	2110      	movs	r1, #16
10003806:	f000 fb72 	bl	10003eee <ph_post_alloc_init>
1000380a:	2003      	movs	r0, #3
1000380c:	f000 f998 	bl	10003b40 <hardware_alarm_claim>
10003810:	2103      	movs	r1, #3
10003812:	0020      	movs	r0, r4
10003814:	f7ff fe4c 	bl	100034b0 <alarm_pool_post_alloc_init>
10003818:	e7eb      	b.n	100037f2 <alarm_pool_init_default+0xa>
1000381a:	46c0      	nop			@ (mov r8, r8)
1000381c:	20000e18 	.word	0x20000e18
10003820:	20002514 	.word	0x20002514
10003824:	1000323d 	.word	0x1000323d

10003828 <alarm_pool_get_default>:
10003828:	b510      	push	{r4, lr}
1000382a:	4b06      	ldr	r3, [pc, #24]	@ (10003844 <alarm_pool_get_default+0x1c>)
1000382c:	685b      	ldr	r3, [r3, #4]
1000382e:	2b00      	cmp	r3, #0
10003830:	d001      	beq.n	10003836 <alarm_pool_get_default+0xe>
10003832:	4804      	ldr	r0, [pc, #16]	@ (10003844 <alarm_pool_get_default+0x1c>)
10003834:	bd10      	pop	{r4, pc}
10003836:	4b04      	ldr	r3, [pc, #16]	@ (10003848 <alarm_pool_get_default+0x20>)
10003838:	4a04      	ldr	r2, [pc, #16]	@ (1000384c <alarm_pool_get_default+0x24>)
1000383a:	4805      	ldr	r0, [pc, #20]	@ (10003850 <alarm_pool_get_default+0x28>)
1000383c:	215e      	movs	r1, #94	@ 0x5e
1000383e:	f000 fe87 	bl	10004550 <__assert_func>
10003842:	46c0      	nop			@ (mov r8, r8)
10003844:	20000e18 	.word	0x20000e18
10003848:	1000b994 	.word	0x1000b994
1000384c:	1000c510 	.word	0x1000c510
10003850:	1000b800 	.word	0x1000b800

10003854 <alarm_pool_add_alarm_at>:
10003854:	b5f0      	push	{r4, r5, r6, r7, lr}
10003856:	46de      	mov	lr, fp
10003858:	4657      	mov	r7, sl
1000385a:	464e      	mov	r6, r9
1000385c:	4645      	mov	r5, r8
1000385e:	b5e0      	push	{r5, r6, r7, lr}
10003860:	b08d      	sub	sp, #52	@ 0x34
10003862:	0006      	movs	r6, r0
10003864:	4690      	mov	r8, r2
10003866:	001f      	movs	r7, r3
10003868:	9b16      	ldr	r3, [sp, #88]	@ 0x58
1000386a:	469a      	mov	sl, r3
1000386c:	9b17      	ldr	r3, [sp, #92]	@ 0x5c
1000386e:	4699      	mov	r9, r3
10003870:	ab18      	add	r3, sp, #96	@ 0x60
10003872:	781b      	ldrb	r3, [r3, #0]
10003874:	9307      	str	r3, [sp, #28]
10003876:	2327      	movs	r3, #39	@ 0x27
10003878:	aa02      	add	r2, sp, #8
1000387a:	4694      	mov	ip, r2
1000387c:	4463      	add	r3, ip
1000387e:	2200      	movs	r2, #0
10003880:	701a      	strb	r2, [r3, #0]
10003882:	e021      	b.n	100038c8 <alarm_pool_add_alarm_at+0x74>
10003884:	0001      	movs	r1, r0
10003886:	0030      	movs	r0, r6
10003888:	f7ff fdfa 	bl	10003480 <get_entry_id_high>
1000388c:	7800      	ldrb	r0, [r0, #0]
1000388e:	e03c      	b.n	1000390a <alarm_pool_add_alarm_at+0xb6>
10003890:	9806      	ldr	r0, [sp, #24]
10003892:	2b00      	cmp	r3, #0
10003894:	d05c      	beq.n	10003950 <alarm_pool_add_alarm_at+0xfc>
10003896:	9b07      	ldr	r3, [sp, #28]
10003898:	2b00      	cmp	r3, #0
1000389a:	d059      	beq.n	10003950 <alarm_pool_add_alarm_at+0xfc>
1000389c:	4649      	mov	r1, r9
1000389e:	47d0      	blx	sl
100038a0:	0004      	movs	r4, r0
100038a2:	000d      	movs	r5, r1
100038a4:	0003      	movs	r3, r0
100038a6:	430b      	orrs	r3, r1
100038a8:	d059      	beq.n	1000395e <alarm_pool_add_alarm_at+0x10a>
100038aa:	2900      	cmp	r1, #0
100038ac:	db40      	blt.n	10003930 <alarm_pool_add_alarm_at+0xdc>
100038ae:	a808      	add	r0, sp, #32
100038b0:	f7ff fe36 	bl	10003520 <get_absolute_time>
100038b4:	9a08      	ldr	r2, [sp, #32]
100038b6:	9b09      	ldr	r3, [sp, #36]	@ 0x24
100038b8:	9400      	str	r4, [sp, #0]
100038ba:	9501      	str	r5, [sp, #4]
100038bc:	a808      	add	r0, sp, #32
100038be:	f7ff fce7 	bl	10003290 <delayed_by_us>
100038c2:	9b08      	ldr	r3, [sp, #32]
100038c4:	4698      	mov	r8, r3
100038c6:	9f09      	ldr	r7, [sp, #36]	@ 0x24
100038c8:	6872      	ldr	r2, [r6, #4]
100038ca:	f3ef 8b10 	mrs	fp, PRIMASK
100038ce:	b672      	cpsid	i
100038d0:	6813      	ldr	r3, [r2, #0]
100038d2:	4259      	negs	r1, r3
100038d4:	414b      	adcs	r3, r1
100038d6:	b2d9      	uxtb	r1, r3
100038d8:	9106      	str	r1, [sp, #24]
100038da:	2b00      	cmp	r3, #0
100038dc:	d1f8      	bne.n	100038d0 <alarm_pool_add_alarm_at+0x7c>
100038de:	f3bf 8f5f 	dmb	sy
100038e2:	3327      	adds	r3, #39	@ 0x27
100038e4:	aa02      	add	r2, sp, #8
100038e6:	4694      	mov	ip, r2
100038e8:	4463      	add	r3, ip
100038ea:	9304      	str	r3, [sp, #16]
100038ec:	2300      	movs	r3, #0
100038ee:	9303      	str	r3, [sp, #12]
100038f0:	9302      	str	r3, [sp, #8]
100038f2:	464b      	mov	r3, r9
100038f4:	9301      	str	r3, [sp, #4]
100038f6:	4653      	mov	r3, sl
100038f8:	9300      	str	r3, [sp, #0]
100038fa:	4642      	mov	r2, r8
100038fc:	003b      	movs	r3, r7
100038fe:	0030      	movs	r0, r6
10003900:	f7ff fe20 	bl	10003544 <add_alarm_under_lock>
10003904:	0004      	movs	r4, r0
10003906:	1e05      	subs	r5, r0, #0
10003908:	d1bc      	bne.n	10003884 <alarm_pool_add_alarm_at+0x30>
1000390a:	6873      	ldr	r3, [r6, #4]
1000390c:	f3bf 8f5f 	dmb	sy
10003910:	2100      	movs	r1, #0
10003912:	6019      	str	r1, [r3, #0]
10003914:	f38b 8810 	msr	PRIMASK, fp
10003918:	2d00      	cmp	r5, #0
1000391a:	d017      	beq.n	1000394c <alarm_pool_add_alarm_at+0xf8>
1000391c:	2327      	movs	r3, #39	@ 0x27
1000391e:	aa02      	add	r2, sp, #8
10003920:	4694      	mov	ip, r2
10003922:	4463      	add	r3, ip
10003924:	781b      	ldrb	r3, [r3, #0]
10003926:	2b00      	cmp	r3, #0
10003928:	d1b2      	bne.n	10003890 <alarm_pool_add_alarm_at+0x3c>
1000392a:	0200      	lsls	r0, r0, #8
1000392c:	4320      	orrs	r0, r4
1000392e:	e7b0      	b.n	10003892 <alarm_pool_add_alarm_at+0x3e>
10003930:	2300      	movs	r3, #0
10003932:	4262      	negs	r2, r4
10003934:	41ab      	sbcs	r3, r5
10003936:	9200      	str	r2, [sp, #0]
10003938:	9301      	str	r3, [sp, #4]
1000393a:	4642      	mov	r2, r8
1000393c:	003b      	movs	r3, r7
1000393e:	a808      	add	r0, sp, #32
10003940:	f7ff fca6 	bl	10003290 <delayed_by_us>
10003944:	9b08      	ldr	r3, [sp, #32]
10003946:	4698      	mov	r8, r3
10003948:	9f09      	ldr	r7, [sp, #36]	@ 0x24
1000394a:	e7bd      	b.n	100038c8 <alarm_pool_add_alarm_at+0x74>
1000394c:	2001      	movs	r0, #1
1000394e:	4240      	negs	r0, r0
10003950:	b00d      	add	sp, #52	@ 0x34
10003952:	bcf0      	pop	{r4, r5, r6, r7}
10003954:	46bb      	mov	fp, r7
10003956:	46b2      	mov	sl, r6
10003958:	46a9      	mov	r9, r5
1000395a:	46a0      	mov	r8, r4
1000395c:	bdf0      	pop	{r4, r5, r6, r7, pc}
1000395e:	9806      	ldr	r0, [sp, #24]
10003960:	e7f6      	b.n	10003950 <alarm_pool_add_alarm_at+0xfc>

10003962 <add_alarm_at>:
10003962:	b5f0      	push	{r4, r5, r6, r7, lr}
10003964:	46c6      	mov	lr, r8
10003966:	b500      	push	{lr}
10003968:	b084      	sub	sp, #16
1000396a:	0005      	movs	r5, r0
1000396c:	4688      	mov	r8, r1
1000396e:	0016      	movs	r6, r2
10003970:	001f      	movs	r7, r3
10003972:	ab0a      	add	r3, sp, #40	@ 0x28
10003974:	781c      	ldrb	r4, [r3, #0]
10003976:	f7ff ff57 	bl	10003828 <alarm_pool_get_default>
1000397a:	9402      	str	r4, [sp, #8]
1000397c:	9701      	str	r7, [sp, #4]
1000397e:	9600      	str	r6, [sp, #0]
10003980:	002a      	movs	r2, r5
10003982:	4643      	mov	r3, r8
10003984:	f7ff ff66 	bl	10003854 <alarm_pool_add_alarm_at>
10003988:	b004      	add	sp, #16
1000398a:	bc80      	pop	{r7}
1000398c:	46b8      	mov	r8, r7
1000398e:	bdf0      	pop	{r4, r5, r6, r7, pc}

10003990 <alarm_pool_cancel_alarm>:
10003990:	b5f0      	push	{r4, r5, r6, r7, lr}
10003992:	46c6      	mov	lr, r8
10003994:	b500      	push	{lr}
10003996:	0005      	movs	r5, r0
10003998:	1e0c      	subs	r4, r1, #0
1000399a:	d042      	beq.n	10003a22 <alarm_pool_cancel_alarm+0x92>
1000399c:	6842      	ldr	r2, [r0, #4]
1000399e:	f3ef 8710 	mrs	r7, PRIMASK
100039a2:	b672      	cpsid	i
100039a4:	6813      	ldr	r3, [r2, #0]
100039a6:	2b00      	cmp	r3, #0
100039a8:	d0fc      	beq.n	100039a4 <alarm_pool_cancel_alarm+0x14>
100039aa:	f3bf 8f5f 	dmb	sy
100039ae:	b2e6      	uxtb	r6, r4
100039b0:	682b      	ldr	r3, [r5, #0]
100039b2:	4698      	mov	r8, r3
100039b4:	0031      	movs	r1, r6
100039b6:	0018      	movs	r0, r3
100039b8:	f7ff fc9c 	bl	100032f4 <ph_contains_node>
100039bc:	2800      	cmp	r0, #0
100039be:	d02a      	beq.n	10003a16 <alarm_pool_cancel_alarm+0x86>
100039c0:	692b      	ldr	r3, [r5, #16]
100039c2:	42a3      	cmp	r3, r4
100039c4:	d013      	beq.n	100039ee <alarm_pool_cancel_alarm+0x5e>
100039c6:	0a24      	lsrs	r4, r4, #8
100039c8:	b2e4      	uxtb	r4, r4
100039ca:	0031      	movs	r1, r6
100039cc:	0028      	movs	r0, r5
100039ce:	f7ff fd57 	bl	10003480 <get_entry_id_high>
100039d2:	7803      	ldrb	r3, [r0, #0]
100039d4:	42a3      	cmp	r3, r4
100039d6:	d011      	beq.n	100039fc <alarm_pool_cancel_alarm+0x6c>
100039d8:	2000      	movs	r0, #0
100039da:	686b      	ldr	r3, [r5, #4]
100039dc:	f3bf 8f5f 	dmb	sy
100039e0:	2200      	movs	r2, #0
100039e2:	601a      	str	r2, [r3, #0]
100039e4:	f387 8810 	msr	PRIMASK, r7
100039e8:	bc80      	pop	{r7}
100039ea:	46b8      	mov	r8, r7
100039ec:	bdf0      	pop	{r4, r5, r6, r7, pc}
100039ee:	4b0e      	ldr	r3, [pc, #56]	@ (10003a28 <alarm_pool_cancel_alarm+0x98>)
100039f0:	4a0e      	ldr	r2, [pc, #56]	@ (10003a2c <alarm_pool_cancel_alarm+0x9c>)
100039f2:	212c      	movs	r1, #44	@ 0x2c
100039f4:	480e      	ldr	r0, [pc, #56]	@ (10003a30 <alarm_pool_cancel_alarm+0xa0>)
100039f6:	31ff      	adds	r1, #255	@ 0xff
100039f8:	f000 fdaa 	bl	10004550 <__assert_func>
100039fc:	0031      	movs	r1, r6
100039fe:	4640      	mov	r0, r8
10003a00:	f000 fb14 	bl	1000402c <ph_remove_and_free_node>
10003a04:	2800      	cmp	r0, #0
10003a06:	d1e8      	bne.n	100039da <alarm_pool_cancel_alarm+0x4a>
10003a08:	4b0a      	ldr	r3, [pc, #40]	@ (10003a34 <alarm_pool_cancel_alarm+0xa4>)
10003a0a:	4a08      	ldr	r2, [pc, #32]	@ (10003a2c <alarm_pool_cancel_alarm+0x9c>)
10003a0c:	2199      	movs	r1, #153	@ 0x99
10003a0e:	4808      	ldr	r0, [pc, #32]	@ (10003a30 <alarm_pool_cancel_alarm+0xa0>)
10003a10:	0049      	lsls	r1, r1, #1
10003a12:	f000 fd9d 	bl	10004550 <__assert_func>
10003a16:	692b      	ldr	r3, [r5, #16]
10003a18:	42a3      	cmp	r3, r4
10003a1a:	d1de      	bne.n	100039da <alarm_pool_cancel_alarm+0x4a>
10003a1c:	2300      	movs	r3, #0
10003a1e:	612b      	str	r3, [r5, #16]
10003a20:	e7db      	b.n	100039da <alarm_pool_cancel_alarm+0x4a>
10003a22:	2000      	movs	r0, #0
10003a24:	e7e0      	b.n	100039e8 <alarm_pool_cancel_alarm+0x58>
10003a26:	46c0      	nop			@ (mov r8, r8)
10003a28:	1000b9b8 	.word	0x1000b9b8
10003a2c:	1000c4f8 	.word	0x1000c4f8
10003a30:	1000b800 	.word	0x1000b800
10003a34:	1000b9dc 	.word	0x1000b9dc

10003a38 <cancel_alarm>:
10003a38:	b510      	push	{r4, lr}
10003a3a:	0004      	movs	r4, r0
10003a3c:	f7ff fef4 	bl	10003828 <alarm_pool_get_default>
10003a40:	0021      	movs	r1, r4
10003a42:	f7ff ffa5 	bl	10003990 <alarm_pool_cancel_alarm>
10003a46:	bd10      	pop	{r4, pc}

10003a48 <alarm_pool_core_num>:
10003a48:	7d40      	ldrb	r0, [r0, #21]
10003a4a:	4770      	bx	lr

10003a4c <best_effort_wfe_or_timeout>:
10003a4c:	b530      	push	{r4, r5, lr}
10003a4e:	b083      	sub	sp, #12
10003a50:	0005      	movs	r5, r0
10003a52:	000c      	movs	r4, r1
10003a54:	f3ef 8305 	mrs	r3, IPSR
10003a58:	2b00      	cmp	r3, #0
10003a5a:	d10f      	bne.n	10003a7c <best_effort_wfe_or_timeout+0x30>
10003a5c:	4a0b      	ldr	r2, [pc, #44]	@ (10003a8c <best_effort_wfe_or_timeout+0x40>)
10003a5e:	2300      	movs	r3, #0
10003a60:	9300      	str	r3, [sp, #0]
10003a62:	f7ff ff7e 	bl	10003962 <add_alarm_at>
10003a66:	2800      	cmp	r0, #0
10003a68:	dd0b      	ble.n	10003a82 <best_effort_wfe_or_timeout+0x36>
10003a6a:	bf20      	wfe
10003a6c:	f7ff ffe4 	bl	10003a38 <cancel_alarm>
10003a70:	0028      	movs	r0, r5
10003a72:	0021      	movs	r1, r4
10003a74:	f7ff fbb2 	bl	100031dc <time_reached>
10003a78:	b003      	add	sp, #12
10003a7a:	bd30      	pop	{r4, r5, pc}
10003a7c:	f7ff fbae 	bl	100031dc <time_reached>
10003a80:	e7fa      	b.n	10003a78 <best_effort_wfe_or_timeout+0x2c>
10003a82:	0028      	movs	r0, r5
10003a84:	0021      	movs	r1, r4
10003a86:	f7ff fba9 	bl	100031dc <time_reached>
10003a8a:	e7f5      	b.n	10003a78 <best_effort_wfe_or_timeout+0x2c>
10003a8c:	100034f1 	.word	0x100034f1

10003a90 <update_us_since_boot>:
10003a90:	b510      	push	{r4, lr}
10003a92:	2b00      	cmp	r3, #0
10003a94:	db02      	blt.n	10003a9c <update_us_since_boot+0xc>
10003a96:	6002      	str	r2, [r0, #0]
10003a98:	6043      	str	r3, [r0, #4]
10003a9a:	bd10      	pop	{r4, pc}
10003a9c:	4b02      	ldr	r3, [pc, #8]	@ (10003aa8 <update_us_since_boot+0x18>)
10003a9e:	4a03      	ldr	r2, [pc, #12]	@ (10003aac <update_us_since_boot+0x1c>)
10003aa0:	4803      	ldr	r0, [pc, #12]	@ (10003ab0 <update_us_since_boot+0x20>)
10003aa2:	213f      	movs	r1, #63	@ 0x3f
10003aa4:	f000 fd54 	bl	10004550 <__assert_func>
10003aa8:	1000b6ec 	.word	0x1000b6ec
10003aac:	1000c5f0 	.word	0x1000c5f0
10003ab0:	1000b708 	.word	0x1000b708

10003ab4 <hardware_alarm_irq_handler>:
10003ab4:	b570      	push	{r4, r5, r6, lr}
10003ab6:	f3ef 8005 	mrs	r0, IPSR
10003aba:	3810      	subs	r0, #16
10003abc:	f3ef 8c10 	mrs	ip, PRIMASK
10003ac0:	b672      	cpsid	i
10003ac2:	4b19      	ldr	r3, [pc, #100]	@ (10003b28 <hardware_alarm_irq_handler+0x74>)
10003ac4:	681b      	ldr	r3, [r3, #0]
10003ac6:	2b00      	cmp	r3, #0
10003ac8:	d0fb      	beq.n	10003ac2 <hardware_alarm_irq_handler+0xe>
10003aca:	f3bf 8f5f 	dmb	sy
10003ace:	2201      	movs	r2, #1
10003ad0:	0013      	movs	r3, r2
10003ad2:	4083      	lsls	r3, r0
10003ad4:	4915      	ldr	r1, [pc, #84]	@ (10003b2c <hardware_alarm_irq_handler+0x78>)
10003ad6:	634b      	str	r3, [r1, #52]	@ 0x34
10003ad8:	4915      	ldr	r1, [pc, #84]	@ (10003b30 <hardware_alarm_irq_handler+0x7c>)
10003ada:	600b      	str	r3, [r1, #0]
10003adc:	4915      	ldr	r1, [pc, #84]	@ (10003b34 <hardware_alarm_irq_handler+0x80>)
10003ade:	7809      	ldrb	r1, [r1, #0]
10003ae0:	000c      	movs	r4, r1
10003ae2:	40c4      	lsrs	r4, r0
10003ae4:	4222      	tst	r2, r4
10003ae6:	d013      	beq.n	10003b10 <hardware_alarm_irq_handler+0x5c>
10003ae8:	4a10      	ldr	r2, [pc, #64]	@ (10003b2c <hardware_alarm_irq_handler+0x78>)
10003aea:	6a54      	ldr	r4, [r2, #36]	@ 0x24
10003aec:	4a12      	ldr	r2, [pc, #72]	@ (10003b38 <hardware_alarm_irq_handler+0x84>)
10003aee:	0085      	lsls	r5, r0, #2
10003af0:	58aa      	ldr	r2, [r5, r2]
10003af2:	4294      	cmp	r4, r2
10003af4:	d305      	bcc.n	10003b02 <hardware_alarm_irq_handler+0x4e>
10003af6:	4a11      	ldr	r2, [pc, #68]	@ (10003b3c <hardware_alarm_irq_handler+0x88>)
10003af8:	58aa      	ldr	r2, [r5, r2]
10003afa:	4c0e      	ldr	r4, [pc, #56]	@ (10003b34 <hardware_alarm_irq_handler+0x80>)
10003afc:	4399      	bics	r1, r3
10003afe:	7021      	strb	r1, [r4, #0]
10003b00:	e007      	b.n	10003b12 <hardware_alarm_irq_handler+0x5e>
10003b02:	4a0a      	ldr	r2, [pc, #40]	@ (10003b2c <hardware_alarm_irq_handler+0x78>)
10003b04:	1d03      	adds	r3, r0, #4
10003b06:	009b      	lsls	r3, r3, #2
10003b08:	5899      	ldr	r1, [r3, r2]
10003b0a:	5099      	str	r1, [r3, r2]
10003b0c:	2200      	movs	r2, #0
10003b0e:	e000      	b.n	10003b12 <hardware_alarm_irq_handler+0x5e>
10003b10:	2200      	movs	r2, #0
10003b12:	f3bf 8f5f 	dmb	sy
10003b16:	4b04      	ldr	r3, [pc, #16]	@ (10003b28 <hardware_alarm_irq_handler+0x74>)
10003b18:	2100      	movs	r1, #0
10003b1a:	6019      	str	r1, [r3, #0]
10003b1c:	f38c 8810 	msr	PRIMASK, ip
10003b20:	2a00      	cmp	r2, #0
10003b22:	d000      	beq.n	10003b26 <hardware_alarm_irq_handler+0x72>
10003b24:	4790      	blx	r2
10003b26:	bd70      	pop	{r4, r5, r6, pc}
10003b28:	d0000128 	.word	0xd0000128
10003b2c:	40054000 	.word	0x40054000
10003b30:	4005703c 	.word	0x4005703c
10003b34:	2000255d 	.word	0x2000255d
10003b38:	20002520 	.word	0x20002520
10003b3c:	20001cd8 	.word	0x20001cd8

10003b40 <hardware_alarm_claim>:
10003b40:	b510      	push	{r4, lr}
10003b42:	0001      	movs	r1, r0
10003b44:	4a02      	ldr	r2, [pc, #8]	@ (10003b50 <hardware_alarm_claim+0x10>)
10003b46:	4b03      	ldr	r3, [pc, #12]	@ (10003b54 <hardware_alarm_claim+0x14>)
10003b48:	0018      	movs	r0, r3
10003b4a:	f7fe feff 	bl	1000294c <hw_claim_or_assert>
10003b4e:	bd10      	pop	{r4, pc}
10003b50:	1000b9e0 	.word	0x1000b9e0
10003b54:	20002550 	.word	0x20002550

10003b58 <time_us_64>:
10003b58:	4b04      	ldr	r3, [pc, #16]	@ (10003b6c <time_us_64+0x14>)
10003b5a:	6a5b      	ldr	r3, [r3, #36]	@ 0x24
10003b5c:	4a03      	ldr	r2, [pc, #12]	@ (10003b6c <time_us_64+0x14>)
10003b5e:	6a90      	ldr	r0, [r2, #40]	@ 0x28
10003b60:	0019      	movs	r1, r3
10003b62:	6a53      	ldr	r3, [r2, #36]	@ 0x24
10003b64:	4299      	cmp	r1, r3
10003b66:	d1f9      	bne.n	10003b5c <time_us_64+0x4>
10003b68:	4770      	bx	lr
10003b6a:	46c0      	nop			@ (mov r8, r8)
10003b6c:	40054000 	.word	0x40054000

10003b70 <busy_wait_until>:
10003b70:	4b08      	ldr	r3, [pc, #32]	@ (10003b94 <busy_wait_until+0x24>)
10003b72:	6a5b      	ldr	r3, [r3, #36]	@ 0x24
10003b74:	e001      	b.n	10003b7a <busy_wait_until+0xa>
10003b76:	4b07      	ldr	r3, [pc, #28]	@ (10003b94 <busy_wait_until+0x24>)
10003b78:	6a5b      	ldr	r3, [r3, #36]	@ 0x24
10003b7a:	428b      	cmp	r3, r1
10003b7c:	d3fb      	bcc.n	10003b76 <busy_wait_until+0x6>
10003b7e:	e001      	b.n	10003b84 <busy_wait_until+0x14>
10003b80:	4b04      	ldr	r3, [pc, #16]	@ (10003b94 <busy_wait_until+0x24>)
10003b82:	6a5b      	ldr	r3, [r3, #36]	@ 0x24
10003b84:	428b      	cmp	r3, r1
10003b86:	d103      	bne.n	10003b90 <busy_wait_until+0x20>
10003b88:	4b02      	ldr	r3, [pc, #8]	@ (10003b94 <busy_wait_until+0x24>)
10003b8a:	6a9b      	ldr	r3, [r3, #40]	@ 0x28
10003b8c:	4283      	cmp	r3, r0
10003b8e:	d3f7      	bcc.n	10003b80 <busy_wait_until+0x10>
10003b90:	4770      	bx	lr
10003b92:	46c0      	nop			@ (mov r8, r8)
10003b94:	40054000 	.word	0x40054000

10003b98 <busy_wait_us>:
10003b98:	b5f0      	push	{r4, r5, r6, r7, lr}
10003b9a:	b083      	sub	sp, #12
10003b9c:	0004      	movs	r4, r0
10003b9e:	000d      	movs	r5, r1
10003ba0:	f7ff ffda 	bl	10003b58 <time_us_64>
10003ba4:	0006      	movs	r6, r0
10003ba6:	000f      	movs	r7, r1
10003ba8:	0022      	movs	r2, r4
10003baa:	002b      	movs	r3, r5
10003bac:	1992      	adds	r2, r2, r6
10003bae:	417b      	adcs	r3, r7
10003bb0:	4299      	cmp	r1, r3
10003bb2:	d802      	bhi.n	10003bba <busy_wait_us+0x22>
10003bb4:	d104      	bne.n	10003bc0 <busy_wait_us+0x28>
10003bb6:	4290      	cmp	r0, r2
10003bb8:	d902      	bls.n	10003bc0 <busy_wait_us+0x28>
10003bba:	2201      	movs	r2, #1
10003bbc:	4252      	negs	r2, r2
10003bbe:	17d3      	asrs	r3, r2, #31
10003bc0:	4668      	mov	r0, sp
10003bc2:	f7ff ff65 	bl	10003a90 <update_us_since_boot>
10003bc6:	9800      	ldr	r0, [sp, #0]
10003bc8:	9901      	ldr	r1, [sp, #4]
10003bca:	f7ff ffd1 	bl	10003b70 <busy_wait_until>
10003bce:	b003      	add	sp, #12
10003bd0:	bdf0      	pop	{r4, r5, r6, r7, pc}
	...

10003bd4 <busy_wait_us_32>:
10003bd4:	b510      	push	{r4, lr}
10003bd6:	2800      	cmp	r0, #0
10003bd8:	db07      	blt.n	10003bea <busy_wait_us_32+0x16>
10003bda:	4b06      	ldr	r3, [pc, #24]	@ (10003bf4 <busy_wait_us_32+0x20>)
10003bdc:	6a9a      	ldr	r2, [r3, #40]	@ 0x28
10003bde:	4b05      	ldr	r3, [pc, #20]	@ (10003bf4 <busy_wait_us_32+0x20>)
10003be0:	6a9b      	ldr	r3, [r3, #40]	@ 0x28
10003be2:	1a9b      	subs	r3, r3, r2
10003be4:	4283      	cmp	r3, r0
10003be6:	d3fa      	bcc.n	10003bde <busy_wait_us_32+0xa>
10003be8:	bd10      	pop	{r4, pc}
10003bea:	2100      	movs	r1, #0
10003bec:	f7ff ffd4 	bl	10003b98 <busy_wait_us>
10003bf0:	e7fa      	b.n	10003be8 <busy_wait_us_32+0x14>
10003bf2:	46c0      	nop			@ (mov r8, r8)
10003bf4:	40054000 	.word	0x40054000

10003bf8 <busy_wait_ms>:
10003bf8:	b510      	push	{r4, lr}
10003bfa:	4b0a      	ldr	r3, [pc, #40]	@ (10003c24 <busy_wait_ms+0x2c>)
10003bfc:	4298      	cmp	r0, r3
10003bfe:	d807      	bhi.n	10003c10 <busy_wait_ms+0x18>
10003c00:	0143      	lsls	r3, r0, #5
10003c02:	1a1b      	subs	r3, r3, r0
10003c04:	009b      	lsls	r3, r3, #2
10003c06:	1818      	adds	r0, r3, r0
10003c08:	00c0      	lsls	r0, r0, #3
10003c0a:	f7ff ffe3 	bl	10003bd4 <busy_wait_us_32>
10003c0e:	bd10      	pop	{r4, pc}
10003c10:	22fa      	movs	r2, #250	@ 0xfa
10003c12:	0092      	lsls	r2, r2, #2
10003c14:	2300      	movs	r3, #0
10003c16:	2100      	movs	r1, #0
10003c18:	f003 fa2a 	bl	10007070 <__wrap___aeabi_lmul>
10003c1c:	f7ff ffbc 	bl	10003b98 <busy_wait_us>
10003c20:	e7f5      	b.n	10003c0e <busy_wait_ms+0x16>
10003c22:	46c0      	nop			@ (mov r8, r8)
10003c24:	0020c49b 	.word	0x0020c49b

10003c28 <hardware_alarm_set_callback>:
10003c28:	b570      	push	{r4, r5, r6, lr}
10003c2a:	0004      	movs	r4, r0
10003c2c:	000e      	movs	r6, r1
10003c2e:	f3ef 8510 	mrs	r5, PRIMASK
10003c32:	b672      	cpsid	i
10003c34:	4b1b      	ldr	r3, [pc, #108]	@ (10003ca4 <hardware_alarm_set_callback+0x7c>)
10003c36:	681b      	ldr	r3, [r3, #0]
10003c38:	2b00      	cmp	r3, #0
10003c3a:	d0fb      	beq.n	10003c34 <hardware_alarm_set_callback+0xc>
10003c3c:	f3bf 8f5f 	dmb	sy
10003c40:	2e00      	cmp	r6, #0
10003c42:	d01c      	beq.n	10003c7e <hardware_alarm_set_callback+0x56>
10003c44:	0020      	movs	r0, r4
10003c46:	f7fe ff8f 	bl	10002b68 <irq_get_vtable_handler>
10003c4a:	4b17      	ldr	r3, [pc, #92]	@ (10003ca8 <hardware_alarm_set_callback+0x80>)
10003c4c:	4283      	cmp	r3, r0
10003c4e:	d00b      	beq.n	10003c68 <hardware_alarm_set_callback+0x40>
10003c50:	0019      	movs	r1, r3
10003c52:	0020      	movs	r0, r4
10003c54:	f7fe ffa2 	bl	10002b9c <irq_set_exclusive_handler>
10003c58:	2101      	movs	r1, #1
10003c5a:	0020      	movs	r0, r4
10003c5c:	f7fe ff74 	bl	10002b48 <irq_set_enabled>
10003c60:	2301      	movs	r3, #1
10003c62:	40a3      	lsls	r3, r4
10003c64:	4a11      	ldr	r2, [pc, #68]	@ (10003cac <hardware_alarm_set_callback+0x84>)
10003c66:	6013      	str	r3, [r2, #0]
10003c68:	4b11      	ldr	r3, [pc, #68]	@ (10003cb0 <hardware_alarm_set_callback+0x88>)
10003c6a:	00a4      	lsls	r4, r4, #2
10003c6c:	50e6      	str	r6, [r4, r3]
10003c6e:	f3bf 8f5f 	dmb	sy
10003c72:	4b0c      	ldr	r3, [pc, #48]	@ (10003ca4 <hardware_alarm_set_callback+0x7c>)
10003c74:	2200      	movs	r2, #0
10003c76:	601a      	str	r2, [r3, #0]
10003c78:	f385 8810 	msr	PRIMASK, r5
10003c7c:	bd70      	pop	{r4, r5, r6, pc}
10003c7e:	4b0c      	ldr	r3, [pc, #48]	@ (10003cb0 <hardware_alarm_set_callback+0x88>)
10003c80:	00a2      	lsls	r2, r4, #2
10003c82:	2100      	movs	r1, #0
10003c84:	50d1      	str	r1, [r2, r3]
10003c86:	2201      	movs	r2, #1
10003c88:	40a2      	lsls	r2, r4
10003c8a:	490a      	ldr	r1, [pc, #40]	@ (10003cb4 <hardware_alarm_set_callback+0x8c>)
10003c8c:	780b      	ldrb	r3, [r1, #0]
10003c8e:	4393      	bics	r3, r2
10003c90:	700b      	strb	r3, [r1, #0]
10003c92:	4905      	ldr	r1, [pc, #20]	@ (10003ca8 <hardware_alarm_set_callback+0x80>)
10003c94:	0020      	movs	r0, r4
10003c96:	f7ff f8b3 	bl	10002e00 <irq_remove_handler>
10003c9a:	2100      	movs	r1, #0
10003c9c:	0020      	movs	r0, r4
10003c9e:	f7fe ff53 	bl	10002b48 <irq_set_enabled>
10003ca2:	e7e4      	b.n	10003c6e <hardware_alarm_set_callback+0x46>
10003ca4:	d0000128 	.word	0xd0000128
10003ca8:	10003ab5 	.word	0x10003ab5
10003cac:	40056038 	.word	0x40056038
10003cb0:	20001cd8 	.word	0x20001cd8
10003cb4:	2000255d 	.word	0x2000255d

10003cb8 <hardware_alarm_set_target>:
10003cb8:	b5f0      	push	{r4, r5, r6, r7, lr}
10003cba:	46de      	mov	lr, fp
10003cbc:	b500      	push	{lr}
10003cbe:	b084      	sub	sp, #16
10003cc0:	0004      	movs	r4, r0
10003cc2:	0015      	movs	r5, r2
10003cc4:	9201      	str	r2, [sp, #4]
10003cc6:	001e      	movs	r6, r3
10003cc8:	9302      	str	r3, [sp, #8]
10003cca:	f7ff ff45 	bl	10003b58 <time_us_64>
10003cce:	9503      	str	r5, [sp, #12]
10003cd0:	428e      	cmp	r6, r1
10003cd2:	d802      	bhi.n	10003cda <hardware_alarm_set_target+0x22>
10003cd4:	d14e      	bne.n	10003d74 <hardware_alarm_set_target+0xbc>
10003cd6:	4285      	cmp	r5, r0
10003cd8:	d94c      	bls.n	10003d74 <hardware_alarm_set_target+0xbc>
10003cda:	f3ef 8b10 	mrs	fp, PRIMASK
10003cde:	b672      	cpsid	i
10003ce0:	4b27      	ldr	r3, [pc, #156]	@ (10003d80 <hardware_alarm_set_target+0xc8>)
10003ce2:	681b      	ldr	r3, [r3, #0]
10003ce4:	2b00      	cmp	r3, #0
10003ce6:	d0fb      	beq.n	10003ce0 <hardware_alarm_set_target+0x28>
10003ce8:	f3bf 8f5f 	dmb	sy
10003cec:	4a25      	ldr	r2, [pc, #148]	@ (10003d84 <hardware_alarm_set_target+0xcc>)
10003cee:	7817      	ldrb	r7, [r2, #0]
10003cf0:	2501      	movs	r5, #1
10003cf2:	40a5      	lsls	r5, r4
10003cf4:	b2eb      	uxtb	r3, r5
10003cf6:	433b      	orrs	r3, r7
10003cf8:	7013      	strb	r3, [r2, #0]
10003cfa:	4b23      	ldr	r3, [pc, #140]	@ (10003d88 <hardware_alarm_set_target+0xd0>)
10003cfc:	635d      	str	r5, [r3, #52]	@ 0x34
10003cfe:	1d22      	adds	r2, r4, #4
10003d00:	0092      	lsls	r2, r2, #2
10003d02:	9901      	ldr	r1, [sp, #4]
10003d04:	50d1      	str	r1, [r2, r3]
10003d06:	4a21      	ldr	r2, [pc, #132]	@ (10003d8c <hardware_alarm_set_target+0xd4>)
10003d08:	00a1      	lsls	r1, r4, #2
10003d0a:	9802      	ldr	r0, [sp, #8]
10003d0c:	5088      	str	r0, [r1, r2]
10003d0e:	6a1b      	ldr	r3, [r3, #32]
10003d10:	422b      	tst	r3, r5
10003d12:	d112      	bne.n	10003d3a <hardware_alarm_set_target+0x82>
10003d14:	4b1c      	ldr	r3, [pc, #112]	@ (10003d88 <hardware_alarm_set_target+0xd0>)
10003d16:	6c1b      	ldr	r3, [r3, #64]	@ 0x40
10003d18:	422b      	tst	r3, r5
10003d1a:	d008      	beq.n	10003d2e <hardware_alarm_set_target+0x76>
10003d1c:	2000      	movs	r0, #0
10003d1e:	f3bf 8f5f 	dmb	sy
10003d22:	4b17      	ldr	r3, [pc, #92]	@ (10003d80 <hardware_alarm_set_target+0xc8>)
10003d24:	2200      	movs	r2, #0
10003d26:	601a      	str	r2, [r3, #0]
10003d28:	f38b 8810 	msr	PRIMASK, fp
10003d2c:	e023      	b.n	10003d76 <hardware_alarm_set_target+0xbe>
10003d2e:	4b18      	ldr	r3, [pc, #96]	@ (10003d90 <hardware_alarm_set_target+0xd8>)
10003d30:	4a18      	ldr	r2, [pc, #96]	@ (10003d94 <hardware_alarm_set_target+0xdc>)
10003d32:	4819      	ldr	r0, [pc, #100]	@ (10003d98 <hardware_alarm_set_target+0xe0>)
10003d34:	21c5      	movs	r1, #197	@ 0xc5
10003d36:	f000 fc0b 	bl	10004550 <__assert_func>
10003d3a:	f7ff ff0d 	bl	10003b58 <time_us_64>
10003d3e:	428e      	cmp	r6, r1
10003d40:	d814      	bhi.n	10003d6c <hardware_alarm_set_target+0xb4>
10003d42:	d102      	bne.n	10003d4a <hardware_alarm_set_target+0x92>
10003d44:	9b03      	ldr	r3, [sp, #12]
10003d46:	4283      	cmp	r3, r0
10003d48:	d810      	bhi.n	10003d6c <hardware_alarm_set_target+0xb4>
10003d4a:	4b0e      	ldr	r3, [pc, #56]	@ (10003d84 <hardware_alarm_set_target+0xcc>)
10003d4c:	781b      	ldrb	r3, [r3, #0]
10003d4e:	42bb      	cmp	r3, r7
10003d50:	d00e      	beq.n	10003d70 <hardware_alarm_set_target+0xb8>
10003d52:	4b0d      	ldr	r3, [pc, #52]	@ (10003d88 <hardware_alarm_set_target+0xd0>)
10003d54:	621d      	str	r5, [r3, #32]
10003d56:	635d      	str	r5, [r3, #52]	@ 0x34
10003d58:	221f      	movs	r2, #31
10003d5a:	4022      	ands	r2, r4
10003d5c:	2301      	movs	r3, #1
10003d5e:	4093      	lsls	r3, r2
10003d60:	4a0e      	ldr	r2, [pc, #56]	@ (10003d9c <hardware_alarm_set_target+0xe4>)
10003d62:	6013      	str	r3, [r2, #0]
10003d64:	4b07      	ldr	r3, [pc, #28]	@ (10003d84 <hardware_alarm_set_target+0xcc>)
10003d66:	701f      	strb	r7, [r3, #0]
10003d68:	2001      	movs	r0, #1
10003d6a:	e7d8      	b.n	10003d1e <hardware_alarm_set_target+0x66>
10003d6c:	2000      	movs	r0, #0
10003d6e:	e7d6      	b.n	10003d1e <hardware_alarm_set_target+0x66>
10003d70:	2001      	movs	r0, #1
10003d72:	e7d4      	b.n	10003d1e <hardware_alarm_set_target+0x66>
10003d74:	2001      	movs	r0, #1
10003d76:	b004      	add	sp, #16
10003d78:	bc80      	pop	{r7}
10003d7a:	46bb      	mov	fp, r7
10003d7c:	bdf0      	pop	{r4, r5, r6, r7, pc}
10003d7e:	46c0      	nop			@ (mov r8, r8)
10003d80:	d0000128 	.word	0xd0000128
10003d84:	2000255d 	.word	0x2000255d
10003d88:	40054000 	.word	0x40054000
10003d8c:	20002520 	.word	0x20002520
10003d90:	1000ba04 	.word	0x1000ba04
10003d94:	1000c5d4 	.word	0x1000c5d4
10003d98:	1000ba28 	.word	0x1000ba28
10003d9c:	e000e280 	.word	0xe000e280

10003da0 <hardware_alarm_cancel>:
10003da0:	f3ef 8c10 	mrs	ip, PRIMASK
10003da4:	b672      	cpsid	i
10003da6:	4b0b      	ldr	r3, [pc, #44]	@ (10003dd4 <hardware_alarm_cancel+0x34>)
10003da8:	681b      	ldr	r3, [r3, #0]
10003daa:	2b00      	cmp	r3, #0
10003dac:	d0fb      	beq.n	10003da6 <hardware_alarm_cancel+0x6>
10003dae:	f3bf 8f5f 	dmb	sy
10003db2:	2301      	movs	r3, #1
10003db4:	4083      	lsls	r3, r0
10003db6:	4a08      	ldr	r2, [pc, #32]	@ (10003dd8 <hardware_alarm_cancel+0x38>)
10003db8:	6213      	str	r3, [r2, #32]
10003dba:	4908      	ldr	r1, [pc, #32]	@ (10003ddc <hardware_alarm_cancel+0x3c>)
10003dbc:	780a      	ldrb	r2, [r1, #0]
10003dbe:	439a      	bics	r2, r3
10003dc0:	700a      	strb	r2, [r1, #0]
10003dc2:	f3bf 8f5f 	dmb	sy
10003dc6:	4b03      	ldr	r3, [pc, #12]	@ (10003dd4 <hardware_alarm_cancel+0x34>)
10003dc8:	2200      	movs	r2, #0
10003dca:	601a      	str	r2, [r3, #0]
10003dcc:	f38c 8810 	msr	PRIMASK, ip
10003dd0:	4770      	bx	lr
10003dd2:	46c0      	nop			@ (mov r8, r8)
10003dd4:	d0000128 	.word	0xd0000128
10003dd8:	40054000 	.word	0x40054000
10003ddc:	2000255d 	.word	0x2000255d

10003de0 <ph_get_node>:
10003de0:	b510      	push	{r4, lr}
10003de2:	2900      	cmp	r1, #0
10003de4:	d008      	beq.n	10003df8 <ph_get_node+0x18>
10003de6:	7b03      	ldrb	r3, [r0, #12]
10003de8:	428b      	cmp	r3, r1
10003dea:	d305      	bcc.n	10003df8 <ph_get_node+0x18>
10003dec:	6800      	ldr	r0, [r0, #0]
10003dee:	004b      	lsls	r3, r1, #1
10003df0:	185b      	adds	r3, r3, r1
10003df2:	3b03      	subs	r3, #3
10003df4:	18c0      	adds	r0, r0, r3
10003df6:	bd10      	pop	{r4, pc}
10003df8:	4b02      	ldr	r3, [pc, #8]	@ (10003e04 <ph_get_node+0x24>)
10003dfa:	4a03      	ldr	r2, [pc, #12]	@ (10003e08 <ph_get_node+0x28>)
10003dfc:	4803      	ldr	r0, [pc, #12]	@ (10003e0c <ph_get_node+0x2c>)
10003dfe:	2168      	movs	r1, #104	@ 0x68
10003e00:	f000 fba6 	bl	10004550 <__assert_func>
10003e04:	1000b838 	.word	0x1000b838
10003e08:	1000c648 	.word	0x1000c648
10003e0c:	1000b854 	.word	0x1000b854

10003e10 <ph_add_child_node>:
10003e10:	b5f8      	push	{r3, r4, r5, r6, r7, lr}
10003e12:	0006      	movs	r6, r0
10003e14:	000c      	movs	r4, r1
10003e16:	0015      	movs	r5, r2
10003e18:	f7ff ffe2 	bl	10003de0 <ph_get_node>
10003e1c:	0007      	movs	r7, r0
10003e1e:	2c00      	cmp	r4, #0
10003e20:	d00d      	beq.n	10003e3e <ph_add_child_node+0x2e>
10003e22:	2d00      	cmp	r5, #0
10003e24:	d011      	beq.n	10003e4a <ph_add_child_node+0x3a>
10003e26:	42ac      	cmp	r4, r5
10003e28:	d015      	beq.n	10003e56 <ph_add_child_node+0x46>
10003e2a:	0029      	movs	r1, r5
10003e2c:	0030      	movs	r0, r6
10003e2e:	f7ff ffd7 	bl	10003de0 <ph_get_node>
10003e32:	7084      	strb	r4, [r0, #2]
10003e34:	783b      	ldrb	r3, [r7, #0]
10003e36:	2b00      	cmp	r3, #0
10003e38:	d113      	bne.n	10003e62 <ph_add_child_node+0x52>
10003e3a:	703d      	strb	r5, [r7, #0]
10003e3c:	bdf8      	pop	{r3, r4, r5, r6, r7, pc}
10003e3e:	4b0a      	ldr	r3, [pc, #40]	@ (10003e68 <ph_add_child_node+0x58>)
10003e40:	4a0a      	ldr	r2, [pc, #40]	@ (10003e6c <ph_add_child_node+0x5c>)
10003e42:	480b      	ldr	r0, [pc, #44]	@ (10003e70 <ph_add_child_node+0x60>)
10003e44:	216f      	movs	r1, #111	@ 0x6f
10003e46:	f000 fb83 	bl	10004550 <__assert_func>
10003e4a:	4b0a      	ldr	r3, [pc, #40]	@ (10003e74 <ph_add_child_node+0x64>)
10003e4c:	4a07      	ldr	r2, [pc, #28]	@ (10003e6c <ph_add_child_node+0x5c>)
10003e4e:	4808      	ldr	r0, [pc, #32]	@ (10003e70 <ph_add_child_node+0x60>)
10003e50:	2170      	movs	r1, #112	@ 0x70
10003e52:	f000 fb7d 	bl	10004550 <__assert_func>
10003e56:	4b08      	ldr	r3, [pc, #32]	@ (10003e78 <ph_add_child_node+0x68>)
10003e58:	4a04      	ldr	r2, [pc, #16]	@ (10003e6c <ph_add_child_node+0x5c>)
10003e5a:	4805      	ldr	r0, [pc, #20]	@ (10003e70 <ph_add_child_node+0x60>)
10003e5c:	2171      	movs	r1, #113	@ 0x71
10003e5e:	f000 fb77 	bl	10004550 <__assert_func>
10003e62:	7043      	strb	r3, [r0, #1]
10003e64:	703d      	strb	r5, [r7, #0]
10003e66:	e7e9      	b.n	10003e3c <ph_add_child_node+0x2c>
10003e68:	1000b8a0 	.word	0x1000b8a0
10003e6c:	1000c634 	.word	0x1000c634
10003e70:	1000b854 	.word	0x1000b854
10003e74:	1000b8ac 	.word	0x1000b8ac
10003e78:	1000b8b8 	.word	0x1000b8b8

10003e7c <ph_merge_nodes>:
10003e7c:	b570      	push	{r4, r5, r6, lr}
10003e7e:	0006      	movs	r6, r0
10003e80:	000d      	movs	r5, r1
10003e82:	0014      	movs	r4, r2
10003e84:	2900      	cmp	r1, #0
10003e86:	d014      	beq.n	10003eb2 <ph_merge_nodes+0x36>
10003e88:	2a00      	cmp	r2, #0
10003e8a:	d014      	beq.n	10003eb6 <ph_merge_nodes+0x3a>
10003e8c:	6843      	ldr	r3, [r0, #4]
10003e8e:	6880      	ldr	r0, [r0, #8]
10003e90:	4798      	blx	r3
10003e92:	2800      	cmp	r0, #0
10003e94:	d006      	beq.n	10003ea4 <ph_merge_nodes+0x28>
10003e96:	0022      	movs	r2, r4
10003e98:	0029      	movs	r1, r5
10003e9a:	0030      	movs	r0, r6
10003e9c:	f7ff ffb8 	bl	10003e10 <ph_add_child_node>
10003ea0:	0028      	movs	r0, r5
10003ea2:	e007      	b.n	10003eb4 <ph_merge_nodes+0x38>
10003ea4:	002a      	movs	r2, r5
10003ea6:	0021      	movs	r1, r4
10003ea8:	0030      	movs	r0, r6
10003eaa:	f7ff ffb1 	bl	10003e10 <ph_add_child_node>
10003eae:	0020      	movs	r0, r4
10003eb0:	e000      	b.n	10003eb4 <ph_merge_nodes+0x38>
10003eb2:	0010      	movs	r0, r2
10003eb4:	bd70      	pop	{r4, r5, r6, pc}
10003eb6:	0008      	movs	r0, r1
10003eb8:	e7fc      	b.n	10003eb4 <ph_merge_nodes+0x38>

10003eba <ph_clear>:
10003eba:	b570      	push	{r4, r5, r6, lr}
10003ebc:	0005      	movs	r5, r0
10003ebe:	2300      	movs	r3, #0
10003ec0:	7343      	strb	r3, [r0, #13]
10003ec2:	3301      	adds	r3, #1
10003ec4:	7383      	strb	r3, [r0, #14]
10003ec6:	7b03      	ldrb	r3, [r0, #12]
10003ec8:	73c3      	strb	r3, [r0, #15]
10003eca:	2401      	movs	r4, #1
10003ecc:	e006      	b.n	10003edc <ph_clear+0x22>
10003ece:	0021      	movs	r1, r4
10003ed0:	0028      	movs	r0, r5
10003ed2:	f7ff ff85 	bl	10003de0 <ph_get_node>
10003ed6:	3401      	adds	r4, #1
10003ed8:	b2e4      	uxtb	r4, r4
10003eda:	7044      	strb	r4, [r0, #1]
10003edc:	7b29      	ldrb	r1, [r5, #12]
10003ede:	42a1      	cmp	r1, r4
10003ee0:	d8f5      	bhi.n	10003ece <ph_clear+0x14>
10003ee2:	0028      	movs	r0, r5
10003ee4:	f7ff ff7c 	bl	10003de0 <ph_get_node>
10003ee8:	2300      	movs	r3, #0
10003eea:	7043      	strb	r3, [r0, #1]
10003eec:	bd70      	pop	{r4, r5, r6, pc}

10003eee <ph_post_alloc_init>:
10003eee:	b510      	push	{r4, lr}
10003ef0:	7301      	strb	r1, [r0, #12]
10003ef2:	6042      	str	r2, [r0, #4]
10003ef4:	6083      	str	r3, [r0, #8]
10003ef6:	f7ff ffe0 	bl	10003eba <ph_clear>
10003efa:	bd10      	pop	{r4, pc}

10003efc <ph_merge_two_pass>:
10003efc:	b5f0      	push	{r4, r5, r6, r7, lr}
10003efe:	46c6      	mov	lr, r8
10003f00:	b500      	push	{lr}
10003f02:	0005      	movs	r5, r0
10003f04:	1e0c      	subs	r4, r1, #0
10003f06:	d103      	bne.n	10003f10 <ph_merge_two_pass+0x14>
10003f08:	0020      	movs	r0, r4
10003f0a:	bc80      	pop	{r7}
10003f0c:	46b8      	mov	r8, r7
10003f0e:	bdf0      	pop	{r4, r5, r6, r7, pc}
10003f10:	f7ff ff66 	bl	10003de0 <ph_get_node>
10003f14:	7846      	ldrb	r6, [r0, #1]
10003f16:	2e00      	cmp	r6, #0
10003f18:	d0f6      	beq.n	10003f08 <ph_merge_two_pass+0xc>
10003f1a:	0031      	movs	r1, r6
10003f1c:	0028      	movs	r0, r5
10003f1e:	f7ff ff5f 	bl	10003de0 <ph_get_node>
10003f22:	7847      	ldrb	r7, [r0, #1]
10003f24:	2300      	movs	r3, #0
10003f26:	4698      	mov	r8, r3
10003f28:	7043      	strb	r3, [r0, #1]
10003f2a:	0021      	movs	r1, r4
10003f2c:	0028      	movs	r0, r5
10003f2e:	f7ff ff57 	bl	10003de0 <ph_get_node>
10003f32:	4643      	mov	r3, r8
10003f34:	7043      	strb	r3, [r0, #1]
10003f36:	0032      	movs	r2, r6
10003f38:	0021      	movs	r1, r4
10003f3a:	0028      	movs	r0, r5
10003f3c:	f7ff ff9e 	bl	10003e7c <ph_merge_nodes>
10003f40:	0004      	movs	r4, r0
10003f42:	0039      	movs	r1, r7
10003f44:	0028      	movs	r0, r5
10003f46:	f7ff ffd9 	bl	10003efc <ph_merge_two_pass>
10003f4a:	0002      	movs	r2, r0
10003f4c:	0021      	movs	r1, r4
10003f4e:	0028      	movs	r0, r5
10003f50:	f7ff ff94 	bl	10003e7c <ph_merge_nodes>
10003f54:	0004      	movs	r4, r0
10003f56:	e7d7      	b.n	10003f08 <ph_merge_two_pass+0xc>

10003f58 <ph_remove_any_head>:
10003f58:	b5f0      	push	{r4, r5, r6, r7, lr}
10003f5a:	46c6      	mov	lr, r8
10003f5c:	b500      	push	{lr}
10003f5e:	0004      	movs	r4, r0
10003f60:	000d      	movs	r5, r1
10003f62:	0017      	movs	r7, r2
10003f64:	2900      	cmp	r1, #0
10003f66:	d027      	beq.n	10003fb8 <ph_remove_any_head+0x60>
10003f68:	f7ff ff3a 	bl	10003de0 <ph_get_node>
10003f6c:	7843      	ldrb	r3, [r0, #1]
10003f6e:	2b00      	cmp	r3, #0
10003f70:	d128      	bne.n	10003fc4 <ph_remove_any_head+0x6c>
10003f72:	7883      	ldrb	r3, [r0, #2]
10003f74:	2b00      	cmp	r3, #0
10003f76:	d12b      	bne.n	10003fd0 <ph_remove_any_head+0x78>
10003f78:	7801      	ldrb	r1, [r0, #0]
10003f7a:	0020      	movs	r0, r4
10003f7c:	f7ff ffbe 	bl	10003efc <ph_merge_two_pass>
10003f80:	0006      	movs	r6, r0
10003f82:	4680      	mov	r8, r0
10003f84:	2f00      	cmp	r7, #0
10003f86:	d00a      	beq.n	10003f9e <ph_remove_any_head+0x46>
10003f88:	7be1      	ldrb	r1, [r4, #15]
10003f8a:	2900      	cmp	r1, #0
10003f8c:	d126      	bne.n	10003fdc <ph_remove_any_head+0x84>
10003f8e:	7ba3      	ldrb	r3, [r4, #14]
10003f90:	2b00      	cmp	r3, #0
10003f92:	d103      	bne.n	10003f9c <ph_remove_any_head+0x44>
10003f94:	7be3      	ldrb	r3, [r4, #15]
10003f96:	2b00      	cmp	r3, #0
10003f98:	d125      	bne.n	10003fe6 <ph_remove_any_head+0x8e>
10003f9a:	73a5      	strb	r5, [r4, #14]
10003f9c:	73e5      	strb	r5, [r4, #15]
10003f9e:	4643      	mov	r3, r8
10003fa0:	2b00      	cmp	r3, #0
10003fa2:	d126      	bne.n	10003ff2 <ph_remove_any_head+0x9a>
10003fa4:	0029      	movs	r1, r5
10003fa6:	0020      	movs	r0, r4
10003fa8:	f7ff ff1a 	bl	10003de0 <ph_get_node>
10003fac:	2300      	movs	r3, #0
10003fae:	7043      	strb	r3, [r0, #1]
10003fb0:	0030      	movs	r0, r6
10003fb2:	bc80      	pop	{r7}
10003fb4:	46b8      	mov	r8, r7
10003fb6:	bdf0      	pop	{r4, r5, r6, r7, pc}
10003fb8:	4b11      	ldr	r3, [pc, #68]	@ (10004000 <ph_remove_any_head+0xa8>)
10003fba:	4a12      	ldr	r2, [pc, #72]	@ (10004004 <ph_remove_any_head+0xac>)
10003fbc:	4812      	ldr	r0, [pc, #72]	@ (10004008 <ph_remove_any_head+0xb0>)
10003fbe:	2138      	movs	r1, #56	@ 0x38
10003fc0:	f000 fac6 	bl	10004550 <__assert_func>
10003fc4:	4b11      	ldr	r3, [pc, #68]	@ (1000400c <ph_remove_any_head+0xb4>)
10003fc6:	4a0f      	ldr	r2, [pc, #60]	@ (10004004 <ph_remove_any_head+0xac>)
10003fc8:	480f      	ldr	r0, [pc, #60]	@ (10004008 <ph_remove_any_head+0xb0>)
10003fca:	213a      	movs	r1, #58	@ 0x3a
10003fcc:	f000 fac0 	bl	10004550 <__assert_func>
10003fd0:	4b0f      	ldr	r3, [pc, #60]	@ (10004010 <ph_remove_any_head+0xb8>)
10003fd2:	4a0c      	ldr	r2, [pc, #48]	@ (10004004 <ph_remove_any_head+0xac>)
10003fd4:	480c      	ldr	r0, [pc, #48]	@ (10004008 <ph_remove_any_head+0xb0>)
10003fd6:	213b      	movs	r1, #59	@ 0x3b
10003fd8:	f000 faba 	bl	10004550 <__assert_func>
10003fdc:	0020      	movs	r0, r4
10003fde:	f7ff feff 	bl	10003de0 <ph_get_node>
10003fe2:	7045      	strb	r5, [r0, #1]
10003fe4:	e7d3      	b.n	10003f8e <ph_remove_any_head+0x36>
10003fe6:	4b0b      	ldr	r3, [pc, #44]	@ (10004014 <ph_remove_any_head+0xbc>)
10003fe8:	4a06      	ldr	r2, [pc, #24]	@ (10004004 <ph_remove_any_head+0xac>)
10003fea:	4807      	ldr	r0, [pc, #28]	@ (10004008 <ph_remove_any_head+0xb0>)
10003fec:	2142      	movs	r1, #66	@ 0x42
10003fee:	f000 faaf 	bl	10004550 <__assert_func>
10003ff2:	0031      	movs	r1, r6
10003ff4:	0020      	movs	r0, r4
10003ff6:	f7ff fef3 	bl	10003de0 <ph_get_node>
10003ffa:	2300      	movs	r3, #0
10003ffc:	7083      	strb	r3, [r0, #2]
10003ffe:	e7d1      	b.n	10003fa4 <ph_remove_any_head+0x4c>
10004000:	1000ba6c 	.word	0x1000ba6c
10004004:	1000c620 	.word	0x1000c620
10004008:	1000ba74 	.word	0x1000ba74
1000400c:	1000baac 	.word	0x1000baac
10004010:	1000bad4 	.word	0x1000bad4
10004014:	1000b8f8 	.word	0x1000b8f8

10004018 <ph_remove_head>:
10004018:	b570      	push	{r4, r5, r6, lr}
1000401a:	0004      	movs	r4, r0
1000401c:	000a      	movs	r2, r1
1000401e:	7b45      	ldrb	r5, [r0, #13]
10004020:	0029      	movs	r1, r5
10004022:	f7ff ff99 	bl	10003f58 <ph_remove_any_head>
10004026:	7360      	strb	r0, [r4, #13]
10004028:	0028      	movs	r0, r5
1000402a:	bd70      	pop	{r4, r5, r6, pc}

1000402c <ph_remove_and_free_node>:
1000402c:	b570      	push	{r4, r5, r6, lr}
1000402e:	0006      	movs	r6, r0
10004030:	1e0c      	subs	r4, r1, #0
10004032:	d040      	beq.n	100040b6 <ph_remove_and_free_node+0x8a>
10004034:	7b43      	ldrb	r3, [r0, #13]
10004036:	428b      	cmp	r3, r1
10004038:	d007      	beq.n	1000404a <ph_remove_and_free_node+0x1e>
1000403a:	f7ff fed1 	bl	10003de0 <ph_get_node>
1000403e:	0005      	movs	r5, r0
10004040:	7881      	ldrb	r1, [r0, #2]
10004042:	2900      	cmp	r1, #0
10004044:	d106      	bne.n	10004054 <ph_remove_and_free_node+0x28>
10004046:	2000      	movs	r0, #0
10004048:	e036      	b.n	100040b8 <ph_remove_and_free_node+0x8c>
1000404a:	2101      	movs	r1, #1
1000404c:	f7ff ffe4 	bl	10004018 <ph_remove_head>
10004050:	2001      	movs	r0, #1
10004052:	e031      	b.n	100040b8 <ph_remove_and_free_node+0x8c>
10004054:	0030      	movs	r0, r6
10004056:	f7ff fec3 	bl	10003de0 <ph_get_node>
1000405a:	7801      	ldrb	r1, [r0, #0]
1000405c:	42a1      	cmp	r1, r4
1000405e:	d00d      	beq.n	1000407c <ph_remove_and_free_node+0x50>
10004060:	0030      	movs	r0, r6
10004062:	f7ff febd 	bl	10003de0 <ph_get_node>
10004066:	7841      	ldrb	r1, [r0, #1]
10004068:	42a1      	cmp	r1, r4
1000406a:	d00a      	beq.n	10004082 <ph_remove_and_free_node+0x56>
1000406c:	2900      	cmp	r1, #0
1000406e:	d1f7      	bne.n	10004060 <ph_remove_and_free_node+0x34>
10004070:	4b12      	ldr	r3, [pc, #72]	@ (100040bc <ph_remove_and_free_node+0x90>)
10004072:	4a13      	ldr	r2, [pc, #76]	@ (100040c0 <ph_remove_and_free_node+0x94>)
10004074:	4813      	ldr	r0, [pc, #76]	@ (100040c4 <ph_remove_and_free_node+0x98>)
10004076:	316b      	adds	r1, #107	@ 0x6b
10004078:	f000 fa6a 	bl	10004550 <__assert_func>
1000407c:	786b      	ldrb	r3, [r5, #1]
1000407e:	7003      	strb	r3, [r0, #0]
10004080:	e001      	b.n	10004086 <ph_remove_and_free_node+0x5a>
10004082:	786b      	ldrb	r3, [r5, #1]
10004084:	7043      	strb	r3, [r0, #1]
10004086:	2300      	movs	r3, #0
10004088:	70ab      	strb	r3, [r5, #2]
1000408a:	706b      	strb	r3, [r5, #1]
1000408c:	2201      	movs	r2, #1
1000408e:	0021      	movs	r1, r4
10004090:	0030      	movs	r0, r6
10004092:	f7ff ff61 	bl	10003f58 <ph_remove_any_head>
10004096:	0002      	movs	r2, r0
10004098:	7b71      	ldrb	r1, [r6, #13]
1000409a:	4281      	cmp	r1, r0
1000409c:	d005      	beq.n	100040aa <ph_remove_and_free_node+0x7e>
1000409e:	0030      	movs	r0, r6
100040a0:	f7ff feec 	bl	10003e7c <ph_merge_nodes>
100040a4:	7370      	strb	r0, [r6, #13]
100040a6:	2001      	movs	r0, #1
100040a8:	e006      	b.n	100040b8 <ph_remove_and_free_node+0x8c>
100040aa:	4b07      	ldr	r3, [pc, #28]	@ (100040c8 <ph_remove_and_free_node+0x9c>)
100040ac:	4a04      	ldr	r2, [pc, #16]	@ (100040c0 <ph_remove_and_free_node+0x94>)
100040ae:	4805      	ldr	r0, [pc, #20]	@ (100040c4 <ph_remove_and_free_node+0x98>)
100040b0:	2171      	movs	r1, #113	@ 0x71
100040b2:	f000 fa4d 	bl	10004550 <__assert_func>
100040b6:	2000      	movs	r0, #0
100040b8:	bd70      	pop	{r4, r5, r6, pc}
100040ba:	46c0      	nop			@ (mov r8, r8)
100040bc:	1000b6c8 	.word	0x1000b6c8
100040c0:	1000c608 	.word	0x1000c608
100040c4:	1000ba74 	.word	0x1000ba74
100040c8:	1000baf8 	.word	0x1000baf8

100040cc <clock_configure>:
100040cc:	b5f8      	push	{r3, r4, r5, r6, r7, lr}
100040ce:	46de      	mov	lr, fp
100040d0:	4657      	mov	r7, sl
100040d2:	464e      	mov	r6, r9
100040d4:	4645      	mov	r5, r8
100040d6:	b5e0      	push	{r5, r6, r7, lr}
100040d8:	0006      	movs	r6, r0
100040da:	000f      	movs	r7, r1
100040dc:	0015      	movs	r5, r2
100040de:	9a0a      	ldr	r2, [sp, #40]	@ 0x28
100040e0:	4293      	cmp	r3, r2
100040e2:	d350      	bcc.n	10004186 <clock_configure+0xba>
100040e4:	0e1a      	lsrs	r2, r3, #24
100040e6:	4692      	mov	sl, r2
100040e8:	021b      	lsls	r3, r3, #8
100040ea:	4698      	mov	r8, r3
100040ec:	9a0a      	ldr	r2, [sp, #40]	@ 0x28
100040ee:	2300      	movs	r3, #0
100040f0:	4640      	mov	r0, r8
100040f2:	4651      	mov	r1, sl
100040f4:	f001 fc52 	bl	1000599c <__wrap___aeabi_uldivmod>
100040f8:	4681      	mov	r9, r0
100040fa:	0074      	lsls	r4, r6, #1
100040fc:	19a4      	adds	r4, r4, r6
100040fe:	00a4      	lsls	r4, r4, #2
10004100:	4b2f      	ldr	r3, [pc, #188]	@ (100041c0 <clock_configure+0xf4>)
10004102:	469c      	mov	ip, r3
10004104:	4464      	add	r4, ip
10004106:	6863      	ldr	r3, [r4, #4]
10004108:	4283      	cmp	r3, r0
1000410a:	d200      	bcs.n	1000410e <clock_configure+0x42>
1000410c:	6060      	str	r0, [r4, #4]
1000410e:	1f33      	subs	r3, r6, #4
10004110:	b2db      	uxtb	r3, r3
10004112:	469b      	mov	fp, r3
10004114:	2b01      	cmp	r3, #1
10004116:	d93c      	bls.n	10004192 <clock_configure+0xc6>
10004118:	23c0      	movs	r3, #192	@ 0xc0
1000411a:	019b      	lsls	r3, r3, #6
1000411c:	4323      	orrs	r3, r4
1000411e:	2280      	movs	r2, #128	@ 0x80
10004120:	0112      	lsls	r2, r2, #4
10004122:	601a      	str	r2, [r3, #0]
10004124:	4b27      	ldr	r3, [pc, #156]	@ (100041c4 <clock_configure+0xf8>)
10004126:	00b2      	lsls	r2, r6, #2
10004128:	58d1      	ldr	r1, [r2, r3]
1000412a:	2900      	cmp	r1, #0
1000412c:	d007      	beq.n	1000413e <clock_configure+0x72>
1000412e:	6958      	ldr	r0, [r3, #20]
10004130:	f001 fbf6 	bl	10005920 <__wrap___aeabi_uidiv>
10004134:	3001      	adds	r0, #1
10004136:	0043      	lsls	r3, r0, #1
10004138:	181b      	adds	r3, r3, r0
1000413a:	3b03      	subs	r3, #3
1000413c:	d2fd      	bcs.n	1000413a <clock_configure+0x6e>
1000413e:	016d      	lsls	r5, r5, #5
10004140:	6823      	ldr	r3, [r4, #0]
10004142:	405d      	eors	r5, r3
10004144:	22e0      	movs	r2, #224	@ 0xe0
10004146:	402a      	ands	r2, r5
10004148:	2380      	movs	r3, #128	@ 0x80
1000414a:	015b      	lsls	r3, r3, #5
1000414c:	4323      	orrs	r3, r4
1000414e:	601a      	str	r2, [r3, #0]
10004150:	465a      	mov	r2, fp
10004152:	2a01      	cmp	r2, #1
10004154:	d928      	bls.n	100041a8 <clock_configure+0xdc>
10004156:	2380      	movs	r3, #128	@ 0x80
10004158:	019b      	lsls	r3, r3, #6
1000415a:	4323      	orrs	r3, r4
1000415c:	2280      	movs	r2, #128	@ 0x80
1000415e:	0112      	lsls	r2, r2, #4
10004160:	601a      	str	r2, [r3, #0]
10004162:	464b      	mov	r3, r9
10004164:	6063      	str	r3, [r4, #4]
10004166:	464a      	mov	r2, r9
10004168:	2300      	movs	r3, #0
1000416a:	4640      	mov	r0, r8
1000416c:	4651      	mov	r1, sl
1000416e:	f001 fc15 	bl	1000599c <__wrap___aeabi_uldivmod>
10004172:	4b14      	ldr	r3, [pc, #80]	@ (100041c4 <clock_configure+0xf8>)
10004174:	00b6      	lsls	r6, r6, #2
10004176:	5198      	str	r0, [r3, r6]
10004178:	2001      	movs	r0, #1
1000417a:	bcf0      	pop	{r4, r5, r6, r7}
1000417c:	46bb      	mov	fp, r7
1000417e:	46b2      	mov	sl, r6
10004180:	46a9      	mov	r9, r5
10004182:	46a0      	mov	r8, r4
10004184:	bdf8      	pop	{r3, r4, r5, r6, r7, pc}
10004186:	4b10      	ldr	r3, [pc, #64]	@ (100041c8 <clock_configure+0xfc>)
10004188:	4a10      	ldr	r2, [pc, #64]	@ (100041cc <clock_configure+0x100>)
1000418a:	4811      	ldr	r0, [pc, #68]	@ (100041d0 <clock_configure+0x104>)
1000418c:	2133      	movs	r1, #51	@ 0x33
1000418e:	f000 f9df 	bl	10004550 <__assert_func>
10004192:	2f01      	cmp	r7, #1
10004194:	d1c0      	bne.n	10004118 <clock_configure+0x4c>
10004196:	23c0      	movs	r3, #192	@ 0xc0
10004198:	019b      	lsls	r3, r3, #6
1000419a:	4323      	orrs	r3, r4
1000419c:	2203      	movs	r2, #3
1000419e:	601a      	str	r2, [r3, #0]
100041a0:	68a3      	ldr	r3, [r4, #8]
100041a2:	07db      	lsls	r3, r3, #31
100041a4:	d5fc      	bpl.n	100041a0 <clock_configure+0xd4>
100041a6:	e7ca      	b.n	1000413e <clock_configure+0x72>
100041a8:	6821      	ldr	r1, [r4, #0]
100041aa:	4079      	eors	r1, r7
100041ac:	2203      	movs	r2, #3
100041ae:	400a      	ands	r2, r1
100041b0:	601a      	str	r2, [r3, #0]
100041b2:	68a3      	ldr	r3, [r4, #8]
100041b4:	2501      	movs	r5, #1
100041b6:	40bd      	lsls	r5, r7
100041b8:	421d      	tst	r5, r3
100041ba:	d0fa      	beq.n	100041b2 <clock_configure+0xe6>
100041bc:	e7cb      	b.n	10004156 <clock_configure+0x8a>
100041be:	46c0      	nop			@ (mov r8, r8)
100041c0:	40008000 	.word	0x40008000
100041c4:	20001dfc 	.word	0x20001dfc
100041c8:	1000bb18 	.word	0x1000bb18
100041cc:	1000c654 	.word	0x1000c654
100041d0:	1000bb2c 	.word	0x1000bb2c

100041d4 <clocks_init>:
100041d4:	b530      	push	{r4, r5, lr}
100041d6:	b083      	sub	sp, #12
100041d8:	200c      	movs	r0, #12
100041da:	f000 f911 	bl	10004400 <watchdog_start_tick>
100041de:	f7fe fb95 	bl	1000290c <running_on_fpga>
100041e2:	2800      	cmp	r0, #0
100041e4:	d00d      	beq.n	10004202 <clocks_init+0x2e>
100041e6:	2300      	movs	r3, #0
100041e8:	e004      	b.n	100041f4 <clocks_init+0x20>
100041ea:	4a2e      	ldr	r2, [pc, #184]	@ (100042a4 <clocks_init+0xd0>)
100041ec:	0099      	lsls	r1, r3, #2
100041ee:	482e      	ldr	r0, [pc, #184]	@ (100042a8 <clocks_init+0xd4>)
100041f0:	5088      	str	r0, [r1, r2]
100041f2:	3301      	adds	r3, #1
100041f4:	2b09      	cmp	r3, #9
100041f6:	d9f8      	bls.n	100041ea <clocks_init+0x16>
100041f8:	4b2a      	ldr	r3, [pc, #168]	@ (100042a4 <clocks_init+0xd0>)
100041fa:	4a2c      	ldr	r2, [pc, #176]	@ (100042ac <clocks_init+0xd8>)
100041fc:	625a      	str	r2, [r3, #36]	@ 0x24
100041fe:	b003      	add	sp, #12
10004200:	bd30      	pop	{r4, r5, pc}
10004202:	4b2b      	ldr	r3, [pc, #172]	@ (100042b0 <clocks_init+0xdc>)
10004204:	2200      	movs	r2, #0
10004206:	679a      	str	r2, [r3, #120]	@ 0x78
10004208:	f000 f96c 	bl	100044e4 <xosc_init>
1000420c:	4b29      	ldr	r3, [pc, #164]	@ (100042b4 <clocks_init+0xe0>)
1000420e:	2201      	movs	r2, #1
10004210:	601a      	str	r2, [r3, #0]
10004212:	4b27      	ldr	r3, [pc, #156]	@ (100042b0 <clocks_init+0xdc>)
10004214:	6c5b      	ldr	r3, [r3, #68]	@ 0x44
10004216:	2b01      	cmp	r3, #1
10004218:	d1fb      	bne.n	10004212 <clocks_init+0x3e>
1000421a:	4b27      	ldr	r3, [pc, #156]	@ (100042b8 <clocks_init+0xe4>)
1000421c:	2203      	movs	r2, #3
1000421e:	601a      	str	r2, [r3, #0]
10004220:	4b23      	ldr	r3, [pc, #140]	@ (100042b0 <clocks_init+0xdc>)
10004222:	6b9b      	ldr	r3, [r3, #56]	@ 0x38
10004224:	2b01      	cmp	r3, #1
10004226:	d1fb      	bne.n	10004220 <clocks_init+0x4c>
10004228:	3301      	adds	r3, #1
1000422a:	9300      	str	r3, [sp, #0]
1000422c:	3304      	adds	r3, #4
1000422e:	4a23      	ldr	r2, [pc, #140]	@ (100042bc <clocks_init+0xe8>)
10004230:	2101      	movs	r1, #1
10004232:	4823      	ldr	r0, [pc, #140]	@ (100042c0 <clocks_init+0xec>)
10004234:	f000 f854 	bl	100042e0 <pll_init>
10004238:	2305      	movs	r3, #5
1000423a:	9300      	str	r3, [sp, #0]
1000423c:	4a21      	ldr	r2, [pc, #132]	@ (100042c4 <clocks_init+0xf0>)
1000423e:	2101      	movs	r1, #1
10004240:	4821      	ldr	r0, [pc, #132]	@ (100042c8 <clocks_init+0xf4>)
10004242:	f000 f84d 	bl	100042e0 <pll_init>
10004246:	4b21      	ldr	r3, [pc, #132]	@ (100042cc <clocks_init+0xf8>)
10004248:	9300      	str	r3, [sp, #0]
1000424a:	2200      	movs	r2, #0
1000424c:	2102      	movs	r1, #2
1000424e:	2004      	movs	r0, #4
10004250:	f7ff ff3c 	bl	100040cc <clock_configure>
10004254:	4d1e      	ldr	r5, [pc, #120]	@ (100042d0 <clocks_init+0xfc>)
10004256:	9500      	str	r5, [sp, #0]
10004258:	002b      	movs	r3, r5
1000425a:	2200      	movs	r2, #0
1000425c:	2101      	movs	r1, #1
1000425e:	2005      	movs	r0, #5
10004260:	f7ff ff34 	bl	100040cc <clock_configure>
10004264:	4c10      	ldr	r4, [pc, #64]	@ (100042a8 <clocks_init+0xd4>)
10004266:	9400      	str	r4, [sp, #0]
10004268:	0023      	movs	r3, r4
1000426a:	2200      	movs	r2, #0
1000426c:	2100      	movs	r1, #0
1000426e:	2007      	movs	r0, #7
10004270:	f7ff ff2c 	bl	100040cc <clock_configure>
10004274:	9400      	str	r4, [sp, #0]
10004276:	0023      	movs	r3, r4
10004278:	2200      	movs	r2, #0
1000427a:	2100      	movs	r1, #0
1000427c:	2008      	movs	r0, #8
1000427e:	f7ff ff25 	bl	100040cc <clock_configure>
10004282:	4b0a      	ldr	r3, [pc, #40]	@ (100042ac <clocks_init+0xd8>)
10004284:	9300      	str	r3, [sp, #0]
10004286:	0023      	movs	r3, r4
10004288:	2200      	movs	r2, #0
1000428a:	2100      	movs	r1, #0
1000428c:	2009      	movs	r0, #9
1000428e:	f7ff ff1d 	bl	100040cc <clock_configure>
10004292:	9500      	str	r5, [sp, #0]
10004294:	002b      	movs	r3, r5
10004296:	2200      	movs	r2, #0
10004298:	2100      	movs	r1, #0
1000429a:	2006      	movs	r0, #6
1000429c:	f7ff ff16 	bl	100040cc <clock_configure>
100042a0:	e7ad      	b.n	100041fe <clocks_init+0x2a>
100042a2:	46c0      	nop			@ (mov r8, r8)
100042a4:	20001dfc 	.word	0x20001dfc
100042a8:	02dc6c00 	.word	0x02dc6c00
100042ac:	0000b71b 	.word	0x0000b71b
100042b0:	40008000 	.word	0x40008000
100042b4:	4000b03c 	.word	0x4000b03c
100042b8:	4000b030 	.word	0x4000b030
100042bc:	59682f00 	.word	0x59682f00
100042c0:	40028000 	.word	0x40028000
100042c4:	47868c00 	.word	0x47868c00
100042c8:	4002c000 	.word	0x4002c000
100042cc:	00b71b00 	.word	0x00b71b00
100042d0:	07735940 	.word	0x07735940

100042d4 <clock_get_hz>:
100042d4:	4b01      	ldr	r3, [pc, #4]	@ (100042dc <clock_get_hz+0x8>)
100042d6:	0080      	lsls	r0, r0, #2
100042d8:	58c0      	ldr	r0, [r0, r3]
100042da:	4770      	bx	lr
100042dc:	20001dfc 	.word	0x20001dfc

100042e0 <pll_init>:
100042e0:	b5f0      	push	{r4, r5, r6, r7, lr}
100042e2:	46c6      	mov	lr, r8
100042e4:	b500      	push	{lr}
100042e6:	0004      	movs	r4, r0
100042e8:	000e      	movs	r6, r1
100042ea:	0017      	movs	r7, r2
100042ec:	001d      	movs	r5, r3
100042ee:	4837      	ldr	r0, [pc, #220]	@ (100043cc <pll_init+0xec>)
100042f0:	f001 fb16 	bl	10005920 <__wrap___aeabi_uidiv>
100042f4:	4680      	mov	r8, r0
100042f6:	4b36      	ldr	r3, [pc, #216]	@ (100043d0 <pll_init+0xf0>)
100042f8:	18fa      	adds	r2, r7, r3
100042fa:	4b36      	ldr	r3, [pc, #216]	@ (100043d4 <pll_init+0xf4>)
100042fc:	429a      	cmp	r2, r3
100042fe:	d839      	bhi.n	10004374 <pll_init+0x94>
10004300:	0001      	movs	r1, r0
10004302:	0038      	movs	r0, r7
10004304:	f001 fb0c 	bl	10005920 <__wrap___aeabi_uidiv>
10004308:	0002      	movs	r2, r0
1000430a:	3a10      	subs	r2, #16
1000430c:	2398      	movs	r3, #152	@ 0x98
1000430e:	005b      	lsls	r3, r3, #1
10004310:	429a      	cmp	r2, r3
10004312:	d835      	bhi.n	10004380 <pll_init+0xa0>
10004314:	1e6b      	subs	r3, r5, #1
10004316:	2b06      	cmp	r3, #6
10004318:	d838      	bhi.n	1000438c <pll_init+0xac>
1000431a:	9b06      	ldr	r3, [sp, #24]
1000431c:	3b01      	subs	r3, #1
1000431e:	2b06      	cmp	r3, #6
10004320:	d834      	bhi.n	1000438c <pll_init+0xac>
10004322:	093f      	lsrs	r7, r7, #4
10004324:	4547      	cmp	r7, r8
10004326:	d337      	bcc.n	10004398 <pll_init+0xb8>
10004328:	042d      	lsls	r5, r5, #16
1000432a:	9b06      	ldr	r3, [sp, #24]
1000432c:	031b      	lsls	r3, r3, #12
1000432e:	431d      	orrs	r5, r3
10004330:	6823      	ldr	r3, [r4, #0]
10004332:	2b00      	cmp	r3, #0
10004334:	db36      	blt.n	100043a4 <pll_init+0xc4>
10004336:	4b28      	ldr	r3, [pc, #160]	@ (100043d8 <pll_init+0xf8>)
10004338:	429c      	cmp	r4, r3
1000433a:	d044      	beq.n	100043c6 <pll_init+0xe6>
1000433c:	2380      	movs	r3, #128	@ 0x80
1000433e:	015b      	lsls	r3, r3, #5
10004340:	4a26      	ldr	r2, [pc, #152]	@ (100043dc <pll_init+0xfc>)
10004342:	6013      	str	r3, [r2, #0]
10004344:	4a26      	ldr	r2, [pc, #152]	@ (100043e0 <pll_init+0x100>)
10004346:	6013      	str	r3, [r2, #0]
10004348:	4a26      	ldr	r2, [pc, #152]	@ (100043e4 <pll_init+0x104>)
1000434a:	6892      	ldr	r2, [r2, #8]
1000434c:	0019      	movs	r1, r3
1000434e:	4391      	bics	r1, r2
10004350:	d1fa      	bne.n	10004348 <pll_init+0x68>
10004352:	6026      	str	r6, [r4, #0]
10004354:	60a0      	str	r0, [r4, #8]
10004356:	1d22      	adds	r2, r4, #4
10004358:	23c0      	movs	r3, #192	@ 0xc0
1000435a:	019b      	lsls	r3, r3, #6
1000435c:	4313      	orrs	r3, r2
1000435e:	2221      	movs	r2, #33	@ 0x21
10004360:	601a      	str	r2, [r3, #0]
10004362:	6822      	ldr	r2, [r4, #0]
10004364:	2a00      	cmp	r2, #0
10004366:	dafc      	bge.n	10004362 <pll_init+0x82>
10004368:	60e5      	str	r5, [r4, #12]
1000436a:	2208      	movs	r2, #8
1000436c:	601a      	str	r2, [r3, #0]
1000436e:	bc80      	pop	{r7}
10004370:	46b8      	mov	r8, r7
10004372:	bdf0      	pop	{r4, r5, r6, r7, pc}
10004374:	4b1c      	ldr	r3, [pc, #112]	@ (100043e8 <pll_init+0x108>)
10004376:	4a1d      	ldr	r2, [pc, #116]	@ (100043ec <pll_init+0x10c>)
10004378:	481d      	ldr	r0, [pc, #116]	@ (100043f0 <pll_init+0x110>)
1000437a:	2111      	movs	r1, #17
1000437c:	f000 f8e8 	bl	10004550 <__assert_func>
10004380:	4b1c      	ldr	r3, [pc, #112]	@ (100043f4 <pll_init+0x114>)
10004382:	4a1a      	ldr	r2, [pc, #104]	@ (100043ec <pll_init+0x10c>)
10004384:	481a      	ldr	r0, [pc, #104]	@ (100043f0 <pll_init+0x110>)
10004386:	2119      	movs	r1, #25
10004388:	f000 f8e2 	bl	10004550 <__assert_func>
1000438c:	4b1a      	ldr	r3, [pc, #104]	@ (100043f8 <pll_init+0x118>)
1000438e:	4a17      	ldr	r2, [pc, #92]	@ (100043ec <pll_init+0x10c>)
10004390:	4817      	ldr	r0, [pc, #92]	@ (100043f0 <pll_init+0x110>)
10004392:	211c      	movs	r1, #28
10004394:	f000 f8dc 	bl	10004550 <__assert_func>
10004398:	4b18      	ldr	r3, [pc, #96]	@ (100043fc <pll_init+0x11c>)
1000439a:	4a14      	ldr	r2, [pc, #80]	@ (100043ec <pll_init+0x10c>)
1000439c:	4814      	ldr	r0, [pc, #80]	@ (100043f0 <pll_init+0x110>)
1000439e:	2123      	movs	r1, #35	@ 0x23
100043a0:	f000 f8d6 	bl	10004550 <__assert_func>
100043a4:	6822      	ldr	r2, [r4, #0]
100043a6:	233f      	movs	r3, #63	@ 0x3f
100043a8:	4013      	ands	r3, r2
100043aa:	42b3      	cmp	r3, r6
100043ac:	d1c3      	bne.n	10004336 <pll_init+0x56>
100043ae:	68a3      	ldr	r3, [r4, #8]
100043b0:	051b      	lsls	r3, r3, #20
100043b2:	0d1b      	lsrs	r3, r3, #20
100043b4:	4283      	cmp	r3, r0
100043b6:	d1be      	bne.n	10004336 <pll_init+0x56>
100043b8:	68e3      	ldr	r3, [r4, #12]
100043ba:	22ee      	movs	r2, #238	@ 0xee
100043bc:	02d2      	lsls	r2, r2, #11
100043be:	4013      	ands	r3, r2
100043c0:	42ab      	cmp	r3, r5
100043c2:	d1b8      	bne.n	10004336 <pll_init+0x56>
100043c4:	e7d3      	b.n	1000436e <pll_init+0x8e>
100043c6:	2380      	movs	r3, #128	@ 0x80
100043c8:	019b      	lsls	r3, r3, #6
100043ca:	e7b9      	b.n	10004340 <pll_init+0x60>
100043cc:	00b71b00 	.word	0x00b71b00
100043d0:	d34be880 	.word	0xd34be880
100043d4:	32a9f880 	.word	0x32a9f880
100043d8:	4002c000 	.word	0x4002c000
100043dc:	4000e000 	.word	0x4000e000
100043e0:	4000f000 	.word	0x4000f000
100043e4:	4000c000 	.word	0x4000c000
100043e8:	1000bb70 	.word	0x1000bb70
100043ec:	1000c664 	.word	0x1000c664
100043f0:	1000bbd0 	.word	0x1000bbd0
100043f4:	1000bc10 	.word	0x1000bc10
100043f8:	1000bc2c 	.word	0x1000bc2c
100043fc:	1000bc78 	.word	0x1000bc78

10004400 <watchdog_start_tick>:
10004400:	2380      	movs	r3, #128	@ 0x80
10004402:	009b      	lsls	r3, r3, #2
10004404:	4303      	orrs	r3, r0
10004406:	4a01      	ldr	r2, [pc, #4]	@ (1000440c <watchdog_start_tick+0xc>)
10004408:	62d3      	str	r3, [r2, #44]	@ 0x2c
1000440a:	4770      	bx	lr
1000440c:	40058000 	.word	0x40058000

10004410 <watchdog_update>:
10004410:	4b02      	ldr	r3, [pc, #8]	@ (1000441c <watchdog_update+0xc>)
10004412:	681a      	ldr	r2, [r3, #0]
10004414:	4b02      	ldr	r3, [pc, #8]	@ (10004420 <watchdog_update+0x10>)
10004416:	605a      	str	r2, [r3, #4]
10004418:	4770      	bx	lr
1000441a:	46c0      	nop			@ (mov r8, r8)
1000441c:	200022c0 	.word	0x200022c0
10004420:	40058000 	.word	0x40058000

10004424 <_watchdog_enable>:
10004424:	b510      	push	{r4, lr}
10004426:	4b17      	ldr	r3, [pc, #92]	@ (10004484 <_watchdog_enable+0x60>)
10004428:	2280      	movs	r2, #128	@ 0x80
1000442a:	05d2      	lsls	r2, r2, #23
1000442c:	601a      	str	r2, [r3, #0]
1000442e:	4b16      	ldr	r3, [pc, #88]	@ (10004488 <_watchdog_enable+0x64>)
10004430:	4a16      	ldr	r2, [pc, #88]	@ (1000448c <_watchdog_enable+0x68>)
10004432:	601a      	str	r2, [r3, #0]
10004434:	2900      	cmp	r1, #0
10004436:	d00a      	beq.n	1000444e <_watchdog_enable+0x2a>
10004438:	4b15      	ldr	r3, [pc, #84]	@ (10004490 <_watchdog_enable+0x6c>)
1000443a:	22e0      	movs	r2, #224	@ 0xe0
1000443c:	04d2      	lsls	r2, r2, #19
1000443e:	601a      	str	r2, [r3, #0]
10004440:	2800      	cmp	r0, #0
10004442:	d109      	bne.n	10004458 <_watchdog_enable+0x34>
10004444:	4b12      	ldr	r3, [pc, #72]	@ (10004490 <_watchdog_enable+0x6c>)
10004446:	2280      	movs	r2, #128	@ 0x80
10004448:	0612      	lsls	r2, r2, #24
1000444a:	601a      	str	r2, [r3, #0]
1000444c:	bd10      	pop	{r4, pc}
1000444e:	4b0d      	ldr	r3, [pc, #52]	@ (10004484 <_watchdog_enable+0x60>)
10004450:	22e0      	movs	r2, #224	@ 0xe0
10004452:	04d2      	lsls	r2, r2, #19
10004454:	601a      	str	r2, [r3, #0]
10004456:	e7f3      	b.n	10004440 <_watchdog_enable+0x1c>
10004458:	0143      	lsls	r3, r0, #5
1000445a:	1a1b      	subs	r3, r3, r0
1000445c:	009b      	lsls	r3, r3, #2
1000445e:	1818      	adds	r0, r3, r0
10004460:	0100      	lsls	r0, r0, #4
10004462:	4b0c      	ldr	r3, [pc, #48]	@ (10004494 <_watchdog_enable+0x70>)
10004464:	6018      	str	r0, [r3, #0]
10004466:	2380      	movs	r3, #128	@ 0x80
10004468:	045b      	lsls	r3, r3, #17
1000446a:	4298      	cmp	r0, r3
1000446c:	d302      	bcc.n	10004474 <_watchdog_enable+0x50>
1000446e:	4b09      	ldr	r3, [pc, #36]	@ (10004494 <_watchdog_enable+0x70>)
10004470:	4a09      	ldr	r2, [pc, #36]	@ (10004498 <_watchdog_enable+0x74>)
10004472:	601a      	str	r2, [r3, #0]
10004474:	f7ff ffcc 	bl	10004410 <watchdog_update>
10004478:	4b05      	ldr	r3, [pc, #20]	@ (10004490 <_watchdog_enable+0x6c>)
1000447a:	2280      	movs	r2, #128	@ 0x80
1000447c:	05d2      	lsls	r2, r2, #23
1000447e:	601a      	str	r2, [r3, #0]
10004480:	e7e4      	b.n	1000444c <_watchdog_enable+0x28>
10004482:	46c0      	nop			@ (mov r8, r8)
10004484:	4005b000 	.word	0x4005b000
10004488:	40012008 	.word	0x40012008
1000448c:	0001fffc 	.word	0x0001fffc
10004490:	4005a000 	.word	0x4005a000
10004494:	200022c0 	.word	0x200022c0
10004498:	00ffffff 	.word	0x00ffffff

1000449c <watchdog_reboot>:
1000449c:	b510      	push	{r4, lr}
1000449e:	0003      	movs	r3, r0
100044a0:	0010      	movs	r0, r2
100044a2:	4a0c      	ldr	r2, [pc, #48]	@ (100044d4 <watchdog_reboot+0x38>)
100044a4:	2480      	movs	r4, #128	@ 0x80
100044a6:	05e4      	lsls	r4, r4, #23
100044a8:	6014      	str	r4, [r2, #0]
100044aa:	2b00      	cmp	r3, #0
100044ac:	d00d      	beq.n	100044ca <watchdog_reboot+0x2e>
100044ae:	2201      	movs	r2, #1
100044b0:	4313      	orrs	r3, r2
100044b2:	4a09      	ldr	r2, [pc, #36]	@ (100044d8 <watchdog_reboot+0x3c>)
100044b4:	4c09      	ldr	r4, [pc, #36]	@ (100044dc <watchdog_reboot+0x40>)
100044b6:	61d4      	str	r4, [r2, #28]
100044b8:	4c09      	ldr	r4, [pc, #36]	@ (100044e0 <watchdog_reboot+0x44>)
100044ba:	405c      	eors	r4, r3
100044bc:	6214      	str	r4, [r2, #32]
100044be:	6251      	str	r1, [r2, #36]	@ 0x24
100044c0:	6293      	str	r3, [r2, #40]	@ 0x28
100044c2:	2100      	movs	r1, #0
100044c4:	f7ff ffae 	bl	10004424 <_watchdog_enable>
100044c8:	bd10      	pop	{r4, pc}
100044ca:	4b03      	ldr	r3, [pc, #12]	@ (100044d8 <watchdog_reboot+0x3c>)
100044cc:	2200      	movs	r2, #0
100044ce:	61da      	str	r2, [r3, #28]
100044d0:	e7f7      	b.n	100044c2 <watchdog_reboot+0x26>
100044d2:	46c0      	nop			@ (mov r8, r8)
100044d4:	4005b000 	.word	0x4005b000
100044d8:	40058000 	.word	0x40058000
100044dc:	b007c0d3 	.word	0xb007c0d3
100044e0:	4ff83f2d 	.word	0x4ff83f2d

100044e4 <xosc_init>:
100044e4:	4b06      	ldr	r3, [pc, #24]	@ (10004500 <xosc_init+0x1c>)
100044e6:	22aa      	movs	r2, #170	@ 0xaa
100044e8:	0112      	lsls	r2, r2, #4
100044ea:	601a      	str	r2, [r3, #0]
100044ec:	222f      	movs	r2, #47	@ 0x2f
100044ee:	60da      	str	r2, [r3, #12]
100044f0:	4b04      	ldr	r3, [pc, #16]	@ (10004504 <xosc_init+0x20>)
100044f2:	4a05      	ldr	r2, [pc, #20]	@ (10004508 <xosc_init+0x24>)
100044f4:	601a      	str	r2, [r3, #0]
100044f6:	4b02      	ldr	r3, [pc, #8]	@ (10004500 <xosc_init+0x1c>)
100044f8:	685b      	ldr	r3, [r3, #4]
100044fa:	2b00      	cmp	r3, #0
100044fc:	dafb      	bge.n	100044f6 <xosc_init+0x12>
100044fe:	4770      	bx	lr
10004500:	40024000 	.word	0x40024000
10004504:	40026000 	.word	0x40026000
10004508:	00fab000 	.word	0x00fab000

1000450c <_exit>:
1000450c:	be00      	bkpt	0x0000
1000450e:	e7fd      	b.n	1000450c <_exit>

10004510 <_sbrk>:
10004510:	0003      	movs	r3, r0
10004512:	4a0a      	ldr	r2, [pc, #40]	@ (1000453c <_sbrk+0x2c>)
10004514:	6812      	ldr	r2, [r2, #0]
10004516:	2a00      	cmp	r2, #0
10004518:	d008      	beq.n	1000452c <_sbrk+0x1c>
1000451a:	4a08      	ldr	r2, [pc, #32]	@ (1000453c <_sbrk+0x2c>)
1000451c:	6810      	ldr	r0, [r2, #0]
1000451e:	18c3      	adds	r3, r0, r3
10004520:	4a07      	ldr	r2, [pc, #28]	@ (10004540 <_sbrk+0x30>)
10004522:	429a      	cmp	r2, r3
10004524:	d306      	bcc.n	10004534 <_sbrk+0x24>
10004526:	4a05      	ldr	r2, [pc, #20]	@ (1000453c <_sbrk+0x2c>)
10004528:	6013      	str	r3, [r2, #0]
1000452a:	4770      	bx	lr
1000452c:	4a03      	ldr	r2, [pc, #12]	@ (1000453c <_sbrk+0x2c>)
1000452e:	4905      	ldr	r1, [pc, #20]	@ (10004544 <_sbrk+0x34>)
10004530:	6011      	str	r1, [r2, #0]
10004532:	e7f2      	b.n	1000451a <_sbrk+0xa>
10004534:	2001      	movs	r0, #1
10004536:	4240      	negs	r0, r0
10004538:	e7f7      	b.n	1000452a <_sbrk+0x1a>
1000453a:	46c0      	nop			@ (mov r8, r8)
1000453c:	20001eb8 	.word	0x20001eb8
10004540:	20040000 	.word	0x20040000
10004544:	20002560 	.word	0x20002560

10004548 <exit>:
10004548:	b510      	push	{r4, lr}
1000454a:	f7ff ffdf 	bl	1000450c <_exit>
	...

10004550 <__assert_func>:
10004550:	b530      	push	{r4, r5, lr}
10004552:	b083      	sub	sp, #12
10004554:	000d      	movs	r5, r1
10004556:	0019      	movs	r1, r3
10004558:	2a00      	cmp	r2, #0
1000455a:	d00b      	beq.n	10004574 <__assert_func+0x24>
1000455c:	4b07      	ldr	r3, [pc, #28]	@ (1000457c <__assert_func+0x2c>)
1000455e:	4c08      	ldr	r4, [pc, #32]	@ (10004580 <__assert_func+0x30>)
10004560:	9201      	str	r2, [sp, #4]
10004562:	9300      	str	r3, [sp, #0]
10004564:	002b      	movs	r3, r5
10004566:	0002      	movs	r2, r0
10004568:	0020      	movs	r0, r4
1000456a:	f003 f941 	bl	100077f0 <__wrap_printf>
1000456e:	2001      	movs	r0, #1
10004570:	f7ff ffcc 	bl	1000450c <_exit>
10004574:	4b03      	ldr	r3, [pc, #12]	@ (10004584 <__assert_func+0x34>)
10004576:	001a      	movs	r2, r3
10004578:	e7f1      	b.n	1000455e <__assert_func+0xe>
1000457a:	46c0      	nop			@ (mov r8, r8)
1000457c:	1000bc94 	.word	0x1000bc94
10004580:	1000bca4 	.word	0x1000bca4
10004584:	1000aecc 	.word	0x1000aecc

10004588 <runtime_init>:
10004588:	b570      	push	{r4, r5, r6, lr}
1000458a:	4b2b      	ldr	r3, [pc, #172]	@ (10004638 <runtime_init+0xb0>)
1000458c:	4a2b      	ldr	r2, [pc, #172]	@ (1000463c <runtime_init+0xb4>)
1000458e:	601a      	str	r2, [r3, #0]
10004590:	4b2b      	ldr	r3, [pc, #172]	@ (10004640 <runtime_init+0xb8>)
10004592:	4a2c      	ldr	r2, [pc, #176]	@ (10004644 <runtime_init+0xbc>)
10004594:	601a      	str	r2, [r3, #0]
10004596:	4b2c      	ldr	r3, [pc, #176]	@ (10004648 <runtime_init+0xc0>)
10004598:	689a      	ldr	r2, [r3, #8]
1000459a:	4b2a      	ldr	r3, [pc, #168]	@ (10004644 <runtime_init+0xbc>)
1000459c:	4393      	bics	r3, r2
1000459e:	d1fa      	bne.n	10004596 <runtime_init+0xe>
100045a0:	4c2a      	ldr	r4, [pc, #168]	@ (1000464c <runtime_init+0xc4>)
100045a2:	e001      	b.n	100045a8 <runtime_init+0x20>
100045a4:	cc08      	ldmia	r4!, {r3}
100045a6:	4798      	blx	r3
100045a8:	4b29      	ldr	r3, [pc, #164]	@ (10004650 <runtime_init+0xc8>)
100045aa:	429c      	cmp	r4, r3
100045ac:	d3fa      	bcc.n	100045a4 <runtime_init+0x1c>
100045ae:	f7ff fe11 	bl	100041d4 <clocks_init>
100045b2:	4b23      	ldr	r3, [pc, #140]	@ (10004640 <runtime_init+0xb8>)
100045b4:	4a27      	ldr	r2, [pc, #156]	@ (10004654 <runtime_init+0xcc>)
100045b6:	601a      	str	r2, [r3, #0]
100045b8:	4b23      	ldr	r3, [pc, #140]	@ (10004648 <runtime_init+0xc0>)
100045ba:	689b      	ldr	r3, [r3, #8]
100045bc:	43db      	mvns	r3, r3
100045be:	01db      	lsls	r3, r3, #7
100045c0:	d1fa      	bne.n	100045b8 <runtime_init+0x30>
100045c2:	4b25      	ldr	r3, [pc, #148]	@ (10004658 <runtime_init+0xd0>)
100045c4:	2240      	movs	r2, #64	@ 0x40
100045c6:	679a      	str	r2, [r3, #120]	@ 0x78
100045c8:	675a      	str	r2, [r3, #116]	@ 0x74
100045ca:	671a      	str	r2, [r3, #112]	@ 0x70
100045cc:	66da      	str	r2, [r3, #108]	@ 0x6c
100045ce:	4c23      	ldr	r4, [pc, #140]	@ (1000465c <runtime_init+0xd4>)
100045d0:	e009      	b.n	100045e6 <runtime_init+0x5e>
100045d2:	4b23      	ldr	r3, [pc, #140]	@ (10004660 <runtime_init+0xd8>)
100045d4:	4a23      	ldr	r2, [pc, #140]	@ (10004664 <runtime_init+0xdc>)
100045d6:	4824      	ldr	r0, [pc, #144]	@ (10004668 <runtime_init+0xe0>)
100045d8:	2187      	movs	r1, #135	@ 0x87
100045da:	f7ff ffb9 	bl	10004550 <__assert_func>
100045de:	0020      	movs	r0, r4
100045e0:	f7fe fdcb 	bl	1000317a <mutex_init>
100045e4:	3408      	adds	r4, #8
100045e6:	4b21      	ldr	r3, [pc, #132]	@ (1000466c <runtime_init+0xe4>)
100045e8:	429c      	cmp	r4, r3
100045ea:	d209      	bcs.n	10004600 <runtime_init+0x78>
100045ec:	6823      	ldr	r3, [r4, #0]
100045ee:	2b00      	cmp	r3, #0
100045f0:	d0f5      	beq.n	100045de <runtime_init+0x56>
100045f2:	2b01      	cmp	r3, #1
100045f4:	d1ed      	bne.n	100045d2 <runtime_init+0x4a>
100045f6:	0020      	movs	r0, r4
100045f8:	f7fe fdcc 	bl	10003194 <recursive_mutex_init>
100045fc:	3408      	adds	r4, #8
100045fe:	e7f2      	b.n	100045e6 <runtime_init+0x5e>
10004600:	4d1b      	ldr	r5, [pc, #108]	@ (10004670 <runtime_init+0xe8>)
10004602:	68a9      	ldr	r1, [r5, #8]
10004604:	4c1b      	ldr	r4, [pc, #108]	@ (10004674 <runtime_init+0xec>)
10004606:	22c0      	movs	r2, #192	@ 0xc0
10004608:	0020      	movs	r0, r4
1000460a:	f002 fee1 	bl	100073d0 <__wrap___aeabi_memcpy>
1000460e:	60ac      	str	r4, [r5, #8]
10004610:	f3ef 8305 	mrs	r3, IPSR
10004614:	2b00      	cmp	r3, #0
10004616:	d000      	beq.n	1000461a <runtime_init+0x92>
10004618:	be00      	bkpt	0x0000
1000461a:	f7fe f9d9 	bl	100029d0 <spin_locks_reset>
1000461e:	f7fe fd2b 	bl	10003078 <irq_init_priorities>
10004622:	f7ff f8e1 	bl	100037e8 <alarm_pool_init_default>
10004626:	4c14      	ldr	r4, [pc, #80]	@ (10004678 <runtime_init+0xf0>)
10004628:	e001      	b.n	1000462e <runtime_init+0xa6>
1000462a:	cc08      	ldmia	r4!, {r3}
1000462c:	4798      	blx	r3
1000462e:	4b13      	ldr	r3, [pc, #76]	@ (1000467c <runtime_init+0xf4>)
10004630:	429c      	cmp	r4, r3
10004632:	d3fa      	bcc.n	1000462a <runtime_init+0xa2>
10004634:	bd70      	pop	{r4, r5, r6, pc}
10004636:	46c0      	nop			@ (mov r8, r8)
10004638:	4000e000 	.word	0x4000e000
1000463c:	fefbcdbf 	.word	0xfefbcdbf
10004640:	4000f000 	.word	0x4000f000
10004644:	003c7ffe 	.word	0x003c7ffe
10004648:	4000c000 	.word	0x4000c000
1000464c:	200013f0 	.word	0x200013f0
10004650:	20001400 	.word	0x20001400
10004654:	01ffffff 	.word	0x01ffffff
10004658:	4001f000 	.word	0x4001f000
1000465c:	200013e0 	.word	0x200013e0
10004660:	1000bcd4 	.word	0x1000bcd4
10004664:	1000c670 	.word	0x1000c670
10004668:	1000bcf4 	.word	0x1000bcf4
1000466c:	200013f0 	.word	0x200013f0
10004670:	e000ed00 	.word	0xe000ed00
10004674:	20000000 	.word	0x20000000
10004678:	20001400 	.word	0x20001400
1000467c:	2000140c 	.word	0x2000140c

10004680 <panic>:
10004680:	b40f      	push	{r0, r1, r2, r3}
10004682:	b500      	push	{lr}
10004684:	b083      	sub	sp, #12
10004686:	4808      	ldr	r0, [pc, #32]	@ (100046a8 <panic+0x28>)
10004688:	f003 f882 	bl	10007790 <__wrap_puts>
1000468c:	9b04      	ldr	r3, [sp, #16]
1000468e:	2b00      	cmp	r3, #0
10004690:	d007      	beq.n	100046a2 <panic+0x22>
10004692:	a905      	add	r1, sp, #20
10004694:	9101      	str	r1, [sp, #4]
10004696:	0018      	movs	r0, r3
10004698:	f003 f88a 	bl	100077b0 <__wrap_vprintf>
1000469c:	4803      	ldr	r0, [pc, #12]	@ (100046ac <panic+0x2c>)
1000469e:	f003 f877 	bl	10007790 <__wrap_puts>
100046a2:	2001      	movs	r0, #1
100046a4:	f7ff ff32 	bl	1000450c <_exit>
100046a8:	1000bd38 	.word	0x1000bd38
100046ac:	1000ae44 	.word	0x1000ae44

100046b0 <_out_null>:
100046b0:	4770      	bx	lr

100046b2 <_out_fct>:
100046b2:	b510      	push	{r4, lr}
100046b4:	2800      	cmp	r0, #0
100046b6:	d002      	beq.n	100046be <_out_fct+0xc>
100046b8:	680b      	ldr	r3, [r1, #0]
100046ba:	6849      	ldr	r1, [r1, #4]
100046bc:	4798      	blx	r3
100046be:	bd10      	pop	{r4, pc}

100046c0 <_atoi>:
100046c0:	0001      	movs	r1, r0
100046c2:	2000      	movs	r0, #0
100046c4:	e007      	b.n	100046d6 <_atoi+0x16>
100046c6:	0083      	lsls	r3, r0, #2
100046c8:	181b      	adds	r3, r3, r0
100046ca:	005b      	lsls	r3, r3, #1
100046cc:	1c50      	adds	r0, r2, #1
100046ce:	6008      	str	r0, [r1, #0]
100046d0:	7810      	ldrb	r0, [r2, #0]
100046d2:	18c0      	adds	r0, r0, r3
100046d4:	3830      	subs	r0, #48	@ 0x30
100046d6:	680a      	ldr	r2, [r1, #0]
100046d8:	7813      	ldrb	r3, [r2, #0]
100046da:	3b30      	subs	r3, #48	@ 0x30
100046dc:	b2db      	uxtb	r3, r3
100046de:	2b09      	cmp	r3, #9
100046e0:	d9f1      	bls.n	100046c6 <_atoi+0x6>
100046e2:	4770      	bx	lr

100046e4 <_out_rev>:
100046e4:	b5f0      	push	{r4, r5, r6, r7, lr}
100046e6:	46de      	mov	lr, fp
100046e8:	4657      	mov	r7, sl
100046ea:	464e      	mov	r6, r9
100046ec:	4645      	mov	r5, r8
100046ee:	b5e0      	push	{r5, r6, r7, lr}
100046f0:	b083      	sub	sp, #12
100046f2:	4693      	mov	fp, r2
100046f4:	001f      	movs	r7, r3
100046f6:	9b0c      	ldr	r3, [sp, #48]	@ 0x30
100046f8:	469a      	mov	sl, r3
100046fa:	9c0d      	ldr	r4, [sp, #52]	@ 0x34
100046fc:	9b0e      	ldr	r3, [sp, #56]	@ 0x38
100046fe:	4699      	mov	r9, r3
10004700:	9b0f      	ldr	r3, [sp, #60]	@ 0x3c
10004702:	079b      	lsls	r3, r3, #30
10004704:	d003      	beq.n	1000470e <_out_rev+0x2a>
10004706:	46b8      	mov	r8, r7
10004708:	000f      	movs	r7, r1
1000470a:	0006      	movs	r6, r0
1000470c:	e022      	b.n	10004754 <_out_rev+0x70>
1000470e:	9201      	str	r2, [sp, #4]
10004710:	46a3      	mov	fp, r4
10004712:	4688      	mov	r8, r1
10004714:	464e      	mov	r6, r9
10004716:	46b9      	mov	r9, r7
10004718:	0007      	movs	r7, r0
1000471a:	42b4      	cmp	r4, r6
1000471c:	d207      	bcs.n	1000472e <_out_rev+0x4a>
1000471e:	1c55      	adds	r5, r2, #1
10004720:	464b      	mov	r3, r9
10004722:	4641      	mov	r1, r8
10004724:	2020      	movs	r0, #32
10004726:	47b8      	blx	r7
10004728:	3401      	adds	r4, #1
1000472a:	002a      	movs	r2, r5
1000472c:	e7f5      	b.n	1000471a <_out_rev+0x36>
1000472e:	003d      	movs	r5, r7
10004730:	464f      	mov	r7, r9
10004732:	465c      	mov	r4, fp
10004734:	9b01      	ldr	r3, [sp, #4]
10004736:	469b      	mov	fp, r3
10004738:	46b1      	mov	r9, r6
1000473a:	4646      	mov	r6, r8
1000473c:	46b8      	mov	r8, r7
1000473e:	0037      	movs	r7, r6
10004740:	002e      	movs	r6, r5
10004742:	e007      	b.n	10004754 <_out_rev+0x70>
10004744:	3c01      	subs	r4, #1
10004746:	1c55      	adds	r5, r2, #1
10004748:	4653      	mov	r3, sl
1000474a:	5d18      	ldrb	r0, [r3, r4]
1000474c:	4643      	mov	r3, r8
1000474e:	0039      	movs	r1, r7
10004750:	47b0      	blx	r6
10004752:	002a      	movs	r2, r5
10004754:	2c00      	cmp	r4, #0
10004756:	d1f5      	bne.n	10004744 <_out_rev+0x60>
10004758:	0035      	movs	r5, r6
1000475a:	003e      	movs	r6, r7
1000475c:	4647      	mov	r7, r8
1000475e:	9b0f      	ldr	r3, [sp, #60]	@ 0x3c
10004760:	079b      	lsls	r3, r3, #30
10004762:	d407      	bmi.n	10004774 <_out_rev+0x90>
10004764:	0010      	movs	r0, r2
10004766:	b003      	add	sp, #12
10004768:	bcf0      	pop	{r4, r5, r6, r7}
1000476a:	46bb      	mov	fp, r7
1000476c:	46b2      	mov	sl, r6
1000476e:	46a9      	mov	r9, r5
10004770:	46a0      	mov	r8, r4
10004772:	bdf0      	pop	{r4, r5, r6, r7, pc}
10004774:	46b0      	mov	r8, r6
10004776:	464e      	mov	r6, r9
10004778:	46b9      	mov	r9, r7
1000477a:	002f      	movs	r7, r5
1000477c:	465d      	mov	r5, fp
1000477e:	1b53      	subs	r3, r2, r5
10004780:	42b3      	cmp	r3, r6
10004782:	d2ef      	bcs.n	10004764 <_out_rev+0x80>
10004784:	1c54      	adds	r4, r2, #1
10004786:	464b      	mov	r3, r9
10004788:	4641      	mov	r1, r8
1000478a:	2020      	movs	r0, #32
1000478c:	47b8      	blx	r7
1000478e:	0022      	movs	r2, r4
10004790:	e7f5      	b.n	1000477e <_out_rev+0x9a>

10004792 <_ntoa_format>:
10004792:	b5f0      	push	{r4, r5, r6, r7, lr}
10004794:	46ce      	mov	lr, r9
10004796:	4647      	mov	r7, r8
10004798:	b580      	push	{r7, lr}
1000479a:	b085      	sub	sp, #20
1000479c:	4694      	mov	ip, r2
1000479e:	4698      	mov	r8, r3
100047a0:	9d0c      	ldr	r5, [sp, #48]	@ 0x30
100047a2:	9c0d      	ldr	r4, [sp, #52]	@ 0x34
100047a4:	ab0e      	add	r3, sp, #56	@ 0x38
100047a6:	781b      	ldrb	r3, [r3, #0]
100047a8:	4699      	mov	r9, r3
100047aa:	9a10      	ldr	r2, [sp, #64]	@ 0x40
100047ac:	9b11      	ldr	r3, [sp, #68]	@ 0x44
100047ae:	9e12      	ldr	r6, [sp, #72]	@ 0x48
100047b0:	07b7      	lsls	r7, r6, #30
100047b2:	d41c      	bmi.n	100047ee <_ntoa_format+0x5c>
100047b4:	2b00      	cmp	r3, #0
100047b6:	d00c      	beq.n	100047d2 <_ntoa_format+0x40>
100047b8:	07f7      	lsls	r7, r6, #31
100047ba:	d50a      	bpl.n	100047d2 <_ntoa_format+0x40>
100047bc:	464f      	mov	r7, r9
100047be:	2f00      	cmp	r7, #0
100047c0:	d102      	bne.n	100047c8 <_ntoa_format+0x36>
100047c2:	370c      	adds	r7, #12
100047c4:	4237      	tst	r7, r6
100047c6:	d004      	beq.n	100047d2 <_ntoa_format+0x40>
100047c8:	3b01      	subs	r3, #1
100047ca:	e002      	b.n	100047d2 <_ntoa_format+0x40>
100047cc:	2730      	movs	r7, #48	@ 0x30
100047ce:	552f      	strb	r7, [r5, r4]
100047d0:	3401      	adds	r4, #1
100047d2:	4294      	cmp	r4, r2
100047d4:	d201      	bcs.n	100047da <_ntoa_format+0x48>
100047d6:	2c1f      	cmp	r4, #31
100047d8:	d9f8      	bls.n	100047cc <_ntoa_format+0x3a>
100047da:	07f7      	lsls	r7, r6, #31
100047dc:	d507      	bpl.n	100047ee <_ntoa_format+0x5c>
100047de:	429c      	cmp	r4, r3
100047e0:	d205      	bcs.n	100047ee <_ntoa_format+0x5c>
100047e2:	2c1f      	cmp	r4, #31
100047e4:	d803      	bhi.n	100047ee <_ntoa_format+0x5c>
100047e6:	2730      	movs	r7, #48	@ 0x30
100047e8:	552f      	strb	r7, [r5, r4]
100047ea:	3401      	adds	r4, #1
100047ec:	e7f5      	b.n	100047da <_ntoa_format+0x48>
100047ee:	06f7      	lsls	r7, r6, #27
100047f0:	d512      	bpl.n	10004818 <_ntoa_format+0x86>
100047f2:	0577      	lsls	r7, r6, #21
100047f4:	d405      	bmi.n	10004802 <_ntoa_format+0x70>
100047f6:	2c00      	cmp	r4, #0
100047f8:	d003      	beq.n	10004802 <_ntoa_format+0x70>
100047fa:	4294      	cmp	r4, r2
100047fc:	d021      	beq.n	10004842 <_ntoa_format+0xb0>
100047fe:	429c      	cmp	r4, r3
10004800:	d01f      	beq.n	10004842 <_ntoa_format+0xb0>
10004802:	9a0f      	ldr	r2, [sp, #60]	@ 0x3c
10004804:	2a10      	cmp	r2, #16
10004806:	d032      	beq.n	1000486e <_ntoa_format+0xdc>
10004808:	9a0f      	ldr	r2, [sp, #60]	@ 0x3c
1000480a:	2a02      	cmp	r2, #2
1000480c:	d037      	beq.n	1000487e <_ntoa_format+0xec>
1000480e:	2c1f      	cmp	r4, #31
10004810:	d80a      	bhi.n	10004828 <_ntoa_format+0x96>
10004812:	2230      	movs	r2, #48	@ 0x30
10004814:	552a      	strb	r2, [r5, r4]
10004816:	3401      	adds	r4, #1
10004818:	2c1f      	cmp	r4, #31
1000481a:	d805      	bhi.n	10004828 <_ntoa_format+0x96>
1000481c:	464a      	mov	r2, r9
1000481e:	2a00      	cmp	r2, #0
10004820:	d033      	beq.n	1000488a <_ntoa_format+0xf8>
10004822:	222d      	movs	r2, #45	@ 0x2d
10004824:	552a      	strb	r2, [r5, r4]
10004826:	3401      	adds	r4, #1
10004828:	9603      	str	r6, [sp, #12]
1000482a:	9302      	str	r3, [sp, #8]
1000482c:	9401      	str	r4, [sp, #4]
1000482e:	9500      	str	r5, [sp, #0]
10004830:	4643      	mov	r3, r8
10004832:	4662      	mov	r2, ip
10004834:	f7ff ff56 	bl	100046e4 <_out_rev>
10004838:	b005      	add	sp, #20
1000483a:	bcc0      	pop	{r6, r7}
1000483c:	46b9      	mov	r9, r7
1000483e:	46b0      	mov	r8, r6
10004840:	bdf0      	pop	{r4, r5, r6, r7, pc}
10004842:	1e62      	subs	r2, r4, #1
10004844:	2c01      	cmp	r4, #1
10004846:	d010      	beq.n	1000486a <_ntoa_format+0xd8>
10004848:	9f0f      	ldr	r7, [sp, #60]	@ 0x3c
1000484a:	2f10      	cmp	r7, #16
1000484c:	d00b      	beq.n	10004866 <_ntoa_format+0xd4>
1000484e:	0014      	movs	r4, r2
10004850:	9a0f      	ldr	r2, [sp, #60]	@ 0x3c
10004852:	2a10      	cmp	r2, #16
10004854:	d1d8      	bne.n	10004808 <_ntoa_format+0x76>
10004856:	06b2      	lsls	r2, r6, #26
10004858:	d5d6      	bpl.n	10004808 <_ntoa_format+0x76>
1000485a:	2c1f      	cmp	r4, #31
1000485c:	d8d4      	bhi.n	10004808 <_ntoa_format+0x76>
1000485e:	2258      	movs	r2, #88	@ 0x58
10004860:	552a      	strb	r2, [r5, r4]
10004862:	3401      	adds	r4, #1
10004864:	e7d3      	b.n	1000480e <_ntoa_format+0x7c>
10004866:	3c02      	subs	r4, #2
10004868:	e7cb      	b.n	10004802 <_ntoa_format+0x70>
1000486a:	0014      	movs	r4, r2
1000486c:	e7c9      	b.n	10004802 <_ntoa_format+0x70>
1000486e:	06b2      	lsls	r2, r6, #26
10004870:	d4ee      	bmi.n	10004850 <_ntoa_format+0xbe>
10004872:	2c1f      	cmp	r4, #31
10004874:	d8ec      	bhi.n	10004850 <_ntoa_format+0xbe>
10004876:	2278      	movs	r2, #120	@ 0x78
10004878:	552a      	strb	r2, [r5, r4]
1000487a:	3401      	adds	r4, #1
1000487c:	e7c7      	b.n	1000480e <_ntoa_format+0x7c>
1000487e:	2c1f      	cmp	r4, #31
10004880:	d8d2      	bhi.n	10004828 <_ntoa_format+0x96>
10004882:	3260      	adds	r2, #96	@ 0x60
10004884:	552a      	strb	r2, [r5, r4]
10004886:	3401      	adds	r4, #1
10004888:	e7c1      	b.n	1000480e <_ntoa_format+0x7c>
1000488a:	0772      	lsls	r2, r6, #29
1000488c:	d503      	bpl.n	10004896 <_ntoa_format+0x104>
1000488e:	222b      	movs	r2, #43	@ 0x2b
10004890:	552a      	strb	r2, [r5, r4]
10004892:	3401      	adds	r4, #1
10004894:	e7c8      	b.n	10004828 <_ntoa_format+0x96>
10004896:	0732      	lsls	r2, r6, #28
10004898:	d5c6      	bpl.n	10004828 <_ntoa_format+0x96>
1000489a:	2220      	movs	r2, #32
1000489c:	552a      	strb	r2, [r5, r4]
1000489e:	3401      	adds	r4, #1
100048a0:	e7c2      	b.n	10004828 <_ntoa_format+0x96>

100048a2 <_ntoa_long>:
100048a2:	b5f0      	push	{r4, r5, r6, r7, lr}
100048a4:	46de      	mov	lr, fp
100048a6:	4657      	mov	r7, sl
100048a8:	464e      	mov	r6, r9
100048aa:	4645      	mov	r5, r8
100048ac:	b5e0      	push	{r5, r6, r7, lr}
100048ae:	b093      	sub	sp, #76	@ 0x4c
100048b0:	4681      	mov	r9, r0
100048b2:	468a      	mov	sl, r1
100048b4:	9208      	str	r2, [sp, #32]
100048b6:	9309      	str	r3, [sp, #36]	@ 0x24
100048b8:	ab1c      	add	r3, sp, #112	@ 0x70
100048ba:	cb10      	ldmia	r3!, {r4}
100048bc:	781b      	ldrb	r3, [r3, #0]
100048be:	469b      	mov	fp, r3
100048c0:	9d1e      	ldr	r5, [sp, #120]	@ 0x78
100048c2:	9b21      	ldr	r3, [sp, #132]	@ 0x84
100048c4:	4698      	mov	r8, r3
100048c6:	2c00      	cmp	r4, #0
100048c8:	d103      	bne.n	100048d2 <_ntoa_long+0x30>
100048ca:	2310      	movs	r3, #16
100048cc:	4642      	mov	r2, r8
100048ce:	439a      	bics	r2, r3
100048d0:	4690      	mov	r8, r2
100048d2:	2380      	movs	r3, #128	@ 0x80
100048d4:	00db      	lsls	r3, r3, #3
100048d6:	4646      	mov	r6, r8
100048d8:	401e      	ands	r6, r3
100048da:	4642      	mov	r2, r8
100048dc:	421a      	tst	r2, r3
100048de:	d012      	beq.n	10004906 <_ntoa_long+0x64>
100048e0:	2c00      	cmp	r4, #0
100048e2:	d022      	beq.n	1000492a <_ntoa_long+0x88>
100048e4:	2600      	movs	r6, #0
100048e6:	e00e      	b.n	10004906 <_ntoa_long+0x64>
100048e8:	3330      	adds	r3, #48	@ 0x30
100048ea:	b2d9      	uxtb	r1, r3
100048ec:	1c77      	adds	r7, r6, #1
100048ee:	ab0a      	add	r3, sp, #40	@ 0x28
100048f0:	5599      	strb	r1, [r3, r6]
100048f2:	0029      	movs	r1, r5
100048f4:	0020      	movs	r0, r4
100048f6:	f001 f813 	bl	10005920 <__wrap___aeabi_uidiv>
100048fa:	42ac      	cmp	r4, r5
100048fc:	d316      	bcc.n	1000492c <_ntoa_long+0x8a>
100048fe:	2f1f      	cmp	r7, #31
10004900:	d814      	bhi.n	1000492c <_ntoa_long+0x8a>
10004902:	003e      	movs	r6, r7
10004904:	0004      	movs	r4, r0
10004906:	0029      	movs	r1, r5
10004908:	0020      	movs	r0, r4
1000490a:	f001 f809 	bl	10005920 <__wrap___aeabi_uidiv>
1000490e:	b2cb      	uxtb	r3, r1
10004910:	2b09      	cmp	r3, #9
10004912:	d9e9      	bls.n	100048e8 <_ntoa_long+0x46>
10004914:	4642      	mov	r2, r8
10004916:	0692      	lsls	r2, r2, #26
10004918:	d505      	bpl.n	10004926 <_ntoa_long+0x84>
1000491a:	2141      	movs	r1, #65	@ 0x41
1000491c:	18c9      	adds	r1, r1, r3
1000491e:	b2c9      	uxtb	r1, r1
10004920:	390a      	subs	r1, #10
10004922:	b2c9      	uxtb	r1, r1
10004924:	e7e2      	b.n	100048ec <_ntoa_long+0x4a>
10004926:	2161      	movs	r1, #97	@ 0x61
10004928:	e7f8      	b.n	1000491c <_ntoa_long+0x7a>
1000492a:	0027      	movs	r7, r4
1000492c:	4643      	mov	r3, r8
1000492e:	9306      	str	r3, [sp, #24]
10004930:	9b20      	ldr	r3, [sp, #128]	@ 0x80
10004932:	9305      	str	r3, [sp, #20]
10004934:	9b1f      	ldr	r3, [sp, #124]	@ 0x7c
10004936:	9304      	str	r3, [sp, #16]
10004938:	9503      	str	r5, [sp, #12]
1000493a:	465b      	mov	r3, fp
1000493c:	9302      	str	r3, [sp, #8]
1000493e:	9701      	str	r7, [sp, #4]
10004940:	ab0a      	add	r3, sp, #40	@ 0x28
10004942:	9300      	str	r3, [sp, #0]
10004944:	9b09      	ldr	r3, [sp, #36]	@ 0x24
10004946:	9a08      	ldr	r2, [sp, #32]
10004948:	4651      	mov	r1, sl
1000494a:	4648      	mov	r0, r9
1000494c:	f7ff ff21 	bl	10004792 <_ntoa_format>
10004950:	b013      	add	sp, #76	@ 0x4c
10004952:	bcf0      	pop	{r4, r5, r6, r7}
10004954:	46bb      	mov	fp, r7
10004956:	46b2      	mov	sl, r6
10004958:	46a9      	mov	r9, r5
1000495a:	46a0      	mov	r8, r4
1000495c:	bdf0      	pop	{r4, r5, r6, r7, pc}

1000495e <_ntoa_long_long>:
1000495e:	b5f0      	push	{r4, r5, r6, r7, lr}
10004960:	46de      	mov	lr, fp
10004962:	4657      	mov	r7, sl
10004964:	464e      	mov	r6, r9
10004966:	4645      	mov	r5, r8
10004968:	b5e0      	push	{r5, r6, r7, lr}
1000496a:	b097      	sub	sp, #92	@ 0x5c
1000496c:	900a      	str	r0, [sp, #40]	@ 0x28
1000496e:	910b      	str	r1, [sp, #44]	@ 0x2c
10004970:	920c      	str	r2, [sp, #48]	@ 0x30
10004972:	469a      	mov	sl, r3
10004974:	9b20      	ldr	r3, [sp, #128]	@ 0x80
10004976:	4699      	mov	r9, r3
10004978:	9f21      	ldr	r7, [sp, #132]	@ 0x84
1000497a:	aa22      	add	r2, sp, #136	@ 0x88
1000497c:	7813      	ldrb	r3, [r2, #0]
1000497e:	469b      	mov	fp, r3
10004980:	9b24      	ldr	r3, [sp, #144]	@ 0x90
10004982:	9309      	str	r3, [sp, #36]	@ 0x24
10004984:	9c25      	ldr	r4, [sp, #148]	@ 0x94
10004986:	9b28      	ldr	r3, [sp, #160]	@ 0xa0
10004988:	4698      	mov	r8, r3
1000498a:	464a      	mov	r2, r9
1000498c:	433a      	orrs	r2, r7
1000498e:	d102      	bne.n	10004996 <_ntoa_long_long+0x38>
10004990:	3210      	adds	r2, #16
10004992:	4393      	bics	r3, r2
10004994:	4698      	mov	r8, r3
10004996:	2280      	movs	r2, #128	@ 0x80
10004998:	00d2      	lsls	r2, r2, #3
1000499a:	4645      	mov	r5, r8
1000499c:	4015      	ands	r5, r2
1000499e:	4643      	mov	r3, r8
100049a0:	4213      	tst	r3, r2
100049a2:	d00a      	beq.n	100049ba <_ntoa_long_long+0x5c>
100049a4:	464a      	mov	r2, r9
100049a6:	433a      	orrs	r2, r7
100049a8:	d041      	beq.n	10004a2e <_ntoa_long_long+0xd0>
100049aa:	2500      	movs	r5, #0
100049ac:	002e      	movs	r6, r5
100049ae:	4653      	mov	r3, sl
100049b0:	930d      	str	r3, [sp, #52]	@ 0x34
100049b2:	464d      	mov	r5, r9
100049b4:	9b09      	ldr	r3, [sp, #36]	@ 0x24
100049b6:	469a      	mov	sl, r3
100049b8:	e01b      	b.n	100049f2 <_ntoa_long_long+0x94>
100049ba:	002e      	movs	r6, r5
100049bc:	4653      	mov	r3, sl
100049be:	930d      	str	r3, [sp, #52]	@ 0x34
100049c0:	464d      	mov	r5, r9
100049c2:	9b09      	ldr	r3, [sp, #36]	@ 0x24
100049c4:	469a      	mov	sl, r3
100049c6:	e014      	b.n	100049f2 <_ntoa_long_long+0x94>
100049c8:	3330      	adds	r3, #48	@ 0x30
100049ca:	b2da      	uxtb	r2, r3
100049cc:	1c73      	adds	r3, r6, #1
100049ce:	4699      	mov	r9, r3
100049d0:	ab0e      	add	r3, sp, #56	@ 0x38
100049d2:	559a      	strb	r2, [r3, r6]
100049d4:	4652      	mov	r2, sl
100049d6:	0023      	movs	r3, r4
100049d8:	0028      	movs	r0, r5
100049da:	0039      	movs	r1, r7
100049dc:	f000 ffde 	bl	1000599c <__wrap___aeabi_uldivmod>
100049e0:	42bc      	cmp	r4, r7
100049e2:	d826      	bhi.n	10004a32 <_ntoa_long_long+0xd4>
100049e4:	d019      	beq.n	10004a1a <_ntoa_long_long+0xbc>
100049e6:	464b      	mov	r3, r9
100049e8:	2b1f      	cmp	r3, #31
100049ea:	d81c      	bhi.n	10004a26 <_ntoa_long_long+0xc8>
100049ec:	464e      	mov	r6, r9
100049ee:	0005      	movs	r5, r0
100049f0:	000f      	movs	r7, r1
100049f2:	4652      	mov	r2, sl
100049f4:	0023      	movs	r3, r4
100049f6:	0028      	movs	r0, r5
100049f8:	0039      	movs	r1, r7
100049fa:	f000 ffcf 	bl	1000599c <__wrap___aeabi_uldivmod>
100049fe:	b2d3      	uxtb	r3, r2
10004a00:	2b09      	cmp	r3, #9
10004a02:	d9e1      	bls.n	100049c8 <_ntoa_long_long+0x6a>
10004a04:	4642      	mov	r2, r8
10004a06:	0692      	lsls	r2, r2, #26
10004a08:	d505      	bpl.n	10004a16 <_ntoa_long_long+0xb8>
10004a0a:	2241      	movs	r2, #65	@ 0x41
10004a0c:	18d2      	adds	r2, r2, r3
10004a0e:	b2d2      	uxtb	r2, r2
10004a10:	3a0a      	subs	r2, #10
10004a12:	b2d2      	uxtb	r2, r2
10004a14:	e7da      	b.n	100049cc <_ntoa_long_long+0x6e>
10004a16:	2261      	movs	r2, #97	@ 0x61
10004a18:	e7f8      	b.n	10004a0c <_ntoa_long_long+0xae>
10004a1a:	45aa      	cmp	sl, r5
10004a1c:	d9e3      	bls.n	100049e6 <_ntoa_long_long+0x88>
10004a1e:	464e      	mov	r6, r9
10004a20:	9b0d      	ldr	r3, [sp, #52]	@ 0x34
10004a22:	469a      	mov	sl, r3
10004a24:	e008      	b.n	10004a38 <_ntoa_long_long+0xda>
10004a26:	464e      	mov	r6, r9
10004a28:	9b0d      	ldr	r3, [sp, #52]	@ 0x34
10004a2a:	469a      	mov	sl, r3
10004a2c:	e004      	b.n	10004a38 <_ntoa_long_long+0xda>
10004a2e:	2600      	movs	r6, #0
10004a30:	e002      	b.n	10004a38 <_ntoa_long_long+0xda>
10004a32:	464e      	mov	r6, r9
10004a34:	9b0d      	ldr	r3, [sp, #52]	@ 0x34
10004a36:	469a      	mov	sl, r3
10004a38:	4643      	mov	r3, r8
10004a3a:	9306      	str	r3, [sp, #24]
10004a3c:	9b27      	ldr	r3, [sp, #156]	@ 0x9c
10004a3e:	9305      	str	r3, [sp, #20]
10004a40:	9b26      	ldr	r3, [sp, #152]	@ 0x98
10004a42:	9304      	str	r3, [sp, #16]
10004a44:	9b09      	ldr	r3, [sp, #36]	@ 0x24
10004a46:	9303      	str	r3, [sp, #12]
10004a48:	465b      	mov	r3, fp
10004a4a:	9302      	str	r3, [sp, #8]
10004a4c:	9601      	str	r6, [sp, #4]
10004a4e:	ab0e      	add	r3, sp, #56	@ 0x38
10004a50:	9300      	str	r3, [sp, #0]
10004a52:	4653      	mov	r3, sl
10004a54:	9a0c      	ldr	r2, [sp, #48]	@ 0x30
10004a56:	990b      	ldr	r1, [sp, #44]	@ 0x2c
10004a58:	980a      	ldr	r0, [sp, #40]	@ 0x28
10004a5a:	f7ff fe9a 	bl	10004792 <_ntoa_format>
10004a5e:	b017      	add	sp, #92	@ 0x5c
10004a60:	bcf0      	pop	{r4, r5, r6, r7}
10004a62:	46bb      	mov	fp, r7
10004a64:	46b2      	mov	sl, r6
10004a66:	46a9      	mov	r9, r5
10004a68:	46a0      	mov	r8, r4
10004a6a:	bdf0      	pop	{r4, r5, r6, r7, pc}

10004a6c <_etoa>:
10004a6c:	b5f0      	push	{r4, r5, r6, r7, lr}
10004a6e:	46de      	mov	lr, fp
10004a70:	4657      	mov	r7, sl
10004a72:	464e      	mov	r6, r9
10004a74:	4645      	mov	r5, r8
10004a76:	b5e0      	push	{r5, r6, r7, lr}
10004a78:	b091      	sub	sp, #68	@ 0x44
10004a7a:	4680      	mov	r8, r0
10004a7c:	4689      	mov	r9, r1
10004a7e:	920c      	str	r2, [sp, #48]	@ 0x30
10004a80:	469a      	mov	sl, r3
10004a82:	9c1a      	ldr	r4, [sp, #104]	@ 0x68
10004a84:	9d1b      	ldr	r5, [sp, #108]	@ 0x6c
10004a86:	0022      	movs	r2, r4
10004a88:	002b      	movs	r3, r5
10004a8a:	0020      	movs	r0, r4
10004a8c:	0029      	movs	r1, r5
10004a8e:	f001 fa18 	bl	10005ec2 <__wrap___aeabi_dcmpun>
10004a92:	2800      	cmp	r0, #0
10004a94:	d000      	beq.n	10004a98 <_etoa+0x2c>
10004a96:	e0ec      	b.n	10004c72 <_etoa+0x206>
10004a98:	2201      	movs	r2, #1
10004a9a:	4252      	negs	r2, r2
10004a9c:	4bd4      	ldr	r3, [pc, #848]	@ (10004df0 <_etoa+0x384>)
10004a9e:	0020      	movs	r0, r4
10004aa0:	0029      	movs	r1, r5
10004aa2:	f001 fa09 	bl	10005eb8 <__wrap___aeabi_dcmpgt>
10004aa6:	2800      	cmp	r0, #0
10004aa8:	d000      	beq.n	10004aac <_etoa+0x40>
10004aaa:	e0e2      	b.n	10004c72 <_etoa+0x206>
10004aac:	2201      	movs	r2, #1
10004aae:	4252      	negs	r2, r2
10004ab0:	4bd0      	ldr	r3, [pc, #832]	@ (10004df4 <_etoa+0x388>)
10004ab2:	0020      	movs	r0, r4
10004ab4:	0029      	movs	r1, r5
10004ab6:	f001 f9e9 	bl	10005e8c <__wrap___aeabi_dcmplt>
10004aba:	2800      	cmp	r0, #0
10004abc:	d000      	beq.n	10004ac0 <_etoa+0x54>
10004abe:	e0d8      	b.n	10004c72 <_etoa+0x206>
10004ac0:	2200      	movs	r2, #0
10004ac2:	2300      	movs	r3, #0
10004ac4:	0020      	movs	r0, r4
10004ac6:	0029      	movs	r1, r5
10004ac8:	f001 f9e0 	bl	10005e8c <__wrap___aeabi_dcmplt>
10004acc:	2800      	cmp	r0, #0
10004ace:	d000      	beq.n	10004ad2 <_etoa+0x66>
10004ad0:	e0e4      	b.n	10004c9c <_etoa+0x230>
10004ad2:	9406      	str	r4, [sp, #24]
10004ad4:	9507      	str	r5, [sp, #28]
10004ad6:	2380      	movs	r3, #128	@ 0x80
10004ad8:	00db      	lsls	r3, r3, #3
10004ada:	9a1e      	ldr	r2, [sp, #120]	@ 0x78
10004adc:	401a      	ands	r2, r3
10004ade:	920d      	str	r2, [sp, #52]	@ 0x34
10004ae0:	9a1e      	ldr	r2, [sp, #120]	@ 0x78
10004ae2:	421a      	tst	r2, r3
10004ae4:	d101      	bne.n	10004aea <_etoa+0x7e>
10004ae6:	2306      	movs	r3, #6
10004ae8:	931c      	str	r3, [sp, #112]	@ 0x70
10004aea:	9806      	ldr	r0, [sp, #24]
10004aec:	9907      	ldr	r1, [sp, #28]
10004aee:	0002      	movs	r2, r0
10004af0:	000b      	movs	r3, r1
10004af2:	9208      	str	r2, [sp, #32]
10004af4:	9309      	str	r3, [sp, #36]	@ 0x24
10004af6:	0003      	movs	r3, r0
10004af8:	000a      	movs	r2, r1
10004afa:	4302      	orrs	r2, r0
10004afc:	d100      	bne.n	10004b00 <_etoa+0x94>
10004afe:	e0d9      	b.n	10004cb4 <_etoa+0x248>
10004b00:	0d08      	lsrs	r0, r1, #20
10004b02:	0540      	lsls	r0, r0, #21
10004b04:	0d40      	lsrs	r0, r0, #21
10004b06:	4ebc      	ldr	r6, [pc, #752]	@ (10004df8 <_etoa+0x38c>)
10004b08:	46b4      	mov	ip, r6
10004b0a:	4460      	add	r0, ip
10004b0c:	030a      	lsls	r2, r1, #12
10004b0e:	0b12      	lsrs	r2, r2, #12
10004b10:	001e      	movs	r6, r3
10004b12:	4bba      	ldr	r3, [pc, #744]	@ (10004dfc <_etoa+0x390>)
10004b14:	4313      	orrs	r3, r2
10004b16:	001f      	movs	r7, r3
10004b18:	f001 f9e6 	bl	10005ee8 <__wrap___aeabi_i2d>
10004b1c:	4ab8      	ldr	r2, [pc, #736]	@ (10004e00 <_etoa+0x394>)
10004b1e:	4bb9      	ldr	r3, [pc, #740]	@ (10004e04 <_etoa+0x398>)
10004b20:	f001 f969 	bl	10005df6 <__wrap___aeabi_dmul>
10004b24:	4ab8      	ldr	r2, [pc, #736]	@ (10004e08 <_etoa+0x39c>)
10004b26:	4bb9      	ldr	r3, [pc, #740]	@ (10004e0c <_etoa+0x3a0>)
10004b28:	f001 f93e 	bl	10005da8 <__wrap___aeabi_dadd>
10004b2c:	9008      	str	r0, [sp, #32]
10004b2e:	9109      	str	r1, [sp, #36]	@ 0x24
10004b30:	2200      	movs	r2, #0
10004b32:	4bb7      	ldr	r3, [pc, #732]	@ (10004e10 <_etoa+0x3a4>)
10004b34:	0030      	movs	r0, r6
10004b36:	0039      	movs	r1, r7
10004b38:	f001 f92d 	bl	10005d96 <__wrap___aeabi_dsub>
10004b3c:	4ab5      	ldr	r2, [pc, #724]	@ (10004e14 <_etoa+0x3a8>)
10004b3e:	4bb6      	ldr	r3, [pc, #728]	@ (10004e18 <_etoa+0x3ac>)
10004b40:	f001 f959 	bl	10005df6 <__wrap___aeabi_dmul>
10004b44:	0002      	movs	r2, r0
10004b46:	000b      	movs	r3, r1
10004b48:	9808      	ldr	r0, [sp, #32]
10004b4a:	9909      	ldr	r1, [sp, #36]	@ 0x24
10004b4c:	f001 f92c 	bl	10005da8 <__wrap___aeabi_dadd>
10004b50:	f001 f9e2 	bl	10005f18 <__wrap___aeabi_d2iz>
10004b54:	4683      	mov	fp, r0
10004b56:	f001 f9c7 	bl	10005ee8 <__wrap___aeabi_i2d>
10004b5a:	0006      	movs	r6, r0
10004b5c:	000f      	movs	r7, r1
10004b5e:	4aaf      	ldr	r2, [pc, #700]	@ (10004e1c <_etoa+0x3b0>)
10004b60:	4baf      	ldr	r3, [pc, #700]	@ (10004e20 <_etoa+0x3b4>)
10004b62:	f001 f948 	bl	10005df6 <__wrap___aeabi_dmul>
10004b66:	2200      	movs	r2, #0
10004b68:	4bae      	ldr	r3, [pc, #696]	@ (10004e24 <_etoa+0x3b8>)
10004b6a:	f001 f91d 	bl	10005da8 <__wrap___aeabi_dadd>
10004b6e:	f001 f9d3 	bl	10005f18 <__wrap___aeabi_d2iz>
10004b72:	9008      	str	r0, [sp, #32]
10004b74:	4aac      	ldr	r2, [pc, #688]	@ (10004e28 <_etoa+0x3bc>)
10004b76:	4bad      	ldr	r3, [pc, #692]	@ (10004e2c <_etoa+0x3c0>)
10004b78:	0030      	movs	r0, r6
10004b7a:	0039      	movs	r1, r7
10004b7c:	f001 f93b 	bl	10005df6 <__wrap___aeabi_dmul>
10004b80:	0006      	movs	r6, r0
10004b82:	000f      	movs	r7, r1
10004b84:	9808      	ldr	r0, [sp, #32]
10004b86:	f001 f9af 	bl	10005ee8 <__wrap___aeabi_i2d>
10004b8a:	4aa9      	ldr	r2, [pc, #676]	@ (10004e30 <_etoa+0x3c4>)
10004b8c:	4ba9      	ldr	r3, [pc, #676]	@ (10004e34 <_etoa+0x3c8>)
10004b8e:	f001 f932 	bl	10005df6 <__wrap___aeabi_dmul>
10004b92:	0002      	movs	r2, r0
10004b94:	000b      	movs	r3, r1
10004b96:	0030      	movs	r0, r6
10004b98:	0039      	movs	r1, r7
10004b9a:	f001 f8fc 	bl	10005d96 <__wrap___aeabi_dsub>
10004b9e:	0006      	movs	r6, r0
10004ba0:	000f      	movs	r7, r1
10004ba2:	0002      	movs	r2, r0
10004ba4:	000b      	movs	r3, r1
10004ba6:	f001 f926 	bl	10005df6 <__wrap___aeabi_dmul>
10004baa:	900a      	str	r0, [sp, #40]	@ 0x28
10004bac:	910b      	str	r1, [sp, #44]	@ 0x2c
10004bae:	9b08      	ldr	r3, [sp, #32]
10004bb0:	4aa1      	ldr	r2, [pc, #644]	@ (10004e38 <_etoa+0x3cc>)
10004bb2:	4694      	mov	ip, r2
10004bb4:	4463      	add	r3, ip
10004bb6:	2100      	movs	r1, #0
10004bb8:	2200      	movs	r2, #0
10004bba:	9108      	str	r1, [sp, #32]
10004bbc:	9209      	str	r2, [sp, #36]	@ 0x24
10004bbe:	051b      	lsls	r3, r3, #20
10004bc0:	9309      	str	r3, [sp, #36]	@ 0x24
10004bc2:	2300      	movs	r3, #0
10004bc4:	9308      	str	r3, [sp, #32]
10004bc6:	0032      	movs	r2, r6
10004bc8:	003b      	movs	r3, r7
10004bca:	0030      	movs	r0, r6
10004bcc:	0039      	movs	r1, r7
10004bce:	f001 f8eb 	bl	10005da8 <__wrap___aeabi_dadd>
10004bd2:	900e      	str	r0, [sp, #56]	@ 0x38
10004bd4:	910f      	str	r1, [sp, #60]	@ 0x3c
10004bd6:	0032      	movs	r2, r6
10004bd8:	003b      	movs	r3, r7
10004bda:	2000      	movs	r0, #0
10004bdc:	2180      	movs	r1, #128	@ 0x80
10004bde:	05c9      	lsls	r1, r1, #23
10004be0:	f001 f8d9 	bl	10005d96 <__wrap___aeabi_dsub>
10004be4:	0006      	movs	r6, r0
10004be6:	000f      	movs	r7, r1
10004be8:	2200      	movs	r2, #0
10004bea:	4b94      	ldr	r3, [pc, #592]	@ (10004e3c <_etoa+0x3d0>)
10004bec:	980a      	ldr	r0, [sp, #40]	@ 0x28
10004bee:	990b      	ldr	r1, [sp, #44]	@ 0x2c
10004bf0:	f001 f8e3 	bl	10005dba <__wrap___aeabi_ddiv>
10004bf4:	2200      	movs	r2, #0
10004bf6:	4b92      	ldr	r3, [pc, #584]	@ (10004e40 <_etoa+0x3d4>)
10004bf8:	f001 f8d6 	bl	10005da8 <__wrap___aeabi_dadd>
10004bfc:	0002      	movs	r2, r0
10004bfe:	000b      	movs	r3, r1
10004c00:	980a      	ldr	r0, [sp, #40]	@ 0x28
10004c02:	990b      	ldr	r1, [sp, #44]	@ 0x2c
10004c04:	f001 f8d9 	bl	10005dba <__wrap___aeabi_ddiv>
10004c08:	2200      	movs	r2, #0
10004c0a:	4b8e      	ldr	r3, [pc, #568]	@ (10004e44 <_etoa+0x3d8>)
10004c0c:	f001 f8cc 	bl	10005da8 <__wrap___aeabi_dadd>
10004c10:	0002      	movs	r2, r0
10004c12:	000b      	movs	r3, r1
10004c14:	980a      	ldr	r0, [sp, #40]	@ 0x28
10004c16:	990b      	ldr	r1, [sp, #44]	@ 0x2c
10004c18:	f001 f8cf 	bl	10005dba <__wrap___aeabi_ddiv>
10004c1c:	0002      	movs	r2, r0
10004c1e:	000b      	movs	r3, r1
10004c20:	0030      	movs	r0, r6
10004c22:	0039      	movs	r1, r7
10004c24:	f001 f8c0 	bl	10005da8 <__wrap___aeabi_dadd>
10004c28:	0002      	movs	r2, r0
10004c2a:	000b      	movs	r3, r1
10004c2c:	980e      	ldr	r0, [sp, #56]	@ 0x38
10004c2e:	990f      	ldr	r1, [sp, #60]	@ 0x3c
10004c30:	f001 f8c3 	bl	10005dba <__wrap___aeabi_ddiv>
10004c34:	2200      	movs	r2, #0
10004c36:	4b71      	ldr	r3, [pc, #452]	@ (10004dfc <_etoa+0x390>)
10004c38:	f001 f8b6 	bl	10005da8 <__wrap___aeabi_dadd>
10004c3c:	9a08      	ldr	r2, [sp, #32]
10004c3e:	9b09      	ldr	r3, [sp, #36]	@ 0x24
10004c40:	f001 f8d9 	bl	10005df6 <__wrap___aeabi_dmul>
10004c44:	0006      	movs	r6, r0
10004c46:	000f      	movs	r7, r1
10004c48:	9608      	str	r6, [sp, #32]
10004c4a:	9709      	str	r7, [sp, #36]	@ 0x24
10004c4c:	9a06      	ldr	r2, [sp, #24]
10004c4e:	9b07      	ldr	r3, [sp, #28]
10004c50:	f001 f932 	bl	10005eb8 <__wrap___aeabi_dcmpgt>
10004c54:	2800      	cmp	r0, #0
10004c56:	d02f      	beq.n	10004cb8 <_etoa+0x24c>
10004c58:	2301      	movs	r3, #1
10004c5a:	425b      	negs	r3, r3
10004c5c:	469c      	mov	ip, r3
10004c5e:	44e3      	add	fp, ip
10004c60:	2200      	movs	r2, #0
10004c62:	4b77      	ldr	r3, [pc, #476]	@ (10004e40 <_etoa+0x3d4>)
10004c64:	0030      	movs	r0, r6
10004c66:	0039      	movs	r1, r7
10004c68:	f001 f8a7 	bl	10005dba <__wrap___aeabi_ddiv>
10004c6c:	9008      	str	r0, [sp, #32]
10004c6e:	9109      	str	r1, [sp, #36]	@ 0x24
10004c70:	e022      	b.n	10004cb8 <_etoa+0x24c>
10004c72:	9b1e      	ldr	r3, [sp, #120]	@ 0x78
10004c74:	9304      	str	r3, [sp, #16]
10004c76:	9b1d      	ldr	r3, [sp, #116]	@ 0x74
10004c78:	9303      	str	r3, [sp, #12]
10004c7a:	9b1c      	ldr	r3, [sp, #112]	@ 0x70
10004c7c:	9302      	str	r3, [sp, #8]
10004c7e:	9400      	str	r4, [sp, #0]
10004c80:	9501      	str	r5, [sp, #4]
10004c82:	4653      	mov	r3, sl
10004c84:	9a0c      	ldr	r2, [sp, #48]	@ 0x30
10004c86:	4649      	mov	r1, r9
10004c88:	4640      	mov	r0, r8
10004c8a:	f000 f8ff 	bl	10004e8c <_ftoa>
10004c8e:	b011      	add	sp, #68	@ 0x44
10004c90:	bcf0      	pop	{r4, r5, r6, r7}
10004c92:	46bb      	mov	fp, r7
10004c94:	46b2      	mov	sl, r6
10004c96:	46a9      	mov	r9, r5
10004c98:	46a0      	mov	r8, r4
10004c9a:	bdf0      	pop	{r4, r5, r6, r7, pc}
10004c9c:	2100      	movs	r1, #0
10004c9e:	2200      	movs	r2, #0
10004ca0:	9106      	str	r1, [sp, #24]
10004ca2:	9207      	str	r2, [sp, #28]
10004ca4:	9406      	str	r4, [sp, #24]
10004ca6:	2380      	movs	r3, #128	@ 0x80
10004ca8:	061b      	lsls	r3, r3, #24
10004caa:	469c      	mov	ip, r3
10004cac:	44ac      	add	ip, r5
10004cae:	4663      	mov	r3, ip
10004cb0:	9307      	str	r3, [sp, #28]
10004cb2:	e710      	b.n	10004ad6 <_etoa+0x6a>
10004cb4:	2300      	movs	r3, #0
10004cb6:	469b      	mov	fp, r3
10004cb8:	465b      	mov	r3, fp
10004cba:	3363      	adds	r3, #99	@ 0x63
10004cbc:	2bc6      	cmp	r3, #198	@ 0xc6
10004cbe:	d820      	bhi.n	10004d02 <_etoa+0x296>
10004cc0:	2604      	movs	r6, #4
10004cc2:	9b1e      	ldr	r3, [sp, #120]	@ 0x78
10004cc4:	051b      	lsls	r3, r3, #20
10004cc6:	d528      	bpl.n	10004d1a <_etoa+0x2ae>
10004cc8:	9a08      	ldr	r2, [sp, #32]
10004cca:	9b09      	ldr	r3, [sp, #36]	@ 0x24
10004ccc:	0019      	movs	r1, r3
10004cce:	4311      	orrs	r1, r2
10004cd0:	d00f      	beq.n	10004cf2 <_etoa+0x286>
10004cd2:	4a5d      	ldr	r2, [pc, #372]	@ (10004e48 <_etoa+0x3dc>)
10004cd4:	4b5d      	ldr	r3, [pc, #372]	@ (10004e4c <_etoa+0x3e0>)
10004cd6:	9806      	ldr	r0, [sp, #24]
10004cd8:	9907      	ldr	r1, [sp, #28]
10004cda:	f001 f8e5 	bl	10005ea8 <__wrap___aeabi_dcmpge>
10004cde:	2800      	cmp	r0, #0
10004ce0:	d07a      	beq.n	10004dd8 <_etoa+0x36c>
10004ce2:	2200      	movs	r2, #0
10004ce4:	4b5a      	ldr	r3, [pc, #360]	@ (10004e50 <_etoa+0x3e4>)
10004ce6:	9806      	ldr	r0, [sp, #24]
10004ce8:	9907      	ldr	r1, [sp, #28]
10004cea:	f001 f8cf 	bl	10005e8c <__wrap___aeabi_dcmplt>
10004cee:	2800      	cmp	r0, #0
10004cf0:	d072      	beq.n	10004dd8 <_etoa+0x36c>
10004cf2:	9b1c      	ldr	r3, [sp, #112]	@ 0x70
10004cf4:	455b      	cmp	r3, fp
10004cf6:	dd06      	ble.n	10004d06 <_etoa+0x29a>
10004cf8:	465a      	mov	r2, fp
10004cfa:	1a9b      	subs	r3, r3, r2
10004cfc:	3b01      	subs	r3, #1
10004cfe:	931c      	str	r3, [sp, #112]	@ 0x70
10004d00:	e003      	b.n	10004d0a <_etoa+0x29e>
10004d02:	2605      	movs	r6, #5
10004d04:	e7dd      	b.n	10004cc2 <_etoa+0x256>
10004d06:	2300      	movs	r3, #0
10004d08:	931c      	str	r3, [sp, #112]	@ 0x70
10004d0a:	2380      	movs	r3, #128	@ 0x80
10004d0c:	00db      	lsls	r3, r3, #3
10004d0e:	9a1e      	ldr	r2, [sp, #120]	@ 0x78
10004d10:	431a      	orrs	r2, r3
10004d12:	921e      	str	r2, [sp, #120]	@ 0x78
10004d14:	2600      	movs	r6, #0
10004d16:	2300      	movs	r3, #0
10004d18:	469b      	mov	fp, r3
10004d1a:	9b1d      	ldr	r3, [sp, #116]	@ 0x74
10004d1c:	429e      	cmp	r6, r3
10004d1e:	d265      	bcs.n	10004dec <_etoa+0x380>
10004d20:	1b9f      	subs	r7, r3, r6
10004d22:	2302      	movs	r3, #2
10004d24:	9a1e      	ldr	r2, [sp, #120]	@ 0x78
10004d26:	401a      	ands	r2, r3
10004d28:	920a      	str	r2, [sp, #40]	@ 0x28
10004d2a:	9a1e      	ldr	r2, [sp, #120]	@ 0x78
10004d2c:	4213      	tst	r3, r2
10004d2e:	d002      	beq.n	10004d36 <_etoa+0x2ca>
10004d30:	2e00      	cmp	r6, #0
10004d32:	d000      	beq.n	10004d36 <_etoa+0x2ca>
10004d34:	2700      	movs	r7, #0
10004d36:	465b      	mov	r3, fp
10004d38:	2b00      	cmp	r3, #0
10004d3a:	d007      	beq.n	10004d4c <_etoa+0x2e0>
10004d3c:	9a08      	ldr	r2, [sp, #32]
10004d3e:	9b09      	ldr	r3, [sp, #36]	@ 0x24
10004d40:	9806      	ldr	r0, [sp, #24]
10004d42:	9907      	ldr	r1, [sp, #28]
10004d44:	f001 f839 	bl	10005dba <__wrap___aeabi_ddiv>
10004d48:	9006      	str	r0, [sp, #24]
10004d4a:	9107      	str	r1, [sp, #28]
10004d4c:	2200      	movs	r2, #0
10004d4e:	2300      	movs	r3, #0
10004d50:	0020      	movs	r0, r4
10004d52:	0029      	movs	r1, r5
10004d54:	f001 f89a 	bl	10005e8c <__wrap___aeabi_dcmplt>
10004d58:	2800      	cmp	r0, #0
10004d5a:	d000      	beq.n	10004d5e <_etoa+0x2f2>
10004d5c:	e07c      	b.n	10004e58 <_etoa+0x3ec>
10004d5e:	4b3d      	ldr	r3, [pc, #244]	@ (10004e54 <_etoa+0x3e8>)
10004d60:	9a1e      	ldr	r2, [sp, #120]	@ 0x78
10004d62:	4013      	ands	r3, r2
10004d64:	9304      	str	r3, [sp, #16]
10004d66:	9703      	str	r7, [sp, #12]
10004d68:	9b1c      	ldr	r3, [sp, #112]	@ 0x70
10004d6a:	9302      	str	r3, [sp, #8]
10004d6c:	9b06      	ldr	r3, [sp, #24]
10004d6e:	9c07      	ldr	r4, [sp, #28]
10004d70:	9300      	str	r3, [sp, #0]
10004d72:	9401      	str	r4, [sp, #4]
10004d74:	4653      	mov	r3, sl
10004d76:	9a0c      	ldr	r2, [sp, #48]	@ 0x30
10004d78:	4649      	mov	r1, r9
10004d7a:	4640      	mov	r0, r8
10004d7c:	f000 f886 	bl	10004e8c <_ftoa>
10004d80:	2e00      	cmp	r6, #0
10004d82:	d100      	bne.n	10004d86 <_etoa+0x31a>
10004d84:	e783      	b.n	10004c8e <_etoa+0x222>
10004d86:	9b1e      	ldr	r3, [sp, #120]	@ 0x78
10004d88:	069b      	lsls	r3, r3, #26
10004d8a:	d571      	bpl.n	10004e70 <_etoa+0x404>
10004d8c:	2545      	movs	r5, #69	@ 0x45
10004d8e:	1c44      	adds	r4, r0, #1
10004d90:	4653      	mov	r3, sl
10004d92:	0002      	movs	r2, r0
10004d94:	4649      	mov	r1, r9
10004d96:	0028      	movs	r0, r5
10004d98:	47c0      	blx	r8
10004d9a:	465a      	mov	r2, fp
10004d9c:	17d3      	asrs	r3, r2, #31
10004d9e:	18d2      	adds	r2, r2, r3
10004da0:	405a      	eors	r2, r3
10004da2:	2305      	movs	r3, #5
10004da4:	9305      	str	r3, [sp, #20]
10004da6:	3e01      	subs	r6, #1
10004da8:	9604      	str	r6, [sp, #16]
10004daa:	2300      	movs	r3, #0
10004dac:	9303      	str	r3, [sp, #12]
10004dae:	330a      	adds	r3, #10
10004db0:	9302      	str	r3, [sp, #8]
10004db2:	465b      	mov	r3, fp
10004db4:	0fdb      	lsrs	r3, r3, #31
10004db6:	9301      	str	r3, [sp, #4]
10004db8:	9200      	str	r2, [sp, #0]
10004dba:	4653      	mov	r3, sl
10004dbc:	0022      	movs	r2, r4
10004dbe:	4649      	mov	r1, r9
10004dc0:	4640      	mov	r0, r8
10004dc2:	f7ff fd6e 	bl	100048a2 <_ntoa_long>
10004dc6:	9b0a      	ldr	r3, [sp, #40]	@ 0x28
10004dc8:	2b00      	cmp	r3, #0
10004dca:	d100      	bne.n	10004dce <_etoa+0x362>
10004dcc:	e75f      	b.n	10004c8e <_etoa+0x222>
10004dce:	0002      	movs	r2, r0
10004dd0:	4647      	mov	r7, r8
10004dd2:	9e0c      	ldr	r6, [sp, #48]	@ 0x30
10004dd4:	9d1d      	ldr	r5, [sp, #116]	@ 0x74
10004dd6:	e053      	b.n	10004e80 <_etoa+0x414>
10004dd8:	9b1c      	ldr	r3, [sp, #112]	@ 0x70
10004dda:	2b00      	cmp	r3, #0
10004ddc:	d09d      	beq.n	10004d1a <_etoa+0x2ae>
10004dde:	9b0d      	ldr	r3, [sp, #52]	@ 0x34
10004de0:	2b00      	cmp	r3, #0
10004de2:	d09a      	beq.n	10004d1a <_etoa+0x2ae>
10004de4:	9b1c      	ldr	r3, [sp, #112]	@ 0x70
10004de6:	3b01      	subs	r3, #1
10004de8:	931c      	str	r3, [sp, #112]	@ 0x70
10004dea:	e796      	b.n	10004d1a <_etoa+0x2ae>
10004dec:	2700      	movs	r7, #0
10004dee:	e798      	b.n	10004d22 <_etoa+0x2b6>
10004df0:	7fefffff 	.word	0x7fefffff
10004df4:	ffefffff 	.word	0xffefffff
10004df8:	fffffc01 	.word	0xfffffc01
10004dfc:	3ff00000 	.word	0x3ff00000
10004e00:	509f79fb 	.word	0x509f79fb
10004e04:	3fd34413 	.word	0x3fd34413
10004e08:	8b60c8b3 	.word	0x8b60c8b3
10004e0c:	3fc68a28 	.word	0x3fc68a28
10004e10:	3ff80000 	.word	0x3ff80000
10004e14:	636f4361 	.word	0x636f4361
10004e18:	3fd287a7 	.word	0x3fd287a7
10004e1c:	0979a371 	.word	0x0979a371
10004e20:	400a934f 	.word	0x400a934f
10004e24:	3fe00000 	.word	0x3fe00000
10004e28:	bbb55516 	.word	0xbbb55516
10004e2c:	40026bb1 	.word	0x40026bb1
10004e30:	fefa39ef 	.word	0xfefa39ef
10004e34:	3fe62e42 	.word	0x3fe62e42
10004e38:	000003ff 	.word	0x000003ff
10004e3c:	402c0000 	.word	0x402c0000
10004e40:	40240000 	.word	0x40240000
10004e44:	40180000 	.word	0x40180000
10004e48:	eb1c432d 	.word	0xeb1c432d
10004e4c:	3f1a36e2 	.word	0x3f1a36e2
10004e50:	412e8480 	.word	0x412e8480
10004e54:	fffff7ff 	.word	0xfffff7ff
10004e58:	9c06      	ldr	r4, [sp, #24]
10004e5a:	9d07      	ldr	r5, [sp, #28]
10004e5c:	0022      	movs	r2, r4
10004e5e:	0029      	movs	r1, r5
10004e60:	2080      	movs	r0, #128	@ 0x80
10004e62:	0600      	lsls	r0, r0, #24
10004e64:	4684      	mov	ip, r0
10004e66:	4461      	add	r1, ip
10004e68:	000b      	movs	r3, r1
10004e6a:	9206      	str	r2, [sp, #24]
10004e6c:	9307      	str	r3, [sp, #28]
10004e6e:	e776      	b.n	10004d5e <_etoa+0x2f2>
10004e70:	2565      	movs	r5, #101	@ 0x65
10004e72:	e78c      	b.n	10004d8e <_etoa+0x322>
10004e74:	1c54      	adds	r4, r2, #1
10004e76:	4653      	mov	r3, sl
10004e78:	4649      	mov	r1, r9
10004e7a:	2020      	movs	r0, #32
10004e7c:	47b8      	blx	r7
10004e7e:	0022      	movs	r2, r4
10004e80:	1b93      	subs	r3, r2, r6
10004e82:	42ab      	cmp	r3, r5
10004e84:	d3f6      	bcc.n	10004e74 <_etoa+0x408>
10004e86:	0010      	movs	r0, r2
10004e88:	e701      	b.n	10004c8e <_etoa+0x222>
10004e8a:	46c0      	nop			@ (mov r8, r8)

10004e8c <_ftoa>:
10004e8c:	b5f0      	push	{r4, r5, r6, r7, lr}
10004e8e:	46de      	mov	lr, fp
10004e90:	4657      	mov	r7, sl
10004e92:	464e      	mov	r6, r9
10004e94:	4645      	mov	r5, r8
10004e96:	b5e0      	push	{r5, r6, r7, lr}
10004e98:	b095      	sub	sp, #84	@ 0x54
10004e9a:	9006      	str	r0, [sp, #24]
10004e9c:	9107      	str	r1, [sp, #28]
10004e9e:	4693      	mov	fp, r2
10004ea0:	4699      	mov	r9, r3
10004ea2:	9f20      	ldr	r7, [sp, #128]	@ 0x80
10004ea4:	9a1e      	ldr	r2, [sp, #120]	@ 0x78
10004ea6:	9b1f      	ldr	r3, [sp, #124]	@ 0x7c
10004ea8:	0010      	movs	r0, r2
10004eaa:	0019      	movs	r1, r3
10004eac:	f001 f809 	bl	10005ec2 <__wrap___aeabi_dcmpun>
10004eb0:	2800      	cmp	r0, #0
10004eb2:	d131      	bne.n	10004f18 <_ftoa+0x8c>
10004eb4:	2201      	movs	r2, #1
10004eb6:	4252      	negs	r2, r2
10004eb8:	4bbf      	ldr	r3, [pc, #764]	@ (100051b8 <_ftoa+0x32c>)
10004eba:	981e      	ldr	r0, [sp, #120]	@ 0x78
10004ebc:	991f      	ldr	r1, [sp, #124]	@ 0x7c
10004ebe:	f000 ffe5 	bl	10005e8c <__wrap___aeabi_dcmplt>
10004ec2:	2800      	cmp	r0, #0
10004ec4:	d137      	bne.n	10004f36 <_ftoa+0xaa>
10004ec6:	2201      	movs	r2, #1
10004ec8:	4252      	negs	r2, r2
10004eca:	4bbc      	ldr	r3, [pc, #752]	@ (100051bc <_ftoa+0x330>)
10004ecc:	981e      	ldr	r0, [sp, #120]	@ 0x78
10004ece:	991f      	ldr	r1, [sp, #124]	@ 0x7c
10004ed0:	f000 fff2 	bl	10005eb8 <__wrap___aeabi_dcmpgt>
10004ed4:	2800      	cmp	r0, #0
10004ed6:	d13d      	bne.n	10004f54 <_ftoa+0xc8>
10004ed8:	2200      	movs	r2, #0
10004eda:	4bb9      	ldr	r3, [pc, #740]	@ (100051c0 <_ftoa+0x334>)
10004edc:	981e      	ldr	r0, [sp, #120]	@ 0x78
10004ede:	991f      	ldr	r1, [sp, #124]	@ 0x7c
10004ee0:	f000 ffea 	bl	10005eb8 <__wrap___aeabi_dcmpgt>
10004ee4:	2800      	cmp	r0, #0
10004ee6:	d150      	bne.n	10004f8a <_ftoa+0xfe>
10004ee8:	2200      	movs	r2, #0
10004eea:	4bb6      	ldr	r3, [pc, #728]	@ (100051c4 <_ftoa+0x338>)
10004eec:	981e      	ldr	r0, [sp, #120]	@ 0x78
10004eee:	991f      	ldr	r1, [sp, #124]	@ 0x7c
10004ef0:	f000 ffcc 	bl	10005e8c <__wrap___aeabi_dcmplt>
10004ef4:	2800      	cmp	r0, #0
10004ef6:	d148      	bne.n	10004f8a <_ftoa+0xfe>
10004ef8:	2200      	movs	r2, #0
10004efa:	2300      	movs	r3, #0
10004efc:	981e      	ldr	r0, [sp, #120]	@ 0x78
10004efe:	991f      	ldr	r1, [sp, #124]	@ 0x7c
10004f00:	f000 ffc4 	bl	10005e8c <__wrap___aeabi_dcmplt>
10004f04:	2800      	cmp	r0, #0
10004f06:	d150      	bne.n	10004faa <_ftoa+0x11e>
10004f08:	2300      	movs	r3, #0
10004f0a:	4698      	mov	r8, r3
10004f0c:	9b22      	ldr	r3, [sp, #136]	@ 0x88
10004f0e:	055b      	lsls	r3, r3, #21
10004f10:	d400      	bmi.n	10004f14 <_ftoa+0x88>
10004f12:	e0b6      	b.n	10005082 <_ftoa+0x1f6>
10004f14:	2400      	movs	r4, #0
10004f16:	e058      	b.n	10004fca <_ftoa+0x13e>
10004f18:	9b22      	ldr	r3, [sp, #136]	@ 0x88
10004f1a:	9303      	str	r3, [sp, #12]
10004f1c:	9b21      	ldr	r3, [sp, #132]	@ 0x84
10004f1e:	9302      	str	r3, [sp, #8]
10004f20:	2303      	movs	r3, #3
10004f22:	9301      	str	r3, [sp, #4]
10004f24:	4ba8      	ldr	r3, [pc, #672]	@ (100051c8 <_ftoa+0x33c>)
10004f26:	9300      	str	r3, [sp, #0]
10004f28:	464b      	mov	r3, r9
10004f2a:	465a      	mov	r2, fp
10004f2c:	9907      	ldr	r1, [sp, #28]
10004f2e:	9806      	ldr	r0, [sp, #24]
10004f30:	f7ff fbd8 	bl	100046e4 <_out_rev>
10004f34:	e10e      	b.n	10005154 <_ftoa+0x2c8>
10004f36:	9b22      	ldr	r3, [sp, #136]	@ 0x88
10004f38:	9303      	str	r3, [sp, #12]
10004f3a:	9b21      	ldr	r3, [sp, #132]	@ 0x84
10004f3c:	9302      	str	r3, [sp, #8]
10004f3e:	2304      	movs	r3, #4
10004f40:	9301      	str	r3, [sp, #4]
10004f42:	4ba2      	ldr	r3, [pc, #648]	@ (100051cc <_ftoa+0x340>)
10004f44:	9300      	str	r3, [sp, #0]
10004f46:	464b      	mov	r3, r9
10004f48:	465a      	mov	r2, fp
10004f4a:	9907      	ldr	r1, [sp, #28]
10004f4c:	9806      	ldr	r0, [sp, #24]
10004f4e:	f7ff fbc9 	bl	100046e4 <_out_rev>
10004f52:	e0ff      	b.n	10005154 <_ftoa+0x2c8>
10004f54:	2304      	movs	r3, #4
10004f56:	9a22      	ldr	r2, [sp, #136]	@ 0x88
10004f58:	401a      	ands	r2, r3
10004f5a:	9922      	ldr	r1, [sp, #136]	@ 0x88
10004f5c:	420b      	tst	r3, r1
10004f5e:	d010      	beq.n	10004f82 <_ftoa+0xf6>
10004f60:	4b9b      	ldr	r3, [pc, #620]	@ (100051d0 <_ftoa+0x344>)
10004f62:	2a00      	cmp	r2, #0
10004f64:	d00f      	beq.n	10004f86 <_ftoa+0xfa>
10004f66:	2204      	movs	r2, #4
10004f68:	9922      	ldr	r1, [sp, #136]	@ 0x88
10004f6a:	9103      	str	r1, [sp, #12]
10004f6c:	9921      	ldr	r1, [sp, #132]	@ 0x84
10004f6e:	9102      	str	r1, [sp, #8]
10004f70:	9201      	str	r2, [sp, #4]
10004f72:	9300      	str	r3, [sp, #0]
10004f74:	464b      	mov	r3, r9
10004f76:	465a      	mov	r2, fp
10004f78:	9907      	ldr	r1, [sp, #28]
10004f7a:	9806      	ldr	r0, [sp, #24]
10004f7c:	f7ff fbb2 	bl	100046e4 <_out_rev>
10004f80:	e0e8      	b.n	10005154 <_ftoa+0x2c8>
10004f82:	4b94      	ldr	r3, [pc, #592]	@ (100051d4 <_ftoa+0x348>)
10004f84:	e7ed      	b.n	10004f62 <_ftoa+0xd6>
10004f86:	2203      	movs	r2, #3
10004f88:	e7ee      	b.n	10004f68 <_ftoa+0xdc>
10004f8a:	9b22      	ldr	r3, [sp, #136]	@ 0x88
10004f8c:	9304      	str	r3, [sp, #16]
10004f8e:	9b21      	ldr	r3, [sp, #132]	@ 0x84
10004f90:	9303      	str	r3, [sp, #12]
10004f92:	9702      	str	r7, [sp, #8]
10004f94:	9b1e      	ldr	r3, [sp, #120]	@ 0x78
10004f96:	9c1f      	ldr	r4, [sp, #124]	@ 0x7c
10004f98:	9300      	str	r3, [sp, #0]
10004f9a:	9401      	str	r4, [sp, #4]
10004f9c:	464b      	mov	r3, r9
10004f9e:	465a      	mov	r2, fp
10004fa0:	9907      	ldr	r1, [sp, #28]
10004fa2:	9806      	ldr	r0, [sp, #24]
10004fa4:	f7ff fd62 	bl	10004a6c <_etoa>
10004fa8:	e0d4      	b.n	10005154 <_ftoa+0x2c8>
10004faa:	9a1e      	ldr	r2, [sp, #120]	@ 0x78
10004fac:	9b1f      	ldr	r3, [sp, #124]	@ 0x7c
10004fae:	2000      	movs	r0, #0
10004fb0:	2100      	movs	r1, #0
10004fb2:	f000 fef0 	bl	10005d96 <__wrap___aeabi_dsub>
10004fb6:	901e      	str	r0, [sp, #120]	@ 0x78
10004fb8:	911f      	str	r1, [sp, #124]	@ 0x7c
10004fba:	2301      	movs	r3, #1
10004fbc:	4698      	mov	r8, r3
10004fbe:	e7a5      	b.n	10004f0c <_ftoa+0x80>
10004fc0:	ab0c      	add	r3, sp, #48	@ 0x30
10004fc2:	2230      	movs	r2, #48	@ 0x30
10004fc4:	551a      	strb	r2, [r3, r4]
10004fc6:	3f01      	subs	r7, #1
10004fc8:	3401      	adds	r4, #1
10004fca:	2c1f      	cmp	r4, #31
10004fcc:	d801      	bhi.n	10004fd2 <_ftoa+0x146>
10004fce:	2f09      	cmp	r7, #9
10004fd0:	d8f6      	bhi.n	10004fc0 <_ftoa+0x134>
10004fd2:	981e      	ldr	r0, [sp, #120]	@ 0x78
10004fd4:	991f      	ldr	r1, [sp, #124]	@ 0x7c
10004fd6:	f000 ff9f 	bl	10005f18 <__wrap___aeabi_d2iz>
10004fda:	0005      	movs	r5, r0
10004fdc:	f000 ff84 	bl	10005ee8 <__wrap___aeabi_i2d>
10004fe0:	0002      	movs	r2, r0
10004fe2:	000b      	movs	r3, r1
10004fe4:	981e      	ldr	r0, [sp, #120]	@ 0x78
10004fe6:	991f      	ldr	r1, [sp, #124]	@ 0x7c
10004fe8:	f000 fed5 	bl	10005d96 <__wrap___aeabi_dsub>
10004fec:	4b7a      	ldr	r3, [pc, #488]	@ (100051d8 <_ftoa+0x34c>)
10004fee:	00fa      	lsls	r2, r7, #3
10004ff0:	189b      	adds	r3, r3, r2
10004ff2:	681a      	ldr	r2, [r3, #0]
10004ff4:	685b      	ldr	r3, [r3, #4]
10004ff6:	920a      	str	r2, [sp, #40]	@ 0x28
10004ff8:	930b      	str	r3, [sp, #44]	@ 0x2c
10004ffa:	f000 fefc 	bl	10005df6 <__wrap___aeabi_dmul>
10004ffe:	9008      	str	r0, [sp, #32]
10005000:	9109      	str	r1, [sp, #36]	@ 0x24
10005002:	f000 ffad 	bl	10005f60 <__wrap___aeabi_d2uiz>
10005006:	0006      	movs	r6, r0
10005008:	f000 ff6a 	bl	10005ee0 <__wrap___aeabi_ui2d>
1000500c:	0002      	movs	r2, r0
1000500e:	000b      	movs	r3, r1
10005010:	9808      	ldr	r0, [sp, #32]
10005012:	9909      	ldr	r1, [sp, #36]	@ 0x24
10005014:	f000 febf 	bl	10005d96 <__wrap___aeabi_dsub>
10005018:	9008      	str	r0, [sp, #32]
1000501a:	9109      	str	r1, [sp, #36]	@ 0x24
1000501c:	2200      	movs	r2, #0
1000501e:	4b6f      	ldr	r3, [pc, #444]	@ (100051dc <_ftoa+0x350>)
10005020:	f000 ff4a 	bl	10005eb8 <__wrap___aeabi_dcmpgt>
10005024:	2800      	cmp	r0, #0
10005026:	d02e      	beq.n	10005086 <_ftoa+0x1fa>
10005028:	3601      	adds	r6, #1
1000502a:	0030      	movs	r0, r6
1000502c:	f000 ff58 	bl	10005ee0 <__wrap___aeabi_ui2d>
10005030:	0002      	movs	r2, r0
10005032:	000b      	movs	r3, r1
10005034:	980a      	ldr	r0, [sp, #40]	@ 0x28
10005036:	990b      	ldr	r1, [sp, #44]	@ 0x2c
10005038:	f000 ff2e 	bl	10005e98 <__wrap___aeabi_dcmple>
1000503c:	2800      	cmp	r0, #0
1000503e:	d001      	beq.n	10005044 <_ftoa+0x1b8>
10005040:	3501      	adds	r5, #1
10005042:	2600      	movs	r6, #0
10005044:	2f00      	cmp	r7, #0
10005046:	d12c      	bne.n	100050a2 <_ftoa+0x216>
10005048:	0028      	movs	r0, r5
1000504a:	f000 ff4d 	bl	10005ee8 <__wrap___aeabi_i2d>
1000504e:	0002      	movs	r2, r0
10005050:	000b      	movs	r3, r1
10005052:	981e      	ldr	r0, [sp, #120]	@ 0x78
10005054:	991f      	ldr	r1, [sp, #124]	@ 0x7c
10005056:	f000 fe9e 	bl	10005d96 <__wrap___aeabi_dsub>
1000505a:	0006      	movs	r6, r0
1000505c:	000f      	movs	r7, r1
1000505e:	2200      	movs	r2, #0
10005060:	4b5e      	ldr	r3, [pc, #376]	@ (100051dc <_ftoa+0x350>)
10005062:	f000 ff13 	bl	10005e8c <__wrap___aeabi_dcmplt>
10005066:	2800      	cmp	r0, #0
10005068:	d146      	bne.n	100050f8 <_ftoa+0x26c>
1000506a:	2200      	movs	r2, #0
1000506c:	4b5b      	ldr	r3, [pc, #364]	@ (100051dc <_ftoa+0x350>)
1000506e:	0030      	movs	r0, r6
10005070:	0039      	movs	r1, r7
10005072:	f000 ff21 	bl	10005eb8 <__wrap___aeabi_dcmpgt>
10005076:	2800      	cmp	r0, #0
10005078:	d13e      	bne.n	100050f8 <_ftoa+0x26c>
1000507a:	07eb      	lsls	r3, r5, #31
1000507c:	d53c      	bpl.n	100050f8 <_ftoa+0x26c>
1000507e:	3501      	adds	r5, #1
10005080:	e03a      	b.n	100050f8 <_ftoa+0x26c>
10005082:	2706      	movs	r7, #6
10005084:	e746      	b.n	10004f14 <_ftoa+0x88>
10005086:	2200      	movs	r2, #0
10005088:	4b54      	ldr	r3, [pc, #336]	@ (100051dc <_ftoa+0x350>)
1000508a:	9808      	ldr	r0, [sp, #32]
1000508c:	9909      	ldr	r1, [sp, #36]	@ 0x24
1000508e:	f000 fefd 	bl	10005e8c <__wrap___aeabi_dcmplt>
10005092:	2800      	cmp	r0, #0
10005094:	d1d6      	bne.n	10005044 <_ftoa+0x1b8>
10005096:	2e00      	cmp	r6, #0
10005098:	d001      	beq.n	1000509e <_ftoa+0x212>
1000509a:	07f3      	lsls	r3, r6, #31
1000509c:	d5d2      	bpl.n	10005044 <_ftoa+0x1b8>
1000509e:	3601      	adds	r6, #1
100050a0:	e7d0      	b.n	10005044 <_ftoa+0x1b8>
100050a2:	46aa      	mov	sl, r5
100050a4:	2c1f      	cmp	r4, #31
100050a6:	d811      	bhi.n	100050cc <_ftoa+0x240>
100050a8:	3f01      	subs	r7, #1
100050aa:	210a      	movs	r1, #10
100050ac:	0030      	movs	r0, r6
100050ae:	f000 fc37 	bl	10005920 <__wrap___aeabi_uidiv>
100050b2:	1c65      	adds	r5, r4, #1
100050b4:	3130      	adds	r1, #48	@ 0x30
100050b6:	ab0c      	add	r3, sp, #48	@ 0x30
100050b8:	5519      	strb	r1, [r3, r4]
100050ba:	210a      	movs	r1, #10
100050bc:	0030      	movs	r0, r6
100050be:	f000 fc2f 	bl	10005920 <__wrap___aeabi_uidiv>
100050c2:	2e09      	cmp	r6, #9
100050c4:	d90e      	bls.n	100050e4 <_ftoa+0x258>
100050c6:	0006      	movs	r6, r0
100050c8:	002c      	movs	r4, r5
100050ca:	e7eb      	b.n	100050a4 <_ftoa+0x218>
100050cc:	4655      	mov	r5, sl
100050ce:	2c1f      	cmp	r4, #31
100050d0:	d80c      	bhi.n	100050ec <_ftoa+0x260>
100050d2:	1e7b      	subs	r3, r7, #1
100050d4:	2f00      	cmp	r7, #0
100050d6:	d009      	beq.n	100050ec <_ftoa+0x260>
100050d8:	aa0c      	add	r2, sp, #48	@ 0x30
100050da:	2130      	movs	r1, #48	@ 0x30
100050dc:	5511      	strb	r1, [r2, r4]
100050de:	001f      	movs	r7, r3
100050e0:	3401      	adds	r4, #1
100050e2:	e7f4      	b.n	100050ce <_ftoa+0x242>
100050e4:	002b      	movs	r3, r5
100050e6:	4655      	mov	r5, sl
100050e8:	001c      	movs	r4, r3
100050ea:	e7f0      	b.n	100050ce <_ftoa+0x242>
100050ec:	2c1f      	cmp	r4, #31
100050ee:	d803      	bhi.n	100050f8 <_ftoa+0x26c>
100050f0:	ab0c      	add	r3, sp, #48	@ 0x30
100050f2:	222e      	movs	r2, #46	@ 0x2e
100050f4:	551a      	strb	r2, [r3, r4]
100050f6:	3401      	adds	r4, #1
100050f8:	2c1f      	cmp	r4, #31
100050fa:	d810      	bhi.n	1000511e <_ftoa+0x292>
100050fc:	210a      	movs	r1, #10
100050fe:	0028      	movs	r0, r5
10005100:	f000 fbe6 	bl	100058d0 <__wrap___aeabi_idiv>
10005104:	1c66      	adds	r6, r4, #1
10005106:	3130      	adds	r1, #48	@ 0x30
10005108:	ab0c      	add	r3, sp, #48	@ 0x30
1000510a:	5519      	strb	r1, [r3, r4]
1000510c:	210a      	movs	r1, #10
1000510e:	0028      	movs	r0, r5
10005110:	f000 fbde 	bl	100058d0 <__wrap___aeabi_idiv>
10005114:	1e05      	subs	r5, r0, #0
10005116:	d001      	beq.n	1000511c <_ftoa+0x290>
10005118:	0034      	movs	r4, r6
1000511a:	e7ed      	b.n	100050f8 <_ftoa+0x26c>
1000511c:	0034      	movs	r4, r6
1000511e:	2303      	movs	r3, #3
10005120:	9a22      	ldr	r2, [sp, #136]	@ 0x88
10005122:	4013      	ands	r3, r2
10005124:	2b01      	cmp	r3, #1
10005126:	d01c      	beq.n	10005162 <_ftoa+0x2d6>
10005128:	2c1f      	cmp	r4, #31
1000512a:	d806      	bhi.n	1000513a <_ftoa+0x2ae>
1000512c:	4643      	mov	r3, r8
1000512e:	2b00      	cmp	r3, #0
10005130:	d032      	beq.n	10005198 <_ftoa+0x30c>
10005132:	ab0c      	add	r3, sp, #48	@ 0x30
10005134:	222d      	movs	r2, #45	@ 0x2d
10005136:	551a      	strb	r2, [r3, r4]
10005138:	3401      	adds	r4, #1
1000513a:	9b22      	ldr	r3, [sp, #136]	@ 0x88
1000513c:	9303      	str	r3, [sp, #12]
1000513e:	9b21      	ldr	r3, [sp, #132]	@ 0x84
10005140:	9302      	str	r3, [sp, #8]
10005142:	9401      	str	r4, [sp, #4]
10005144:	ab0c      	add	r3, sp, #48	@ 0x30
10005146:	9300      	str	r3, [sp, #0]
10005148:	464b      	mov	r3, r9
1000514a:	465a      	mov	r2, fp
1000514c:	9907      	ldr	r1, [sp, #28]
1000514e:	9806      	ldr	r0, [sp, #24]
10005150:	f7ff fac8 	bl	100046e4 <_out_rev>
10005154:	b015      	add	sp, #84	@ 0x54
10005156:	bcf0      	pop	{r4, r5, r6, r7}
10005158:	46bb      	mov	fp, r7
1000515a:	46b2      	mov	sl, r6
1000515c:	46a9      	mov	r9, r5
1000515e:	46a0      	mov	r8, r4
10005160:	bdf0      	pop	{r4, r5, r6, r7, pc}
10005162:	9b21      	ldr	r3, [sp, #132]	@ 0x84
10005164:	2b00      	cmp	r3, #0
10005166:	d013      	beq.n	10005190 <_ftoa+0x304>
10005168:	4643      	mov	r3, r8
1000516a:	2b00      	cmp	r3, #0
1000516c:	d102      	bne.n	10005174 <_ftoa+0x2e8>
1000516e:	330c      	adds	r3, #12
10005170:	4213      	tst	r3, r2
10005172:	d00f      	beq.n	10005194 <_ftoa+0x308>
10005174:	9b21      	ldr	r3, [sp, #132]	@ 0x84
10005176:	3b01      	subs	r3, #1
10005178:	9321      	str	r3, [sp, #132]	@ 0x84
1000517a:	0019      	movs	r1, r3
1000517c:	e003      	b.n	10005186 <_ftoa+0x2fa>
1000517e:	ab0c      	add	r3, sp, #48	@ 0x30
10005180:	2230      	movs	r2, #48	@ 0x30
10005182:	551a      	strb	r2, [r3, r4]
10005184:	3401      	adds	r4, #1
10005186:	428c      	cmp	r4, r1
10005188:	d2ce      	bcs.n	10005128 <_ftoa+0x29c>
1000518a:	2c1f      	cmp	r4, #31
1000518c:	d9f7      	bls.n	1000517e <_ftoa+0x2f2>
1000518e:	e7cb      	b.n	10005128 <_ftoa+0x29c>
10005190:	9921      	ldr	r1, [sp, #132]	@ 0x84
10005192:	e7f8      	b.n	10005186 <_ftoa+0x2fa>
10005194:	9921      	ldr	r1, [sp, #132]	@ 0x84
10005196:	e7f6      	b.n	10005186 <_ftoa+0x2fa>
10005198:	9b22      	ldr	r3, [sp, #136]	@ 0x88
1000519a:	075b      	lsls	r3, r3, #29
1000519c:	d504      	bpl.n	100051a8 <_ftoa+0x31c>
1000519e:	ab0c      	add	r3, sp, #48	@ 0x30
100051a0:	222b      	movs	r2, #43	@ 0x2b
100051a2:	551a      	strb	r2, [r3, r4]
100051a4:	3401      	adds	r4, #1
100051a6:	e7c8      	b.n	1000513a <_ftoa+0x2ae>
100051a8:	9b22      	ldr	r3, [sp, #136]	@ 0x88
100051aa:	071b      	lsls	r3, r3, #28
100051ac:	d5c5      	bpl.n	1000513a <_ftoa+0x2ae>
100051ae:	ab0c      	add	r3, sp, #48	@ 0x30
100051b0:	2220      	movs	r2, #32
100051b2:	551a      	strb	r2, [r3, r4]
100051b4:	3401      	adds	r4, #1
100051b6:	e7c0      	b.n	1000513a <_ftoa+0x2ae>
100051b8:	ffefffff 	.word	0xffefffff
100051bc:	7fefffff 	.word	0x7fefffff
100051c0:	41cdcd65 	.word	0x41cdcd65
100051c4:	c1cdcd65 	.word	0xc1cdcd65
100051c8:	1000bd54 	.word	0x1000bd54
100051cc:	1000bd58 	.word	0x1000bd58
100051d0:	1000bd48 	.word	0x1000bd48
100051d4:	1000bd50 	.word	0x1000bd50
100051d8:	1000c820 	.word	0x1000c820
100051dc:	3fe00000 	.word	0x3fe00000

100051e0 <_vsnprintf>:
100051e0:	b5f0      	push	{r4, r5, r6, r7, lr}
100051e2:	46de      	mov	lr, fp
100051e4:	4657      	mov	r7, sl
100051e6:	464e      	mov	r6, r9
100051e8:	4645      	mov	r5, r8
100051ea:	b5e0      	push	{r5, r6, r7, lr}
100051ec:	b093      	sub	sp, #76	@ 0x4c
100051ee:	4682      	mov	sl, r0
100051f0:	4688      	mov	r8, r1
100051f2:	4693      	mov	fp, r2
100051f4:	9311      	str	r3, [sp, #68]	@ 0x44
100051f6:	2900      	cmp	r1, #0
100051f8:	d100      	bne.n	100051fc <_vsnprintf+0x1c>
100051fa:	e30d      	b.n	10005818 <_vsnprintf+0x638>
100051fc:	2500      	movs	r5, #0
100051fe:	4656      	mov	r6, sl
10005200:	9b11      	ldr	r3, [sp, #68]	@ 0x44
10005202:	7818      	ldrb	r0, [r3, #0]
10005204:	2800      	cmp	r0, #0
10005206:	d100      	bne.n	1000520a <_vsnprintf+0x2a>
10005208:	e309      	b.n	1000581e <_vsnprintf+0x63e>
1000520a:	2825      	cmp	r0, #37	@ 0x25
1000520c:	d009      	beq.n	10005222 <_vsnprintf+0x42>
1000520e:	1c6c      	adds	r4, r5, #1
10005210:	465b      	mov	r3, fp
10005212:	002a      	movs	r2, r5
10005214:	4641      	mov	r1, r8
10005216:	47b0      	blx	r6
10005218:	9b11      	ldr	r3, [sp, #68]	@ 0x44
1000521a:	3301      	adds	r3, #1
1000521c:	9311      	str	r3, [sp, #68]	@ 0x44
1000521e:	0025      	movs	r5, r4
10005220:	e7ee      	b.n	10005200 <_vsnprintf+0x20>
10005222:	3301      	adds	r3, #1
10005224:	9311      	str	r3, [sp, #68]	@ 0x44
10005226:	2700      	movs	r7, #0
10005228:	e020      	b.n	1000526c <_vsnprintf+0x8c>
1000522a:	2301      	movs	r3, #1
1000522c:	431f      	orrs	r7, r3
1000522e:	3201      	adds	r2, #1
10005230:	9211      	str	r2, [sp, #68]	@ 0x44
10005232:	2401      	movs	r4, #1
10005234:	e018      	b.n	10005268 <_vsnprintf+0x88>
10005236:	2302      	movs	r3, #2
10005238:	431f      	orrs	r7, r3
1000523a:	3201      	adds	r2, #1
1000523c:	9211      	str	r2, [sp, #68]	@ 0x44
1000523e:	2401      	movs	r4, #1
10005240:	e012      	b.n	10005268 <_vsnprintf+0x88>
10005242:	2304      	movs	r3, #4
10005244:	431f      	orrs	r7, r3
10005246:	3201      	adds	r2, #1
10005248:	9211      	str	r2, [sp, #68]	@ 0x44
1000524a:	2401      	movs	r4, #1
1000524c:	e00c      	b.n	10005268 <_vsnprintf+0x88>
1000524e:	2308      	movs	r3, #8
10005250:	431f      	orrs	r7, r3
10005252:	3201      	adds	r2, #1
10005254:	9211      	str	r2, [sp, #68]	@ 0x44
10005256:	2401      	movs	r4, #1
10005258:	e006      	b.n	10005268 <_vsnprintf+0x88>
1000525a:	2310      	movs	r3, #16
1000525c:	431f      	orrs	r7, r3
1000525e:	3201      	adds	r2, #1
10005260:	9211      	str	r2, [sp, #68]	@ 0x44
10005262:	2401      	movs	r4, #1
10005264:	e000      	b.n	10005268 <_vsnprintf+0x88>
10005266:	2400      	movs	r4, #0
10005268:	2c00      	cmp	r4, #0
1000526a:	d009      	beq.n	10005280 <_vsnprintf+0xa0>
1000526c:	9a11      	ldr	r2, [sp, #68]	@ 0x44
1000526e:	7813      	ldrb	r3, [r2, #0]
10005270:	3b20      	subs	r3, #32
10005272:	b2d9      	uxtb	r1, r3
10005274:	2910      	cmp	r1, #16
10005276:	d8f6      	bhi.n	10005266 <_vsnprintf+0x86>
10005278:	008b      	lsls	r3, r1, #2
1000527a:	49c8      	ldr	r1, [pc, #800]	@ (1000559c <_vsnprintf+0x3bc>)
1000527c:	58cb      	ldr	r3, [r1, r3]
1000527e:	469f      	mov	pc, r3
10005280:	9b11      	ldr	r3, [sp, #68]	@ 0x44
10005282:	781a      	ldrb	r2, [r3, #0]
10005284:	0013      	movs	r3, r2
10005286:	3b30      	subs	r3, #48	@ 0x30
10005288:	b2db      	uxtb	r3, r3
1000528a:	2b09      	cmp	r3, #9
1000528c:	d910      	bls.n	100052b0 <_vsnprintf+0xd0>
1000528e:	2a2a      	cmp	r2, #42	@ 0x2a
10005290:	d013      	beq.n	100052ba <_vsnprintf+0xda>
10005292:	940b      	str	r4, [sp, #44]	@ 0x2c
10005294:	9b11      	ldr	r3, [sp, #68]	@ 0x44
10005296:	781a      	ldrb	r2, [r3, #0]
10005298:	2a2e      	cmp	r2, #46	@ 0x2e
1000529a:	d01e      	beq.n	100052da <_vsnprintf+0xfa>
1000529c:	9a11      	ldr	r2, [sp, #68]	@ 0x44
1000529e:	7813      	ldrb	r3, [r2, #0]
100052a0:	3b68      	subs	r3, #104	@ 0x68
100052a2:	b2d9      	uxtb	r1, r3
100052a4:	2912      	cmp	r1, #18
100052a6:	d859      	bhi.n	1000535c <_vsnprintf+0x17c>
100052a8:	008b      	lsls	r3, r1, #2
100052aa:	49bd      	ldr	r1, [pc, #756]	@ (100055a0 <_vsnprintf+0x3c0>)
100052ac:	58cb      	ldr	r3, [r1, r3]
100052ae:	469f      	mov	pc, r3
100052b0:	a811      	add	r0, sp, #68	@ 0x44
100052b2:	f7ff fa05 	bl	100046c0 <_atoi>
100052b6:	900b      	str	r0, [sp, #44]	@ 0x2c
100052b8:	e7ec      	b.n	10005294 <_vsnprintf+0xb4>
100052ba:	9b1c      	ldr	r3, [sp, #112]	@ 0x70
100052bc:	1d1a      	adds	r2, r3, #4
100052be:	921c      	str	r2, [sp, #112]	@ 0x70
100052c0:	681b      	ldr	r3, [r3, #0]
100052c2:	2b00      	cmp	r3, #0
100052c4:	db04      	blt.n	100052d0 <_vsnprintf+0xf0>
100052c6:	930b      	str	r3, [sp, #44]	@ 0x2c
100052c8:	9b11      	ldr	r3, [sp, #68]	@ 0x44
100052ca:	3301      	adds	r3, #1
100052cc:	9311      	str	r3, [sp, #68]	@ 0x44
100052ce:	e7e1      	b.n	10005294 <_vsnprintf+0xb4>
100052d0:	2202      	movs	r2, #2
100052d2:	4317      	orrs	r7, r2
100052d4:	425b      	negs	r3, r3
100052d6:	930b      	str	r3, [sp, #44]	@ 0x2c
100052d8:	e7f6      	b.n	100052c8 <_vsnprintf+0xe8>
100052da:	2280      	movs	r2, #128	@ 0x80
100052dc:	00d2      	lsls	r2, r2, #3
100052de:	4317      	orrs	r7, r2
100052e0:	1c5a      	adds	r2, r3, #1
100052e2:	9211      	str	r2, [sp, #68]	@ 0x44
100052e4:	785a      	ldrb	r2, [r3, #1]
100052e6:	0013      	movs	r3, r2
100052e8:	3b30      	subs	r3, #48	@ 0x30
100052ea:	b2db      	uxtb	r3, r3
100052ec:	2b09      	cmp	r3, #9
100052ee:	d90b      	bls.n	10005308 <_vsnprintf+0x128>
100052f0:	2a2a      	cmp	r2, #42	@ 0x2a
100052f2:	d1d3      	bne.n	1000529c <_vsnprintf+0xbc>
100052f4:	9b1c      	ldr	r3, [sp, #112]	@ 0x70
100052f6:	1d1a      	adds	r2, r3, #4
100052f8:	921c      	str	r2, [sp, #112]	@ 0x70
100052fa:	681c      	ldr	r4, [r3, #0]
100052fc:	2c00      	cmp	r4, #0
100052fe:	db08      	blt.n	10005312 <_vsnprintf+0x132>
10005300:	9b11      	ldr	r3, [sp, #68]	@ 0x44
10005302:	3301      	adds	r3, #1
10005304:	9311      	str	r3, [sp, #68]	@ 0x44
10005306:	e7c9      	b.n	1000529c <_vsnprintf+0xbc>
10005308:	a811      	add	r0, sp, #68	@ 0x44
1000530a:	f7ff f9d9 	bl	100046c0 <_atoi>
1000530e:	0004      	movs	r4, r0
10005310:	e7c4      	b.n	1000529c <_vsnprintf+0xbc>
10005312:	2400      	movs	r4, #0
10005314:	e7f4      	b.n	10005300 <_vsnprintf+0x120>
10005316:	2380      	movs	r3, #128	@ 0x80
10005318:	005b      	lsls	r3, r3, #1
1000531a:	433b      	orrs	r3, r7
1000531c:	1c51      	adds	r1, r2, #1
1000531e:	9111      	str	r1, [sp, #68]	@ 0x44
10005320:	7851      	ldrb	r1, [r2, #1]
10005322:	296c      	cmp	r1, #108	@ 0x6c
10005324:	d001      	beq.n	1000532a <_vsnprintf+0x14a>
10005326:	001f      	movs	r7, r3
10005328:	e018      	b.n	1000535c <_vsnprintf+0x17c>
1000532a:	23c0      	movs	r3, #192	@ 0xc0
1000532c:	009b      	lsls	r3, r3, #2
1000532e:	431f      	orrs	r7, r3
10005330:	3202      	adds	r2, #2
10005332:	9211      	str	r2, [sp, #68]	@ 0x44
10005334:	e012      	b.n	1000535c <_vsnprintf+0x17c>
10005336:	2380      	movs	r3, #128	@ 0x80
10005338:	433b      	orrs	r3, r7
1000533a:	1c51      	adds	r1, r2, #1
1000533c:	9111      	str	r1, [sp, #68]	@ 0x44
1000533e:	7851      	ldrb	r1, [r2, #1]
10005340:	2968      	cmp	r1, #104	@ 0x68
10005342:	d001      	beq.n	10005348 <_vsnprintf+0x168>
10005344:	001f      	movs	r7, r3
10005346:	e009      	b.n	1000535c <_vsnprintf+0x17c>
10005348:	23c0      	movs	r3, #192	@ 0xc0
1000534a:	431f      	orrs	r7, r3
1000534c:	3202      	adds	r2, #2
1000534e:	9211      	str	r2, [sp, #68]	@ 0x44
10005350:	e004      	b.n	1000535c <_vsnprintf+0x17c>
10005352:	2380      	movs	r3, #128	@ 0x80
10005354:	005b      	lsls	r3, r3, #1
10005356:	431f      	orrs	r7, r3
10005358:	3201      	adds	r2, #1
1000535a:	9211      	str	r2, [sp, #68]	@ 0x44
1000535c:	9b11      	ldr	r3, [sp, #68]	@ 0x44
1000535e:	7818      	ldrb	r0, [r3, #0]
10005360:	2867      	cmp	r0, #103	@ 0x67
10005362:	d818      	bhi.n	10005396 <_vsnprintf+0x1b6>
10005364:	2825      	cmp	r0, #37	@ 0x25
10005366:	d200      	bcs.n	1000536a <_vsnprintf+0x18a>
10005368:	e24c      	b.n	10005804 <_vsnprintf+0x624>
1000536a:	0003      	movs	r3, r0
1000536c:	3b25      	subs	r3, #37	@ 0x25
1000536e:	b2da      	uxtb	r2, r3
10005370:	2a42      	cmp	r2, #66	@ 0x42
10005372:	d900      	bls.n	10005376 <_vsnprintf+0x196>
10005374:	e246      	b.n	10005804 <_vsnprintf+0x624>
10005376:	0093      	lsls	r3, r2, #2
10005378:	4a8a      	ldr	r2, [pc, #552]	@ (100055a4 <_vsnprintf+0x3c4>)
1000537a:	58d3      	ldr	r3, [r2, r3]
1000537c:	469f      	mov	pc, r3
1000537e:	2380      	movs	r3, #128	@ 0x80
10005380:	009b      	lsls	r3, r3, #2
10005382:	431f      	orrs	r7, r3
10005384:	3201      	adds	r2, #1
10005386:	9211      	str	r2, [sp, #68]	@ 0x44
10005388:	e7e8      	b.n	1000535c <_vsnprintf+0x17c>
1000538a:	2380      	movs	r3, #128	@ 0x80
1000538c:	005b      	lsls	r3, r3, #1
1000538e:	431f      	orrs	r7, r3
10005390:	3201      	adds	r2, #1
10005392:	9211      	str	r2, [sp, #68]	@ 0x44
10005394:	e7e2      	b.n	1000535c <_vsnprintf+0x17c>
10005396:	2878      	cmp	r0, #120	@ 0x78
10005398:	d900      	bls.n	1000539c <_vsnprintf+0x1bc>
1000539a:	e233      	b.n	10005804 <_vsnprintf+0x624>
1000539c:	2869      	cmp	r0, #105	@ 0x69
1000539e:	d200      	bcs.n	100053a2 <_vsnprintf+0x1c2>
100053a0:	e230      	b.n	10005804 <_vsnprintf+0x624>
100053a2:	0002      	movs	r2, r0
100053a4:	3a69      	subs	r2, #105	@ 0x69
100053a6:	b2d2      	uxtb	r2, r2
100053a8:	2301      	movs	r3, #1
100053aa:	4093      	lsls	r3, r2
100053ac:	4a7e      	ldr	r2, [pc, #504]	@ (100055a8 <_vsnprintf+0x3c8>)
100053ae:	4213      	tst	r3, r2
100053b0:	d111      	bne.n	100053d6 <_vsnprintf+0x1f6>
100053b2:	061a      	lsls	r2, r3, #24
100053b4:	d500      	bpl.n	100053b8 <_vsnprintf+0x1d8>
100053b6:	e200      	b.n	100057ba <_vsnprintf+0x5da>
100053b8:	055b      	lsls	r3, r3, #21
100053ba:	d400      	bmi.n	100053be <_vsnprintf+0x1de>
100053bc:	e222      	b.n	10005804 <_vsnprintf+0x624>
100053be:	9b1c      	ldr	r3, [sp, #112]	@ 0x70
100053c0:	1d1a      	adds	r2, r3, #4
100053c2:	921c      	str	r2, [sp, #112]	@ 0x70
100053c4:	681b      	ldr	r3, [r3, #0]
100053c6:	469a      	mov	sl, r3
100053c8:	2c00      	cmp	r4, #0
100053ca:	d000      	beq.n	100053ce <_vsnprintf+0x1ee>
100053cc:	e1b2      	b.n	10005734 <_vsnprintf+0x554>
100053ce:	2201      	movs	r2, #1
100053d0:	4252      	negs	r2, r2
100053d2:	4653      	mov	r3, sl
100053d4:	e18e      	b.n	100056f4 <_vsnprintf+0x514>
100053d6:	286f      	cmp	r0, #111	@ 0x6f
100053d8:	d00e      	beq.n	100053f8 <_vsnprintf+0x218>
100053da:	d806      	bhi.n	100053ea <_vsnprintf+0x20a>
100053dc:	2858      	cmp	r0, #88	@ 0x58
100053de:	d03d      	beq.n	1000545c <_vsnprintf+0x27c>
100053e0:	2862      	cmp	r0, #98	@ 0x62
100053e2:	d104      	bne.n	100053ee <_vsnprintf+0x20e>
100053e4:	2302      	movs	r3, #2
100053e6:	469c      	mov	ip, r3
100053e8:	e008      	b.n	100053fc <_vsnprintf+0x21c>
100053ea:	2878      	cmp	r0, #120	@ 0x78
100053ec:	d039      	beq.n	10005462 <_vsnprintf+0x282>
100053ee:	2310      	movs	r3, #16
100053f0:	439f      	bics	r7, r3
100053f2:	3b06      	subs	r3, #6
100053f4:	469c      	mov	ip, r3
100053f6:	e001      	b.n	100053fc <_vsnprintf+0x21c>
100053f8:	2308      	movs	r3, #8
100053fa:	469c      	mov	ip, r3
100053fc:	2858      	cmp	r0, #88	@ 0x58
100053fe:	d033      	beq.n	10005468 <_vsnprintf+0x288>
10005400:	2869      	cmp	r0, #105	@ 0x69
10005402:	d003      	beq.n	1000540c <_vsnprintf+0x22c>
10005404:	2864      	cmp	r0, #100	@ 0x64
10005406:	d001      	beq.n	1000540c <_vsnprintf+0x22c>
10005408:	220c      	movs	r2, #12
1000540a:	4397      	bics	r7, r2
1000540c:	057a      	lsls	r2, r7, #21
1000540e:	d501      	bpl.n	10005414 <_vsnprintf+0x234>
10005410:	2201      	movs	r2, #1
10005412:	4397      	bics	r7, r2
10005414:	2869      	cmp	r0, #105	@ 0x69
10005416:	d02a      	beq.n	1000546e <_vsnprintf+0x28e>
10005418:	2864      	cmp	r0, #100	@ 0x64
1000541a:	d028      	beq.n	1000546e <_vsnprintf+0x28e>
1000541c:	05ba      	lsls	r2, r7, #22
1000541e:	d500      	bpl.n	10005422 <_vsnprintf+0x242>
10005420:	e09f      	b.n	10005562 <_vsnprintf+0x382>
10005422:	05fa      	lsls	r2, r7, #23
10005424:	d500      	bpl.n	10005428 <_vsnprintf+0x248>
10005426:	e0c1      	b.n	100055ac <_vsnprintf+0x3cc>
10005428:	067a      	lsls	r2, r7, #25
1000542a:	d400      	bmi.n	1000542e <_vsnprintf+0x24e>
1000542c:	e0d3      	b.n	100055d6 <_vsnprintf+0x3f6>
1000542e:	9a1c      	ldr	r2, [sp, #112]	@ 0x70
10005430:	1d11      	adds	r1, r2, #4
10005432:	911c      	str	r1, [sp, #112]	@ 0x70
10005434:	6811      	ldr	r1, [r2, #0]
10005436:	22ff      	movs	r2, #255	@ 0xff
10005438:	400a      	ands	r2, r1
1000543a:	9705      	str	r7, [sp, #20]
1000543c:	9b0b      	ldr	r3, [sp, #44]	@ 0x2c
1000543e:	9304      	str	r3, [sp, #16]
10005440:	9403      	str	r4, [sp, #12]
10005442:	4663      	mov	r3, ip
10005444:	9302      	str	r3, [sp, #8]
10005446:	2300      	movs	r3, #0
10005448:	9301      	str	r3, [sp, #4]
1000544a:	9200      	str	r2, [sp, #0]
1000544c:	465b      	mov	r3, fp
1000544e:	002a      	movs	r2, r5
10005450:	4641      	mov	r1, r8
10005452:	0030      	movs	r0, r6
10005454:	f7ff fa25 	bl	100048a2 <_ntoa_long>
10005458:	0005      	movs	r5, r0
1000545a:	e027      	b.n	100054ac <_vsnprintf+0x2cc>
1000545c:	2310      	movs	r3, #16
1000545e:	469c      	mov	ip, r3
10005460:	e7cc      	b.n	100053fc <_vsnprintf+0x21c>
10005462:	2310      	movs	r3, #16
10005464:	469c      	mov	ip, r3
10005466:	e7c9      	b.n	100053fc <_vsnprintf+0x21c>
10005468:	2220      	movs	r2, #32
1000546a:	4317      	orrs	r7, r2
1000546c:	e7c8      	b.n	10005400 <_vsnprintf+0x220>
1000546e:	05ba      	lsls	r2, r7, #22
10005470:	d420      	bmi.n	100054b4 <_vsnprintf+0x2d4>
10005472:	05fa      	lsls	r2, r7, #23
10005474:	d450      	bmi.n	10005518 <_vsnprintf+0x338>
10005476:	067a      	lsls	r2, r7, #25
10005478:	d566      	bpl.n	10005548 <_vsnprintf+0x368>
1000547a:	9a1c      	ldr	r2, [sp, #112]	@ 0x70
1000547c:	1d11      	adds	r1, r2, #4
1000547e:	911c      	str	r1, [sp, #112]	@ 0x70
10005480:	6811      	ldr	r1, [r2, #0]
10005482:	22ff      	movs	r2, #255	@ 0xff
10005484:	400a      	ands	r2, r1
10005486:	17d0      	asrs	r0, r2, #31
10005488:	1811      	adds	r1, r2, r0
1000548a:	4041      	eors	r1, r0
1000548c:	9705      	str	r7, [sp, #20]
1000548e:	9b0b      	ldr	r3, [sp, #44]	@ 0x2c
10005490:	9304      	str	r3, [sp, #16]
10005492:	9403      	str	r4, [sp, #12]
10005494:	4663      	mov	r3, ip
10005496:	9302      	str	r3, [sp, #8]
10005498:	0fd2      	lsrs	r2, r2, #31
1000549a:	9201      	str	r2, [sp, #4]
1000549c:	9100      	str	r1, [sp, #0]
1000549e:	465b      	mov	r3, fp
100054a0:	002a      	movs	r2, r5
100054a2:	4641      	mov	r1, r8
100054a4:	0030      	movs	r0, r6
100054a6:	f7ff f9fc 	bl	100048a2 <_ntoa_long>
100054aa:	0005      	movs	r5, r0
100054ac:	9b11      	ldr	r3, [sp, #68]	@ 0x44
100054ae:	3301      	adds	r3, #1
100054b0:	9311      	str	r3, [sp, #68]	@ 0x44
100054b2:	e6a5      	b.n	10005200 <_vsnprintf+0x20>
100054b4:	9a1c      	ldr	r2, [sp, #112]	@ 0x70
100054b6:	3207      	adds	r2, #7
100054b8:	2107      	movs	r1, #7
100054ba:	438a      	bics	r2, r1
100054bc:	0011      	movs	r1, r2
100054be:	3108      	adds	r1, #8
100054c0:	911c      	str	r1, [sp, #112]	@ 0x70
100054c2:	6811      	ldr	r1, [r2, #0]
100054c4:	6853      	ldr	r3, [r2, #4]
100054c6:	4699      	mov	r9, r3
100054c8:	17db      	asrs	r3, r3, #31
100054ca:	930c      	str	r3, [sp, #48]	@ 0x30
100054cc:	930d      	str	r3, [sp, #52]	@ 0x34
100054ce:	9a0c      	ldr	r2, [sp, #48]	@ 0x30
100054d0:	9b0d      	ldr	r3, [sp, #52]	@ 0x34
100054d2:	0010      	movs	r0, r2
100054d4:	4048      	eors	r0, r1
100054d6:	900e      	str	r0, [sp, #56]	@ 0x38
100054d8:	464a      	mov	r2, r9
100054da:	4053      	eors	r3, r2
100054dc:	930f      	str	r3, [sp, #60]	@ 0x3c
100054de:	980e      	ldr	r0, [sp, #56]	@ 0x38
100054e0:	990f      	ldr	r1, [sp, #60]	@ 0x3c
100054e2:	9a0c      	ldr	r2, [sp, #48]	@ 0x30
100054e4:	9b0d      	ldr	r3, [sp, #52]	@ 0x34
100054e6:	1a80      	subs	r0, r0, r2
100054e8:	4199      	sbcs	r1, r3
100054ea:	900e      	str	r0, [sp, #56]	@ 0x38
100054ec:	910f      	str	r1, [sp, #60]	@ 0x3c
100054ee:	9708      	str	r7, [sp, #32]
100054f0:	9b0b      	ldr	r3, [sp, #44]	@ 0x2c
100054f2:	9307      	str	r3, [sp, #28]
100054f4:	9406      	str	r4, [sp, #24]
100054f6:	4663      	mov	r3, ip
100054f8:	9304      	str	r3, [sp, #16]
100054fa:	2300      	movs	r3, #0
100054fc:	9305      	str	r3, [sp, #20]
100054fe:	464b      	mov	r3, r9
10005500:	0fda      	lsrs	r2, r3, #31
10005502:	9202      	str	r2, [sp, #8]
10005504:	9000      	str	r0, [sp, #0]
10005506:	9101      	str	r1, [sp, #4]
10005508:	465b      	mov	r3, fp
1000550a:	002a      	movs	r2, r5
1000550c:	4641      	mov	r1, r8
1000550e:	0030      	movs	r0, r6
10005510:	f7ff fa25 	bl	1000495e <_ntoa_long_long>
10005514:	0005      	movs	r5, r0
10005516:	e7c9      	b.n	100054ac <_vsnprintf+0x2cc>
10005518:	9a1c      	ldr	r2, [sp, #112]	@ 0x70
1000551a:	1d11      	adds	r1, r2, #4
1000551c:	911c      	str	r1, [sp, #112]	@ 0x70
1000551e:	6812      	ldr	r2, [r2, #0]
10005520:	17d0      	asrs	r0, r2, #31
10005522:	1811      	adds	r1, r2, r0
10005524:	4041      	eors	r1, r0
10005526:	9705      	str	r7, [sp, #20]
10005528:	9b0b      	ldr	r3, [sp, #44]	@ 0x2c
1000552a:	9304      	str	r3, [sp, #16]
1000552c:	9403      	str	r4, [sp, #12]
1000552e:	4663      	mov	r3, ip
10005530:	9302      	str	r3, [sp, #8]
10005532:	0fd2      	lsrs	r2, r2, #31
10005534:	9201      	str	r2, [sp, #4]
10005536:	9100      	str	r1, [sp, #0]
10005538:	465b      	mov	r3, fp
1000553a:	002a      	movs	r2, r5
1000553c:	4641      	mov	r1, r8
1000553e:	0030      	movs	r0, r6
10005540:	f7ff f9af 	bl	100048a2 <_ntoa_long>
10005544:	0005      	movs	r5, r0
10005546:	e7b1      	b.n	100054ac <_vsnprintf+0x2cc>
10005548:	063a      	lsls	r2, r7, #24
1000554a:	d505      	bpl.n	10005558 <_vsnprintf+0x378>
1000554c:	9a1c      	ldr	r2, [sp, #112]	@ 0x70
1000554e:	1d11      	adds	r1, r2, #4
10005550:	911c      	str	r1, [sp, #112]	@ 0x70
10005552:	2300      	movs	r3, #0
10005554:	5ed2      	ldrsh	r2, [r2, r3]
10005556:	e796      	b.n	10005486 <_vsnprintf+0x2a6>
10005558:	9a1c      	ldr	r2, [sp, #112]	@ 0x70
1000555a:	1d11      	adds	r1, r2, #4
1000555c:	911c      	str	r1, [sp, #112]	@ 0x70
1000555e:	6812      	ldr	r2, [r2, #0]
10005560:	e791      	b.n	10005486 <_vsnprintf+0x2a6>
10005562:	9a1c      	ldr	r2, [sp, #112]	@ 0x70
10005564:	3207      	adds	r2, #7
10005566:	2107      	movs	r1, #7
10005568:	438a      	bics	r2, r1
1000556a:	0011      	movs	r1, r2
1000556c:	3108      	adds	r1, #8
1000556e:	911c      	str	r1, [sp, #112]	@ 0x70
10005570:	9708      	str	r7, [sp, #32]
10005572:	9b0b      	ldr	r3, [sp, #44]	@ 0x2c
10005574:	9307      	str	r3, [sp, #28]
10005576:	9406      	str	r4, [sp, #24]
10005578:	4663      	mov	r3, ip
1000557a:	9304      	str	r3, [sp, #16]
1000557c:	2300      	movs	r3, #0
1000557e:	9305      	str	r3, [sp, #20]
10005580:	9302      	str	r3, [sp, #8]
10005582:	6853      	ldr	r3, [r2, #4]
10005584:	6812      	ldr	r2, [r2, #0]
10005586:	9200      	str	r2, [sp, #0]
10005588:	9301      	str	r3, [sp, #4]
1000558a:	465b      	mov	r3, fp
1000558c:	002a      	movs	r2, r5
1000558e:	4641      	mov	r1, r8
10005590:	0030      	movs	r0, r6
10005592:	f7ff f9e4 	bl	1000495e <_ntoa_long_long>
10005596:	0005      	movs	r5, r0
10005598:	e788      	b.n	100054ac <_vsnprintf+0x2cc>
1000559a:	46c0      	nop			@ (mov r8, r8)
1000559c:	1000c680 	.word	0x1000c680
100055a0:	1000c6c4 	.word	0x1000c6c4
100055a4:	1000c710 	.word	0x1000c710
100055a8:	00009041 	.word	0x00009041
100055ac:	9a1c      	ldr	r2, [sp, #112]	@ 0x70
100055ae:	1d11      	adds	r1, r2, #4
100055b0:	911c      	str	r1, [sp, #112]	@ 0x70
100055b2:	9705      	str	r7, [sp, #20]
100055b4:	9b0b      	ldr	r3, [sp, #44]	@ 0x2c
100055b6:	9304      	str	r3, [sp, #16]
100055b8:	9403      	str	r4, [sp, #12]
100055ba:	4663      	mov	r3, ip
100055bc:	9302      	str	r3, [sp, #8]
100055be:	2300      	movs	r3, #0
100055c0:	9301      	str	r3, [sp, #4]
100055c2:	6813      	ldr	r3, [r2, #0]
100055c4:	9300      	str	r3, [sp, #0]
100055c6:	465b      	mov	r3, fp
100055c8:	002a      	movs	r2, r5
100055ca:	4641      	mov	r1, r8
100055cc:	0030      	movs	r0, r6
100055ce:	f7ff f968 	bl	100048a2 <_ntoa_long>
100055d2:	0005      	movs	r5, r0
100055d4:	e76a      	b.n	100054ac <_vsnprintf+0x2cc>
100055d6:	063a      	lsls	r2, r7, #24
100055d8:	d506      	bpl.n	100055e8 <_vsnprintf+0x408>
100055da:	9a1c      	ldr	r2, [sp, #112]	@ 0x70
100055dc:	1d11      	adds	r1, r2, #4
100055de:	911c      	str	r1, [sp, #112]	@ 0x70
100055e0:	6812      	ldr	r2, [r2, #0]
100055e2:	0412      	lsls	r2, r2, #16
100055e4:	0c12      	lsrs	r2, r2, #16
100055e6:	e728      	b.n	1000543a <_vsnprintf+0x25a>
100055e8:	9a1c      	ldr	r2, [sp, #112]	@ 0x70
100055ea:	1d11      	adds	r1, r2, #4
100055ec:	911c      	str	r1, [sp, #112]	@ 0x70
100055ee:	6812      	ldr	r2, [r2, #0]
100055f0:	e723      	b.n	1000543a <_vsnprintf+0x25a>
100055f2:	2846      	cmp	r0, #70	@ 0x46
100055f4:	d019      	beq.n	1000562a <_vsnprintf+0x44a>
100055f6:	9b1c      	ldr	r3, [sp, #112]	@ 0x70
100055f8:	3307      	adds	r3, #7
100055fa:	2207      	movs	r2, #7
100055fc:	4393      	bics	r3, r2
100055fe:	001a      	movs	r2, r3
10005600:	3208      	adds	r2, #8
10005602:	921c      	str	r2, [sp, #112]	@ 0x70
10005604:	9704      	str	r7, [sp, #16]
10005606:	9a0b      	ldr	r2, [sp, #44]	@ 0x2c
10005608:	9203      	str	r2, [sp, #12]
1000560a:	9402      	str	r4, [sp, #8]
1000560c:	681a      	ldr	r2, [r3, #0]
1000560e:	685b      	ldr	r3, [r3, #4]
10005610:	9200      	str	r2, [sp, #0]
10005612:	9301      	str	r3, [sp, #4]
10005614:	465b      	mov	r3, fp
10005616:	002a      	movs	r2, r5
10005618:	4641      	mov	r1, r8
1000561a:	0030      	movs	r0, r6
1000561c:	f7ff fc36 	bl	10004e8c <_ftoa>
10005620:	0005      	movs	r5, r0
10005622:	9b11      	ldr	r3, [sp, #68]	@ 0x44
10005624:	3301      	adds	r3, #1
10005626:	9311      	str	r3, [sp, #68]	@ 0x44
10005628:	e5ea      	b.n	10005200 <_vsnprintf+0x20>
1000562a:	2320      	movs	r3, #32
1000562c:	431f      	orrs	r7, r3
1000562e:	e7e2      	b.n	100055f6 <_vsnprintf+0x416>
10005630:	2867      	cmp	r0, #103	@ 0x67
10005632:	d001      	beq.n	10005638 <_vsnprintf+0x458>
10005634:	2847      	cmp	r0, #71	@ 0x47
10005636:	d102      	bne.n	1000563e <_vsnprintf+0x45e>
10005638:	2380      	movs	r3, #128	@ 0x80
1000563a:	011b      	lsls	r3, r3, #4
1000563c:	431f      	orrs	r7, r3
1000563e:	2845      	cmp	r0, #69	@ 0x45
10005640:	d001      	beq.n	10005646 <_vsnprintf+0x466>
10005642:	2847      	cmp	r0, #71	@ 0x47
10005644:	d101      	bne.n	1000564a <_vsnprintf+0x46a>
10005646:	2320      	movs	r3, #32
10005648:	431f      	orrs	r7, r3
1000564a:	9b1c      	ldr	r3, [sp, #112]	@ 0x70
1000564c:	3307      	adds	r3, #7
1000564e:	2207      	movs	r2, #7
10005650:	4393      	bics	r3, r2
10005652:	001a      	movs	r2, r3
10005654:	3208      	adds	r2, #8
10005656:	921c      	str	r2, [sp, #112]	@ 0x70
10005658:	9704      	str	r7, [sp, #16]
1000565a:	9a0b      	ldr	r2, [sp, #44]	@ 0x2c
1000565c:	9203      	str	r2, [sp, #12]
1000565e:	9402      	str	r4, [sp, #8]
10005660:	681a      	ldr	r2, [r3, #0]
10005662:	685b      	ldr	r3, [r3, #4]
10005664:	9200      	str	r2, [sp, #0]
10005666:	9301      	str	r3, [sp, #4]
10005668:	465b      	mov	r3, fp
1000566a:	002a      	movs	r2, r5
1000566c:	4641      	mov	r1, r8
1000566e:	0030      	movs	r0, r6
10005670:	f7ff f9fc 	bl	10004a6c <_etoa>
10005674:	0005      	movs	r5, r0
10005676:	9b11      	ldr	r3, [sp, #68]	@ 0x44
10005678:	3301      	adds	r3, #1
1000567a:	9311      	str	r3, [sp, #68]	@ 0x44
1000567c:	e5c0      	b.n	10005200 <_vsnprintf+0x20>
1000567e:	2302      	movs	r3, #2
10005680:	001a      	movs	r2, r3
10005682:	403a      	ands	r2, r7
10005684:	4691      	mov	r9, r2
10005686:	423b      	tst	r3, r7
10005688:	d01d      	beq.n	100056c6 <_vsnprintf+0x4e6>
1000568a:	2401      	movs	r4, #1
1000568c:	9b1c      	ldr	r3, [sp, #112]	@ 0x70
1000568e:	1d1a      	adds	r2, r3, #4
10005690:	921c      	str	r2, [sp, #112]	@ 0x70
10005692:	1c6f      	adds	r7, r5, #1
10005694:	7818      	ldrb	r0, [r3, #0]
10005696:	465b      	mov	r3, fp
10005698:	002a      	movs	r2, r5
1000569a:	4641      	mov	r1, r8
1000569c:	47b0      	blx	r6
1000569e:	464b      	mov	r3, r9
100056a0:	2b00      	cmp	r3, #0
100056a2:	d114      	bne.n	100056ce <_vsnprintf+0x4ee>
100056a4:	9b11      	ldr	r3, [sp, #68]	@ 0x44
100056a6:	3301      	adds	r3, #1
100056a8:	9311      	str	r3, [sp, #68]	@ 0x44
100056aa:	003d      	movs	r5, r7
100056ac:	e5a8      	b.n	10005200 <_vsnprintf+0x20>
100056ae:	1c57      	adds	r7, r2, #1
100056b0:	465b      	mov	r3, fp
100056b2:	4641      	mov	r1, r8
100056b4:	2020      	movs	r0, #32
100056b6:	47b0      	blx	r6
100056b8:	0023      	movs	r3, r4
100056ba:	003a      	movs	r2, r7
100056bc:	1c5c      	adds	r4, r3, #1
100056be:	429d      	cmp	r5, r3
100056c0:	d8f5      	bhi.n	100056ae <_vsnprintf+0x4ce>
100056c2:	0015      	movs	r5, r2
100056c4:	e7e2      	b.n	1000568c <_vsnprintf+0x4ac>
100056c6:	2301      	movs	r3, #1
100056c8:	002a      	movs	r2, r5
100056ca:	9d0b      	ldr	r5, [sp, #44]	@ 0x2c
100056cc:	e7f6      	b.n	100056bc <_vsnprintf+0x4dc>
100056ce:	003a      	movs	r2, r7
100056d0:	46b1      	mov	r9, r6
100056d2:	9e0b      	ldr	r6, [sp, #44]	@ 0x2c
100056d4:	e006      	b.n	100056e4 <_vsnprintf+0x504>
100056d6:	1c57      	adds	r7, r2, #1
100056d8:	465b      	mov	r3, fp
100056da:	4641      	mov	r1, r8
100056dc:	2020      	movs	r0, #32
100056de:	47c8      	blx	r9
100056e0:	002c      	movs	r4, r5
100056e2:	003a      	movs	r2, r7
100056e4:	1c65      	adds	r5, r4, #1
100056e6:	42a6      	cmp	r6, r4
100056e8:	d8f5      	bhi.n	100056d6 <_vsnprintf+0x4f6>
100056ea:	0017      	movs	r7, r2
100056ec:	464e      	mov	r6, r9
100056ee:	e7d9      	b.n	100056a4 <_vsnprintf+0x4c4>
100056f0:	3301      	adds	r3, #1
100056f2:	000a      	movs	r2, r1
100056f4:	7819      	ldrb	r1, [r3, #0]
100056f6:	2900      	cmp	r1, #0
100056f8:	d002      	beq.n	10005700 <_vsnprintf+0x520>
100056fa:	1e51      	subs	r1, r2, #1
100056fc:	2a00      	cmp	r2, #0
100056fe:	d1f7      	bne.n	100056f0 <_vsnprintf+0x510>
10005700:	4652      	mov	r2, sl
10005702:	1a9b      	subs	r3, r3, r2
10005704:	2280      	movs	r2, #128	@ 0x80
10005706:	00d2      	lsls	r2, r2, #3
10005708:	0039      	movs	r1, r7
1000570a:	4011      	ands	r1, r2
1000570c:	4689      	mov	r9, r1
1000570e:	4217      	tst	r7, r2
10005710:	d002      	beq.n	10005718 <_vsnprintf+0x538>
10005712:	42a3      	cmp	r3, r4
10005714:	d900      	bls.n	10005718 <_vsnprintf+0x538>
10005716:	0023      	movs	r3, r4
10005718:	2202      	movs	r2, #2
1000571a:	0011      	movs	r1, r2
1000571c:	4039      	ands	r1, r7
1000571e:	9110      	str	r1, [sp, #64]	@ 0x40
10005720:	423a      	tst	r2, r7
10005722:	d009      	beq.n	10005738 <_vsnprintf+0x558>
10005724:	002a      	movs	r2, r5
10005726:	0025      	movs	r5, r4
10005728:	4657      	mov	r7, sl
1000572a:	469a      	mov	sl, r3
1000572c:	0033      	movs	r3, r6
1000572e:	464e      	mov	r6, r9
10005730:	4699      	mov	r9, r3
10005732:	e021      	b.n	10005778 <_vsnprintf+0x598>
10005734:	0022      	movs	r2, r4
10005736:	e64c      	b.n	100053d2 <_vsnprintf+0x1f2>
10005738:	002a      	movs	r2, r5
1000573a:	4645      	mov	r5, r8
1000573c:	46a0      	mov	r8, r4
1000573e:	e006      	b.n	1000574e <_vsnprintf+0x56e>
10005740:	1c54      	adds	r4, r2, #1
10005742:	465b      	mov	r3, fp
10005744:	0029      	movs	r1, r5
10005746:	2020      	movs	r0, #32
10005748:	47b0      	blx	r6
1000574a:	003b      	movs	r3, r7
1000574c:	0022      	movs	r2, r4
1000574e:	1c5f      	adds	r7, r3, #1
10005750:	990b      	ldr	r1, [sp, #44]	@ 0x2c
10005752:	4299      	cmp	r1, r3
10005754:	d8f4      	bhi.n	10005740 <_vsnprintf+0x560>
10005756:	4644      	mov	r4, r8
10005758:	46a8      	mov	r8, r5
1000575a:	003b      	movs	r3, r7
1000575c:	0025      	movs	r5, r4
1000575e:	4657      	mov	r7, sl
10005760:	469a      	mov	sl, r3
10005762:	0033      	movs	r3, r6
10005764:	464e      	mov	r6, r9
10005766:	4699      	mov	r9, r3
10005768:	e006      	b.n	10005778 <_vsnprintf+0x598>
1000576a:	001d      	movs	r5, r3
1000576c:	3701      	adds	r7, #1
1000576e:	1c54      	adds	r4, r2, #1
10005770:	465b      	mov	r3, fp
10005772:	4641      	mov	r1, r8
10005774:	47c8      	blx	r9
10005776:	0022      	movs	r2, r4
10005778:	7838      	ldrb	r0, [r7, #0]
1000577a:	2800      	cmp	r0, #0
1000577c:	d004      	beq.n	10005788 <_vsnprintf+0x5a8>
1000577e:	2e00      	cmp	r6, #0
10005780:	d0f4      	beq.n	1000576c <_vsnprintf+0x58c>
10005782:	1e6b      	subs	r3, r5, #1
10005784:	2d00      	cmp	r5, #0
10005786:	d1f0      	bne.n	1000576a <_vsnprintf+0x58a>
10005788:	0015      	movs	r5, r2
1000578a:	4653      	mov	r3, sl
1000578c:	464e      	mov	r6, r9
1000578e:	9a10      	ldr	r2, [sp, #64]	@ 0x40
10005790:	2a00      	cmp	r2, #0
10005792:	d103      	bne.n	1000579c <_vsnprintf+0x5bc>
10005794:	9b11      	ldr	r3, [sp, #68]	@ 0x44
10005796:	3301      	adds	r3, #1
10005798:	9311      	str	r3, [sp, #68]	@ 0x44
1000579a:	e531      	b.n	10005200 <_vsnprintf+0x20>
1000579c:	9f0b      	ldr	r7, [sp, #44]	@ 0x2c
1000579e:	002a      	movs	r2, r5
100057a0:	e006      	b.n	100057b0 <_vsnprintf+0x5d0>
100057a2:	1c55      	adds	r5, r2, #1
100057a4:	465b      	mov	r3, fp
100057a6:	4641      	mov	r1, r8
100057a8:	2020      	movs	r0, #32
100057aa:	47b0      	blx	r6
100057ac:	0023      	movs	r3, r4
100057ae:	002a      	movs	r2, r5
100057b0:	1c5c      	adds	r4, r3, #1
100057b2:	429f      	cmp	r7, r3
100057b4:	d8f5      	bhi.n	100057a2 <_vsnprintf+0x5c2>
100057b6:	0015      	movs	r5, r2
100057b8:	e7ec      	b.n	10005794 <_vsnprintf+0x5b4>
100057ba:	2321      	movs	r3, #33	@ 0x21
100057bc:	433b      	orrs	r3, r7
100057be:	9a1c      	ldr	r2, [sp, #112]	@ 0x70
100057c0:	1d11      	adds	r1, r2, #4
100057c2:	911c      	str	r1, [sp, #112]	@ 0x70
100057c4:	6812      	ldr	r2, [r2, #0]
100057c6:	9305      	str	r3, [sp, #20]
100057c8:	2308      	movs	r3, #8
100057ca:	9304      	str	r3, [sp, #16]
100057cc:	9403      	str	r4, [sp, #12]
100057ce:	3308      	adds	r3, #8
100057d0:	9302      	str	r3, [sp, #8]
100057d2:	2300      	movs	r3, #0
100057d4:	9301      	str	r3, [sp, #4]
100057d6:	9200      	str	r2, [sp, #0]
100057d8:	465b      	mov	r3, fp
100057da:	002a      	movs	r2, r5
100057dc:	4641      	mov	r1, r8
100057de:	0030      	movs	r0, r6
100057e0:	f7ff f85f 	bl	100048a2 <_ntoa_long>
100057e4:	0005      	movs	r5, r0
100057e6:	9b11      	ldr	r3, [sp, #68]	@ 0x44
100057e8:	3301      	adds	r3, #1
100057ea:	9311      	str	r3, [sp, #68]	@ 0x44
100057ec:	e508      	b.n	10005200 <_vsnprintf+0x20>
100057ee:	1c6c      	adds	r4, r5, #1
100057f0:	465b      	mov	r3, fp
100057f2:	002a      	movs	r2, r5
100057f4:	4641      	mov	r1, r8
100057f6:	2025      	movs	r0, #37	@ 0x25
100057f8:	47b0      	blx	r6
100057fa:	9b11      	ldr	r3, [sp, #68]	@ 0x44
100057fc:	3301      	adds	r3, #1
100057fe:	9311      	str	r3, [sp, #68]	@ 0x44
10005800:	0025      	movs	r5, r4
10005802:	e4fd      	b.n	10005200 <_vsnprintf+0x20>
10005804:	1c6c      	adds	r4, r5, #1
10005806:	465b      	mov	r3, fp
10005808:	002a      	movs	r2, r5
1000580a:	4641      	mov	r1, r8
1000580c:	47b0      	blx	r6
1000580e:	9b11      	ldr	r3, [sp, #68]	@ 0x44
10005810:	3301      	adds	r3, #1
10005812:	9311      	str	r3, [sp, #68]	@ 0x44
10005814:	0025      	movs	r5, r4
10005816:	e4f3      	b.n	10005200 <_vsnprintf+0x20>
10005818:	4b0a      	ldr	r3, [pc, #40]	@ (10005844 <_vsnprintf+0x664>)
1000581a:	469a      	mov	sl, r3
1000581c:	e4ee      	b.n	100051fc <_vsnprintf+0x1c>
1000581e:	46b2      	mov	sl, r6
10005820:	455d      	cmp	r5, fp
10005822:	d30d      	bcc.n	10005840 <_vsnprintf+0x660>
10005824:	465b      	mov	r3, fp
10005826:	1e5a      	subs	r2, r3, #1
10005828:	465b      	mov	r3, fp
1000582a:	4641      	mov	r1, r8
1000582c:	2000      	movs	r0, #0
1000582e:	47d0      	blx	sl
10005830:	0028      	movs	r0, r5
10005832:	b013      	add	sp, #76	@ 0x4c
10005834:	bcf0      	pop	{r4, r5, r6, r7}
10005836:	46bb      	mov	fp, r7
10005838:	46b2      	mov	sl, r6
1000583a:	46a9      	mov	r9, r5
1000583c:	46a0      	mov	r8, r4
1000583e:	bdf0      	pop	{r4, r5, r6, r7, pc}
10005840:	002a      	movs	r2, r5
10005842:	e7f1      	b.n	10005828 <_vsnprintf+0x648>
10005844:	100046b1 	.word	0x100046b1

10005848 <vfctprintf>:
10005848:	b500      	push	{lr}
1000584a:	b085      	sub	sp, #20
1000584c:	9002      	str	r0, [sp, #8]
1000584e:	9103      	str	r1, [sp, #12]
10005850:	2101      	movs	r1, #1
10005852:	4804      	ldr	r0, [pc, #16]	@ (10005864 <vfctprintf+0x1c>)
10005854:	9300      	str	r3, [sp, #0]
10005856:	0013      	movs	r3, r2
10005858:	424a      	negs	r2, r1
1000585a:	a902      	add	r1, sp, #8
1000585c:	f7ff fcc0 	bl	100051e0 <_vsnprintf>
10005860:	b005      	add	sp, #20
10005862:	bd00      	pop	{pc}
10005864:	100046b3 	.word	0x100046b3

10005868 <__aeabi_bits_init>:
10005868:	4801      	ldr	r0, [pc, #4]	@ (10005870 <__aeabi_bits_init+0x8>)
1000586a:	2104      	movs	r1, #4
1000586c:	4b01      	ldr	r3, [pc, #4]	@ (10005874 <__aeabi_bits_init+0xc>)
1000586e:	4718      	bx	r3
10005870:	20000e40 	.word	0x20000e40
10005874:	10005899 	.word	0x10005899

10005878 <rom_func_lookup>:
10005878:	b510      	push	{r4, lr}
1000587a:	0001      	movs	r1, r0
1000587c:	2318      	movs	r3, #24
1000587e:	881b      	ldrh	r3, [r3, #0]
10005880:	2214      	movs	r2, #20
10005882:	8810      	ldrh	r0, [r2, #0]
10005884:	4798      	blx	r3
10005886:	bd10      	pop	{r4, pc}

10005888 <rom_data_lookup>:
10005888:	b510      	push	{r4, lr}
1000588a:	0001      	movs	r1, r0
1000588c:	2318      	movs	r3, #24
1000588e:	881b      	ldrh	r3, [r3, #0]
10005890:	2216      	movs	r2, #22
10005892:	8810      	ldrh	r0, [r2, #0]
10005894:	4798      	blx	r3
10005896:	bd10      	pop	{r4, pc}

10005898 <rom_funcs_lookup>:
10005898:	b5f0      	push	{r4, r5, r6, r7, lr}
1000589a:	46c6      	mov	lr, r8
1000589c:	b500      	push	{lr}
1000589e:	0007      	movs	r7, r0
100058a0:	000e      	movs	r6, r1
100058a2:	2500      	movs	r5, #0
100058a4:	2301      	movs	r3, #1
100058a6:	4698      	mov	r8, r3
100058a8:	e000      	b.n	100058ac <rom_funcs_lookup+0x14>
100058aa:	3501      	adds	r5, #1
100058ac:	42b5      	cmp	r5, r6
100058ae:	d20a      	bcs.n	100058c6 <rom_funcs_lookup+0x2e>
100058b0:	00ac      	lsls	r4, r5, #2
100058b2:	193c      	adds	r4, r7, r4
100058b4:	6820      	ldr	r0, [r4, #0]
100058b6:	f7ff ffdf 	bl	10005878 <rom_func_lookup>
100058ba:	6020      	str	r0, [r4, #0]
100058bc:	2800      	cmp	r0, #0
100058be:	d1f4      	bne.n	100058aa <rom_funcs_lookup+0x12>
100058c0:	2300      	movs	r3, #0
100058c2:	4698      	mov	r8, r3
100058c4:	e7f1      	b.n	100058aa <rom_funcs_lookup+0x12>
100058c6:	4640      	mov	r0, r8
100058c8:	bc80      	pop	{r7}
100058ca:	46b8      	mov	r8, r7
100058cc:	bdf0      	pop	{r4, r5, r6, r7, pc}
	...

100058d0 <__wrap___aeabi_idiv>:
100058d0:	4a12      	ldr	r2, [pc, #72]	@ (1000591c <divmod_s32s32_savestate+0x18>)
100058d2:	6f93      	ldr	r3, [r2, #120]	@ 0x78
100058d4:	089b      	lsrs	r3, r3, #2
100058d6:	d215      	bcs.n	10005904 <divmod_s32s32_savestate>

100058d8 <divmod_s32s32_unsafe>:
100058d8:	6690      	str	r0, [r2, #104]	@ 0x68
100058da:	66d1      	str	r1, [r2, #108]	@ 0x6c
100058dc:	2900      	cmp	r1, #0
100058de:	d005      	beq.n	100058ec <divmod_s32s32_unsafe+0x14>
100058e0:	e7ff      	b.n	100058e2 <divmod_s32s32_unsafe+0xa>
100058e2:	e7ff      	b.n	100058e4 <divmod_s32s32_unsafe+0xc>
100058e4:	e7ff      	b.n	100058e6 <divmod_s32s32_unsafe+0xe>
100058e6:	6f51      	ldr	r1, [r2, #116]	@ 0x74
100058e8:	6f10      	ldr	r0, [r2, #112]	@ 0x70
100058ea:	4770      	bx	lr
100058ec:	b504      	push	{r2, lr}
100058ee:	2180      	movs	r1, #128	@ 0x80
100058f0:	0609      	lsls	r1, r1, #24
100058f2:	17c2      	asrs	r2, r0, #31
100058f4:	4051      	eors	r1, r2
100058f6:	2800      	cmp	r0, #0
100058f8:	d000      	beq.n	100058fc <divmod_s32s32_unsafe+0x24>
100058fa:	43c8      	mvns	r0, r1
100058fc:	f005 fa30 	bl	1000ad60 <____aeabi_idiv0_veneer>
10005900:	2100      	movs	r1, #0
10005902:	bd04      	pop	{r2, pc}

10005904 <divmod_s32s32_savestate>:
10005904:	b5f0      	push	{r4, r5, r6, r7, lr}
10005906:	6e14      	ldr	r4, [r2, #96]	@ 0x60
10005908:	6e55      	ldr	r5, [r2, #100]	@ 0x64
1000590a:	6f57      	ldr	r7, [r2, #116]	@ 0x74
1000590c:	6f16      	ldr	r6, [r2, #112]	@ 0x70
1000590e:	f7ff ffe3 	bl	100058d8 <divmod_s32s32_unsafe>
10005912:	6614      	str	r4, [r2, #96]	@ 0x60
10005914:	6655      	str	r5, [r2, #100]	@ 0x64
10005916:	6757      	str	r7, [r2, #116]	@ 0x74
10005918:	6716      	str	r6, [r2, #112]	@ 0x70
1000591a:	bdf0      	pop	{r4, r5, r6, r7, pc}
1000591c:	d0000000 	.word	0xd0000000

10005920 <__wrap___aeabi_uidiv>:
10005920:	4a11      	ldr	r2, [pc, #68]	@ (10005968 <divmod_u32u32_savestate+0x18>)
10005922:	6f93      	ldr	r3, [r2, #120]	@ 0x78
10005924:	089b      	lsrs	r3, r3, #2
10005926:	d213      	bcs.n	10005950 <divmod_u32u32_savestate>

10005928 <divmod_u32u32_unsafe>:
10005928:	6610      	str	r0, [r2, #96]	@ 0x60
1000592a:	6651      	str	r1, [r2, #100]	@ 0x64
1000592c:	2900      	cmp	r1, #0
1000592e:	d005      	beq.n	1000593c <divmod_u32u32_unsafe+0x14>
10005930:	e7ff      	b.n	10005932 <divmod_u32u32_unsafe+0xa>
10005932:	e7ff      	b.n	10005934 <divmod_u32u32_unsafe+0xc>
10005934:	e7ff      	b.n	10005936 <divmod_u32u32_unsafe+0xe>
10005936:	6f51      	ldr	r1, [r2, #116]	@ 0x74
10005938:	6f10      	ldr	r0, [r2, #112]	@ 0x70
1000593a:	4770      	bx	lr
1000593c:	b504      	push	{r2, lr}
1000593e:	2800      	cmp	r0, #0
10005940:	d001      	beq.n	10005946 <divmod_u32u32_unsafe+0x1e>
10005942:	2000      	movs	r0, #0
10005944:	43c0      	mvns	r0, r0
10005946:	f005 fa0b 	bl	1000ad60 <____aeabi_idiv0_veneer>
1000594a:	2100      	movs	r1, #0
1000594c:	bd04      	pop	{r2, pc}
1000594e:	46c0      	nop			@ (mov r8, r8)

10005950 <divmod_u32u32_savestate>:
10005950:	b5f0      	push	{r4, r5, r6, r7, lr}
10005952:	6e14      	ldr	r4, [r2, #96]	@ 0x60
10005954:	6e55      	ldr	r5, [r2, #100]	@ 0x64
10005956:	6f57      	ldr	r7, [r2, #116]	@ 0x74
10005958:	6f16      	ldr	r6, [r2, #112]	@ 0x70
1000595a:	f7ff ffe5 	bl	10005928 <divmod_u32u32_unsafe>
1000595e:	6614      	str	r4, [r2, #96]	@ 0x60
10005960:	6655      	str	r5, [r2, #100]	@ 0x64
10005962:	6757      	str	r7, [r2, #116]	@ 0x74
10005964:	6716      	str	r6, [r2, #112]	@ 0x70
10005966:	bdf0      	pop	{r4, r5, r6, r7, pc}
10005968:	d0000000 	.word	0xd0000000

1000596c <__wrap___aeabi_ldivmod>:
1000596c:	4694      	mov	ip, r2
1000596e:	4a4a      	ldr	r2, [pc, #296]	@ (10005a98 <udiv0+0x1a>)
10005970:	6f92      	ldr	r2, [r2, #120]	@ 0x78
10005972:	0892      	lsrs	r2, r2, #2
10005974:	4662      	mov	r2, ip
10005976:	d201      	bcs.n	1000597c <divmod_s64s64_savestate>
10005978:	e028      	b.n	100059cc <divmod_s64s64_unsafe>
1000597a:	46c0      	nop			@ (mov r8, r8)

1000597c <divmod_s64s64_savestate>:
1000597c:	b5f0      	push	{r4, r5, r6, r7, lr}
1000597e:	4e46      	ldr	r6, [pc, #280]	@ (10005a98 <udiv0+0x1a>)
10005980:	6e34      	ldr	r4, [r6, #96]	@ 0x60
10005982:	6e75      	ldr	r5, [r6, #100]	@ 0x64
10005984:	6f77      	ldr	r7, [r6, #116]	@ 0x74
10005986:	6f36      	ldr	r6, [r6, #112]	@ 0x70
10005988:	f000 f820 	bl	100059cc <divmod_s64s64_unsafe>
1000598c:	4694      	mov	ip, r2
1000598e:	4a42      	ldr	r2, [pc, #264]	@ (10005a98 <udiv0+0x1a>)
10005990:	6614      	str	r4, [r2, #96]	@ 0x60
10005992:	6655      	str	r5, [r2, #100]	@ 0x64
10005994:	6757      	str	r7, [r2, #116]	@ 0x74
10005996:	6716      	str	r6, [r2, #112]	@ 0x70
10005998:	4662      	mov	r2, ip
1000599a:	bdf0      	pop	{r4, r5, r6, r7, pc}

1000599c <__wrap___aeabi_uldivmod>:
1000599c:	4694      	mov	ip, r2
1000599e:	4a3e      	ldr	r2, [pc, #248]	@ (10005a98 <udiv0+0x1a>)
100059a0:	6f92      	ldr	r2, [r2, #120]	@ 0x78
100059a2:	0892      	lsrs	r2, r2, #2
100059a4:	4662      	mov	r2, ip
100059a6:	d201      	bcs.n	100059ac <divmod_u64u64_savestate>
100059a8:	e054      	b.n	10005a54 <divmod_u64u64_unsafe>
100059aa:	46c0      	nop			@ (mov r8, r8)

100059ac <divmod_u64u64_savestate>:
100059ac:	b5f0      	push	{r4, r5, r6, r7, lr}
100059ae:	4e3a      	ldr	r6, [pc, #232]	@ (10005a98 <udiv0+0x1a>)
100059b0:	6e34      	ldr	r4, [r6, #96]	@ 0x60
100059b2:	6e75      	ldr	r5, [r6, #100]	@ 0x64
100059b4:	6f77      	ldr	r7, [r6, #116]	@ 0x74
100059b6:	6f36      	ldr	r6, [r6, #112]	@ 0x70
100059b8:	f000 f84c 	bl	10005a54 <divmod_u64u64_unsafe>
100059bc:	4694      	mov	ip, r2
100059be:	4a36      	ldr	r2, [pc, #216]	@ (10005a98 <udiv0+0x1a>)
100059c0:	6614      	str	r4, [r2, #96]	@ 0x60
100059c2:	6655      	str	r5, [r2, #100]	@ 0x64
100059c4:	6757      	str	r7, [r2, #116]	@ 0x74
100059c6:	6716      	str	r6, [r2, #112]	@ 0x70
100059c8:	4662      	mov	r2, ip
100059ca:	bdf0      	pop	{r4, r5, r6, r7, pc}

100059cc <divmod_s64s64_unsafe>:
100059cc:	2b00      	cmp	r3, #0
100059ce:	db24      	blt.n	10005a1a <l42_1+0x26>
100059d0:	d011      	beq.n	100059f6 <l42_1+0x2>
100059d2:	2900      	cmp	r1, #0
100059d4:	da3e      	bge.n	10005a54 <divmod_u64u64_unsafe>
100059d6:	b500      	push	{lr}
100059d8:	43c9      	mvns	r1, r1
100059da:	4240      	negs	r0, r0
100059dc:	d100      	bne.n	100059e0 <l40_1>
100059de:	3101      	adds	r1, #1

100059e0 <l40_1>:
100059e0:	f000 f838 	bl	10005a54 <divmod_u64u64_unsafe>
100059e4:	43c9      	mvns	r1, r1
100059e6:	4240      	negs	r0, r0
100059e8:	d100      	bne.n	100059ec <l41_1>
100059ea:	3101      	adds	r1, #1

100059ec <l41_1>:
100059ec:	43db      	mvns	r3, r3
100059ee:	4252      	negs	r2, r2
100059f0:	d100      	bne.n	100059f4 <l42_1>
100059f2:	3301      	adds	r3, #1

100059f4 <l42_1>:
100059f4:	bd00      	pop	{pc}
100059f6:	2a00      	cmp	r2, #0
100059f8:	d1eb      	bne.n	100059d2 <divmod_s64s64_unsafe+0x6>
100059fa:	2800      	cmp	r0, #0
100059fc:	d101      	bne.n	10005a02 <l42_1+0xe>
100059fe:	2900      	cmp	r1, #0
10005a00:	d005      	beq.n	10005a0e <l42_1+0x1a>
10005a02:	2000      	movs	r0, #0
10005a04:	0fc9      	lsrs	r1, r1, #31
10005a06:	07c9      	lsls	r1, r1, #31
10005a08:	d101      	bne.n	10005a0e <l42_1+0x1a>
10005a0a:	43c0      	mvns	r0, r0
10005a0c:	0841      	lsrs	r1, r0, #1
10005a0e:	b500      	push	{lr}
10005a10:	f005 f996 	bl	1000ad40 <____aeabi_ldiv0_veneer>
10005a14:	2200      	movs	r2, #0
10005a16:	2300      	movs	r3, #0
10005a18:	bd00      	pop	{pc}
10005a1a:	b500      	push	{lr}
10005a1c:	2900      	cmp	r1, #0
10005a1e:	db0a      	blt.n	10005a36 <l44_1+0x2>
10005a20:	43db      	mvns	r3, r3
10005a22:	4252      	negs	r2, r2
10005a24:	d100      	bne.n	10005a28 <l43_1>
10005a26:	3301      	adds	r3, #1

10005a28 <l43_1>:
10005a28:	f000 f814 	bl	10005a54 <divmod_u64u64_unsafe>
10005a2c:	43c9      	mvns	r1, r1
10005a2e:	4240      	negs	r0, r0
10005a30:	d100      	bne.n	10005a34 <l44_1>
10005a32:	3101      	adds	r1, #1

10005a34 <l44_1>:
10005a34:	bd00      	pop	{pc}
10005a36:	43c9      	mvns	r1, r1
10005a38:	4240      	negs	r0, r0
10005a3a:	d100      	bne.n	10005a3e <l45_1>
10005a3c:	3101      	adds	r1, #1

10005a3e <l45_1>:
10005a3e:	43db      	mvns	r3, r3
10005a40:	4252      	negs	r2, r2
10005a42:	d100      	bne.n	10005a46 <l46_1>
10005a44:	3301      	adds	r3, #1

10005a46 <l46_1>:
10005a46:	f000 f805 	bl	10005a54 <divmod_u64u64_unsafe>
10005a4a:	43db      	mvns	r3, r3
10005a4c:	4252      	negs	r2, r2
10005a4e:	d100      	bne.n	10005a52 <l47_1>
10005a50:	3301      	adds	r3, #1

10005a52 <l47_1>:
10005a52:	bd00      	pop	{pc}

10005a54 <divmod_u64u64_unsafe>:
10005a54:	2900      	cmp	r1, #0
10005a56:	d123      	bne.n	10005aa0 <y64>
10005a58:	2b00      	cmp	r3, #0
10005a5a:	d118      	bne.n	10005a8e <udiv0+0x10>
10005a5c:	2a00      	cmp	r2, #0
10005a5e:	d00c      	beq.n	10005a7a <divmod_u64u64_unsafe+0x26>
10005a60:	46bc      	mov	ip, r7
10005a62:	4f0d      	ldr	r7, [pc, #52]	@ (10005a98 <udiv0+0x1a>)
10005a64:	6638      	str	r0, [r7, #96]	@ 0x60
10005a66:	667a      	str	r2, [r7, #100]	@ 0x64
10005a68:	2100      	movs	r1, #0
10005a6a:	2300      	movs	r3, #0
10005a6c:	e7ff      	b.n	10005a6e <divmod_u64u64_unsafe+0x1a>
10005a6e:	e7ff      	b.n	10005a70 <divmod_u64u64_unsafe+0x1c>
10005a70:	e7ff      	b.n	10005a72 <divmod_u64u64_unsafe+0x1e>
10005a72:	6f7a      	ldr	r2, [r7, #116]	@ 0x74
10005a74:	6f38      	ldr	r0, [r7, #112]	@ 0x70
10005a76:	4667      	mov	r7, ip
10005a78:	4770      	bx	lr
10005a7a:	2800      	cmp	r0, #0
10005a7c:	d001      	beq.n	10005a82 <udiv0+0x4>

10005a7e <udiv0>:
10005a7e:	4807      	ldr	r0, [pc, #28]	@ (10005a9c <udiv0+0x1e>)
10005a80:	0001      	movs	r1, r0
10005a82:	b500      	push	{lr}
10005a84:	f005 f95c 	bl	1000ad40 <____aeabi_ldiv0_veneer>
10005a88:	2200      	movs	r2, #0
10005a8a:	2300      	movs	r3, #0
10005a8c:	bd00      	pop	{pc}
10005a8e:	0002      	movs	r2, r0
10005a90:	000b      	movs	r3, r1
10005a92:	2000      	movs	r0, #0
10005a94:	2100      	movs	r1, #0
10005a96:	4770      	bx	lr
10005a98:	d0000000 	.word	0xd0000000
10005a9c:	ffffffff 	.word	0xffffffff

10005aa0 <y64>:
10005aa0:	2b00      	cmp	r3, #0
10005aa2:	d000      	beq.n	10005aa6 <y64+0x6>
10005aa4:	e0bf      	b.n	10005c26 <y64_x48>
10005aa6:	0c13      	lsrs	r3, r2, #16
10005aa8:	d128      	bne.n	10005afc <y64_x32>
10005aaa:	2a00      	cmp	r2, #0
10005aac:	d0e7      	beq.n	10005a7e <udiv0>
10005aae:	b480      	push	{r7}
10005ab0:	4f11      	ldr	r7, [pc, #68]	@ (10005af8 <y64+0x58>)
10005ab2:	6639      	str	r1, [r7, #96]	@ 0x60
10005ab4:	667a      	str	r2, [r7, #100]	@ 0x64
10005ab6:	e7ff      	b.n	10005ab8 <y64+0x18>
10005ab8:	e7ff      	b.n	10005aba <y64+0x1a>
10005aba:	b430      	push	{r4, r5}
10005abc:	0c04      	lsrs	r4, r0, #16
10005abe:	6f7b      	ldr	r3, [r7, #116]	@ 0x74
10005ac0:	6f39      	ldr	r1, [r7, #112]	@ 0x70
10005ac2:	041b      	lsls	r3, r3, #16
10005ac4:	4323      	orrs	r3, r4
10005ac6:	663b      	str	r3, [r7, #96]	@ 0x60
10005ac8:	667a      	str	r2, [r7, #100]	@ 0x64
10005aca:	e7ff      	b.n	10005acc <y64+0x2c>
10005acc:	e7ff      	b.n	10005ace <y64+0x2e>
10005ace:	e7ff      	b.n	10005ad0 <y64+0x30>
10005ad0:	46c0      	nop			@ (mov r8, r8)
10005ad2:	b284      	uxth	r4, r0
10005ad4:	6f7b      	ldr	r3, [r7, #116]	@ 0x74
10005ad6:	6f3d      	ldr	r5, [r7, #112]	@ 0x70
10005ad8:	041b      	lsls	r3, r3, #16
10005ada:	4323      	orrs	r3, r4
10005adc:	663b      	str	r3, [r7, #96]	@ 0x60
10005ade:	667a      	str	r2, [r7, #100]	@ 0x64
10005ae0:	e7ff      	b.n	10005ae2 <y64+0x42>
10005ae2:	e7ff      	b.n	10005ae4 <y64+0x44>
10005ae4:	46c0      	nop			@ (mov r8, r8)
10005ae6:	2300      	movs	r3, #0
10005ae8:	042c      	lsls	r4, r5, #16
10005aea:	0c2d      	lsrs	r5, r5, #16
10005aec:	6f7a      	ldr	r2, [r7, #116]	@ 0x74
10005aee:	6f38      	ldr	r0, [r7, #112]	@ 0x70
10005af0:	1900      	adds	r0, r0, r4
10005af2:	4169      	adcs	r1, r5
10005af4:	bcb0      	pop	{r4, r5, r7}
10005af6:	4770      	bx	lr
10005af8:	d0000000 	.word	0xd0000000

10005afc <y64_x32>:
10005afc:	b5f0      	push	{r4, r5, r6, r7, lr}
10005afe:	4694      	mov	ip, r2
10005b00:	2500      	movs	r5, #0
10005b02:	0e14      	lsrs	r4, r2, #24
10005b04:	d101      	bne.n	10005b0a <y64_x32+0xe>
10005b06:	0212      	lsls	r2, r2, #8
10005b08:	3508      	adds	r5, #8
10005b0a:	0f14      	lsrs	r4, r2, #28
10005b0c:	d101      	bne.n	10005b12 <y64_x32+0x16>
10005b0e:	0112      	lsls	r2, r2, #4
10005b10:	3504      	adds	r5, #4
10005b12:	0f94      	lsrs	r4, r2, #30
10005b14:	d101      	bne.n	10005b1a <y64_x32+0x1e>
10005b16:	0092      	lsls	r2, r2, #2
10005b18:	3502      	adds	r5, #2
10005b1a:	0fd4      	lsrs	r4, r2, #31
10005b1c:	d101      	bne.n	10005b22 <y64_x32+0x26>
10005b1e:	0052      	lsls	r2, r2, #1
10005b20:	3501      	adds	r5, #1
10005b22:	0bd4      	lsrs	r4, r2, #15
10005b24:	3401      	adds	r4, #1
10005b26:	4f25      	ldr	r7, [pc, #148]	@ (10005bbc <y64_x32+0xc0>)
10005b28:	667c      	str	r4, [r7, #100]	@ 0x64
10005b2a:	4c25      	ldr	r4, [pc, #148]	@ (10005bc0 <y64_x32+0xc4>)
10005b2c:	663c      	str	r4, [r7, #96]	@ 0x60
10005b2e:	0c0e      	lsrs	r6, r1, #16
10005b30:	b293      	uxth	r3, r2
10005b32:	e7ff      	b.n	10005b34 <y64_x32+0x38>
10005b34:	e7ff      	b.n	10005b36 <y64_x32+0x3a>
10005b36:	e7ff      	b.n	10005b38 <y64_x32+0x3c>
10005b38:	6f3c      	ldr	r4, [r7, #112]	@ 0x70
10005b3a:	4366      	muls	r6, r4
10005b3c:	0c36      	lsrs	r6, r6, #16
10005b3e:	0377      	lsls	r7, r6, #13
10005b40:	46be      	mov	lr, r7
10005b42:	4373      	muls	r3, r6
10005b44:	0bdf      	lsrs	r7, r3, #15
10005b46:	045b      	lsls	r3, r3, #17
10005b48:	1ac0      	subs	r0, r0, r3
10005b4a:	41b9      	sbcs	r1, r7
10005b4c:	0c13      	lsrs	r3, r2, #16
10005b4e:	4373      	muls	r3, r6
10005b50:	18db      	adds	r3, r3, r3
10005b52:	1ac9      	subs	r1, r1, r3
10005b54:	08ce      	lsrs	r6, r1, #3
10005b56:	4366      	muls	r6, r4
10005b58:	0c36      	lsrs	r6, r6, #16
10005b5a:	44b6      	add	lr, r6
10005b5c:	b293      	uxth	r3, r2
10005b5e:	4373      	muls	r3, r6
10005b60:	0f1f      	lsrs	r7, r3, #28
10005b62:	011b      	lsls	r3, r3, #4
10005b64:	1ac0      	subs	r0, r0, r3
10005b66:	41b9      	sbcs	r1, r7
10005b68:	0c13      	lsrs	r3, r2, #16
10005b6a:	4373      	muls	r3, r6
10005b6c:	0b1f      	lsrs	r7, r3, #12
10005b6e:	051b      	lsls	r3, r3, #20
10005b70:	1ac0      	subs	r0, r0, r3
10005b72:	41b9      	sbcs	r1, r7
10005b74:	0d86      	lsrs	r6, r0, #22
10005b76:	028f      	lsls	r7, r1, #10
10005b78:	433e      	orrs	r6, r7
10005b7a:	4366      	muls	r6, r4
10005b7c:	0c36      	lsrs	r6, r6, #16
10005b7e:	2d09      	cmp	r5, #9
10005b80:	db24      	blt.n	10005bcc <last0>
10005b82:	0a52      	lsrs	r2, r2, #9
10005b84:	4372      	muls	r2, r6
10005b86:	1a80      	subs	r0, r0, r2
10005b88:	0377      	lsls	r7, r6, #13
10005b8a:	0a46      	lsrs	r6, r0, #9
10005b8c:	4366      	muls	r6, r4
10005b8e:	0c36      	lsrs	r6, r6, #16
10005b90:	2316      	movs	r3, #22
10005b92:	1b5b      	subs	r3, r3, r5
10005b94:	40de      	lsrs	r6, r3
10005b96:	40df      	lsrs	r7, r3
10005b98:	19bf      	adds	r7, r7, r6
10005b9a:	4664      	mov	r4, ip
10005b9c:	4366      	muls	r6, r4
10005b9e:	1b82      	subs	r2, r0, r6
10005ba0:	4670      	mov	r0, lr
10005ba2:	3504      	adds	r5, #4
10005ba4:	3306      	adds	r3, #6
10005ba6:	0001      	movs	r1, r0
10005ba8:	40d9      	lsrs	r1, r3
10005baa:	40a8      	lsls	r0, r5
10005bac:	19c0      	adds	r0, r0, r7
10005bae:	d300      	bcc.n	10005bb2 <y64_x32+0xb6>
10005bb0:	3101      	adds	r1, #1
10005bb2:	42a2      	cmp	r2, r4
10005bb4:	d206      	bcs.n	10005bc4 <y64_x32+0xc8>
10005bb6:	2300      	movs	r3, #0
10005bb8:	bdf0      	pop	{r4, r5, r6, r7, pc}
10005bba:	0000      	.short	0x0000
10005bbc:	d0000000 	.word	0xd0000000
10005bc0:	ffffffff 	.word	0xffffffff
10005bc4:	1b12      	subs	r2, r2, r4
10005bc6:	3001      	adds	r0, #1
10005bc8:	d3f3      	bcc.n	10005bb2 <y64_x32+0xb6>
10005bca:	e7f1      	b.n	10005bb0 <y64_x32+0xb4>

10005bcc <last0>:
10005bcc:	2709      	movs	r7, #9
10005bce:	1b7f      	subs	r7, r7, r5
10005bd0:	40fe      	lsrs	r6, r7
10005bd2:	4664      	mov	r4, ip
10005bd4:	b2a2      	uxth	r2, r4
10005bd6:	4372      	muls	r2, r6
10005bd8:	1a80      	subs	r0, r0, r2
10005bda:	d200      	bcs.n	10005bde <last0+0x12>
10005bdc:	3901      	subs	r1, #1
10005bde:	0c22      	lsrs	r2, r4, #16
10005be0:	4372      	muls	r2, r6
10005be2:	0c13      	lsrs	r3, r2, #16
10005be4:	0412      	lsls	r2, r2, #16
10005be6:	1a82      	subs	r2, r0, r2
10005be8:	4199      	sbcs	r1, r3
10005bea:	000b      	movs	r3, r1
10005bec:	4670      	mov	r0, lr
10005bee:	3504      	adds	r5, #4
10005bf0:	3713      	adds	r7, #19
10005bf2:	0001      	movs	r1, r0
10005bf4:	40f9      	lsrs	r1, r7
10005bf6:	40a8      	lsls	r0, r5
10005bf8:	1980      	adds	r0, r0, r6
10005bfa:	d300      	bcc.n	10005bfe <last0+0x32>
10005bfc:	3101      	adds	r1, #1
10005bfe:	2b00      	cmp	r3, #0
10005c00:	d102      	bne.n	10005c08 <last0+0x3c>
10005c02:	42a2      	cmp	r2, r4
10005c04:	d20a      	bcs.n	10005c1c <last0+0x50>
10005c06:	bdf0      	pop	{r4, r5, r6, r7, pc}
10005c08:	3001      	adds	r0, #1
10005c0a:	d300      	bcc.n	10005c0e <last0+0x42>
10005c0c:	3101      	adds	r1, #1
10005c0e:	1b12      	subs	r2, r2, r4
10005c10:	d2fa      	bcs.n	10005c08 <last0+0x3c>
10005c12:	3b01      	subs	r3, #1
10005c14:	d1f8      	bne.n	10005c08 <last0+0x3c>
10005c16:	42a2      	cmp	r2, r4
10005c18:	d200      	bcs.n	10005c1c <last0+0x50>
10005c1a:	bdf0      	pop	{r4, r5, r6, r7, pc}
10005c1c:	3001      	adds	r0, #1
10005c1e:	d300      	bcc.n	10005c22 <last0+0x56>
10005c20:	3101      	adds	r1, #1
10005c22:	1b12      	subs	r2, r2, r4
10005c24:	e7f7      	b.n	10005c16 <last0+0x4a>

10005c26 <y64_x48>:
10005c26:	b5f0      	push	{r4, r5, r6, r7, lr}
10005c28:	0c1c      	lsrs	r4, r3, #16
10005c2a:	d000      	beq.n	10005c2e <y64_x48+0x8>
10005c2c:	e080      	b.n	10005d30 <y64_x64>
10005c2e:	b40c      	push	{r2, r3}
10005c30:	2500      	movs	r5, #0
10005c32:	0a1c      	lsrs	r4, r3, #8
10005c34:	d104      	bne.n	10005c40 <y64_x48+0x1a>
10005c36:	021b      	lsls	r3, r3, #8
10005c38:	0e16      	lsrs	r6, r2, #24
10005c3a:	4333      	orrs	r3, r6
10005c3c:	0212      	lsls	r2, r2, #8
10005c3e:	3508      	adds	r5, #8
10005c40:	0b1c      	lsrs	r4, r3, #12
10005c42:	d104      	bne.n	10005c4e <y64_x48+0x28>
10005c44:	011b      	lsls	r3, r3, #4
10005c46:	0f16      	lsrs	r6, r2, #28
10005c48:	4333      	orrs	r3, r6
10005c4a:	0112      	lsls	r2, r2, #4
10005c4c:	3504      	adds	r5, #4
10005c4e:	0b9c      	lsrs	r4, r3, #14
10005c50:	d104      	bne.n	10005c5c <y64_x48+0x36>
10005c52:	009b      	lsls	r3, r3, #2
10005c54:	0f96      	lsrs	r6, r2, #30
10005c56:	4333      	orrs	r3, r6
10005c58:	0092      	lsls	r2, r2, #2
10005c5a:	3502      	adds	r5, #2
10005c5c:	0bdc      	lsrs	r4, r3, #15
10005c5e:	d102      	bne.n	10005c66 <y64_x48+0x40>
10005c60:	1892      	adds	r2, r2, r2
10005c62:	415b      	adcs	r3, r3
10005c64:	3501      	adds	r5, #1
10005c66:	001c      	movs	r4, r3
10005c68:	1897      	adds	r7, r2, r2
10005c6a:	4164      	adcs	r4, r4
10005c6c:	3401      	adds	r4, #1
10005c6e:	4f46      	ldr	r7, [pc, #280]	@ (10005d88 <y64_x64+0x58>)
10005c70:	667c      	str	r4, [r7, #100]	@ 0x64
10005c72:	4c46      	ldr	r4, [pc, #280]	@ (10005d8c <y64_x64+0x5c>)
10005c74:	663c      	str	r4, [r7, #96]	@ 0x60
10005c76:	0c0e      	lsrs	r6, r1, #16
10005c78:	e7ff      	b.n	10005c7a <y64_x48+0x54>
10005c7a:	e7ff      	b.n	10005c7c <y64_x48+0x56>
10005c7c:	e7ff      	b.n	10005c7e <y64_x48+0x58>
10005c7e:	46c0      	nop			@ (mov r8, r8)
10005c80:	6f3c      	ldr	r4, [r7, #112]	@ 0x70
10005c82:	4366      	muls	r6, r4
10005c84:	0c36      	lsrs	r6, r6, #16
10005c86:	0377      	lsls	r7, r6, #13
10005c88:	46be      	mov	lr, r7
10005c8a:	b297      	uxth	r7, r2
10005c8c:	4377      	muls	r7, r6
10005c8e:	1bc0      	subs	r0, r0, r7
10005c90:	d200      	bcs.n	10005c94 <y64_x48+0x6e>
10005c92:	3901      	subs	r1, #1
10005c94:	1bc0      	subs	r0, r0, r7
10005c96:	d200      	bcs.n	10005c9a <y64_x48+0x74>
10005c98:	3901      	subs	r1, #1
10005c9a:	b29f      	uxth	r7, r3
10005c9c:	4377      	muls	r7, r6
10005c9e:	1bc9      	subs	r1, r1, r7
10005ca0:	1bc9      	subs	r1, r1, r7
10005ca2:	0c17      	lsrs	r7, r2, #16
10005ca4:	4377      	muls	r7, r6
10005ca6:	047e      	lsls	r6, r7, #17
10005ca8:	0bff      	lsrs	r7, r7, #15
10005caa:	1b80      	subs	r0, r0, r6
10005cac:	41b9      	sbcs	r1, r7
10005cae:	08ce      	lsrs	r6, r1, #3
10005cb0:	4366      	muls	r6, r4
10005cb2:	0c36      	lsrs	r6, r6, #16
10005cb4:	2d0c      	cmp	r5, #12
10005cb6:	db33      	blt.n	10005d20 <last1>
10005cb8:	44b6      	add	lr, r6
10005cba:	0b12      	lsrs	r2, r2, #12
10005cbc:	051f      	lsls	r7, r3, #20
10005cbe:	433a      	orrs	r2, r7
10005cc0:	0b1b      	lsrs	r3, r3, #12
10005cc2:	b297      	uxth	r7, r2
10005cc4:	4377      	muls	r7, r6
10005cc6:	1bc0      	subs	r0, r0, r7
10005cc8:	d200      	bcs.n	10005ccc <y64_x48+0xa6>
10005cca:	3901      	subs	r1, #1
10005ccc:	b29f      	uxth	r7, r3
10005cce:	4377      	muls	r7, r6
10005cd0:	1bc9      	subs	r1, r1, r7
10005cd2:	0c17      	lsrs	r7, r2, #16
10005cd4:	4377      	muls	r7, r6
10005cd6:	043e      	lsls	r6, r7, #16
10005cd8:	0c3f      	lsrs	r7, r7, #16
10005cda:	1b80      	subs	r0, r0, r6
10005cdc:	41b9      	sbcs	r1, r7
10005cde:	0d86      	lsrs	r6, r0, #22
10005ce0:	028f      	lsls	r7, r1, #10
10005ce2:	433e      	orrs	r6, r7
10005ce4:	4366      	muls	r6, r4
10005ce6:	2729      	movs	r7, #41	@ 0x29
10005ce8:	1b7f      	subs	r7, r7, r5
10005cea:	40fe      	lsrs	r6, r7
10005cec:	3d0c      	subs	r5, #12
10005cee:	4677      	mov	r7, lr
10005cf0:	40af      	lsls	r7, r5
10005cf2:	19bf      	adds	r7, r7, r6
10005cf4:	bc30      	pop	{r4, r5}
10005cf6:	b2a2      	uxth	r2, r4
10005cf8:	b2ab      	uxth	r3, r5
10005cfa:	4372      	muls	r2, r6
10005cfc:	4373      	muls	r3, r6
10005cfe:	1a80      	subs	r0, r0, r2
10005d00:	4199      	sbcs	r1, r3
10005d02:	0c22      	lsrs	r2, r4, #16
10005d04:	4372      	muls	r2, r6
10005d06:	0c13      	lsrs	r3, r2, #16
10005d08:	0412      	lsls	r2, r2, #16
10005d0a:	1a80      	subs	r0, r0, r2
10005d0c:	4199      	sbcs	r1, r3
10005d0e:	0002      	movs	r2, r0
10005d10:	000b      	movs	r3, r1
10005d12:	3701      	adds	r7, #1
10005d14:	1b00      	subs	r0, r0, r4
10005d16:	41a9      	sbcs	r1, r5
10005d18:	d2f9      	bcs.n	10005d0e <y64_x48+0xe8>
10005d1a:	1e78      	subs	r0, r7, #1
10005d1c:	2100      	movs	r1, #0
10005d1e:	bdf0      	pop	{r4, r5, r6, r7, pc}

10005d20 <last1>:
10005d20:	270c      	movs	r7, #12
10005d22:	1b7f      	subs	r7, r7, r5
10005d24:	40fe      	lsrs	r6, r7
10005d26:	4677      	mov	r7, lr
10005d28:	0b7f      	lsrs	r7, r7, #13
10005d2a:	40af      	lsls	r7, r5
10005d2c:	19ff      	adds	r7, r7, r7
10005d2e:	e7e0      	b.n	10005cf2 <y64_x48+0xcc>

10005d30 <y64_x64>:
10005d30:	2400      	movs	r4, #0
10005d32:	1c5d      	adds	r5, r3, #1
10005d34:	d007      	beq.n	10005d46 <y64_x64+0x16>
10005d36:	4f14      	ldr	r7, [pc, #80]	@ (10005d88 <y64_x64+0x58>)
10005d38:	667d      	str	r5, [r7, #100]	@ 0x64
10005d3a:	6639      	str	r1, [r7, #96]	@ 0x60
10005d3c:	e7ff      	b.n	10005d3e <y64_x64+0xe>
10005d3e:	e7ff      	b.n	10005d40 <y64_x64+0x10>
10005d40:	e7ff      	b.n	10005d42 <y64_x64+0x12>
10005d42:	e7ff      	b.n	10005d44 <y64_x64+0x14>
10005d44:	6f3c      	ldr	r4, [r7, #112]	@ 0x70
10005d46:	b295      	uxth	r5, r2
10005d48:	b29e      	uxth	r6, r3
10005d4a:	4365      	muls	r5, r4
10005d4c:	4366      	muls	r6, r4
10005d4e:	1b40      	subs	r0, r0, r5
10005d50:	41b1      	sbcs	r1, r6
10005d52:	0c15      	lsrs	r5, r2, #16
10005d54:	0c1e      	lsrs	r6, r3, #16
10005d56:	4365      	muls	r5, r4
10005d58:	4366      	muls	r6, r4
10005d5a:	0436      	lsls	r6, r6, #16
10005d5c:	0c2f      	lsrs	r7, r5, #16
10005d5e:	433e      	orrs	r6, r7
10005d60:	042d      	lsls	r5, r5, #16
10005d62:	1b40      	subs	r0, r0, r5
10005d64:	41b1      	sbcs	r1, r6
10005d66:	4299      	cmp	r1, r3
10005d68:	d204      	bcs.n	10005d74 <y64_x64+0x44>
10005d6a:	0002      	movs	r2, r0
10005d6c:	000b      	movs	r3, r1
10005d6e:	0020      	movs	r0, r4
10005d70:	2100      	movs	r1, #0
10005d72:	bdf0      	pop	{r4, r5, r6, r7, pc}
10005d74:	d101      	bne.n	10005d7a <y64_x64+0x4a>
10005d76:	4290      	cmp	r0, r2
10005d78:	d3f7      	bcc.n	10005d6a <y64_x64+0x3a>
10005d7a:	1a80      	subs	r0, r0, r2
10005d7c:	4199      	sbcs	r1, r3
10005d7e:	3401      	adds	r4, #1
10005d80:	4299      	cmp	r1, r3
10005d82:	d3f2      	bcc.n	10005d6a <y64_x64+0x3a>
10005d84:	e7f6      	b.n	10005d74 <y64_x64+0x44>
10005d86:	0000      	.short	0x0000
10005d88:	d0000000 	.word	0xd0000000
10005d8c:	ffffffff 	.word	0xffffffff

10005d90 <__wrap___aeabi_drsub>:
10005d90:	4048      	eors	r0, r1
10005d92:	4041      	eors	r1, r0
10005d94:	4048      	eors	r0, r1

10005d96 <__wrap___aeabi_dsub>:
10005d96:	b418      	push	{r3, r4}
10005d98:	4b1b      	ldr	r3, [pc, #108]	@ (10005e08 <__wrap___aeabi_dmul+0x12>)
10005d9a:	685b      	ldr	r3, [r3, #4]
10005d9c:	46fc      	mov	ip, pc
10005d9e:	9301      	str	r3, [sp, #4]
10005da0:	bd08      	pop	{r3, pc}
10005da2:	df04      	.short	0xdf04
10005da4:	100067c7 	.word	0x100067c7

10005da8 <__wrap___aeabi_dadd>:
10005da8:	b418      	push	{r3, r4}
10005daa:	4b17      	ldr	r3, [pc, #92]	@ (10005e08 <__wrap___aeabi_dmul+0x12>)
10005dac:	681b      	ldr	r3, [r3, #0]
10005dae:	46fc      	mov	ip, pc
10005db0:	9301      	str	r3, [sp, #4]
10005db2:	bd08      	pop	{r3, pc}
10005db4:	67d1df00 	.word	0x67d1df00
10005db8:	1000      	.short	0x1000

10005dba <__wrap___aeabi_ddiv>:
10005dba:	4694      	mov	ip, r2
10005dbc:	4a13      	ldr	r2, [pc, #76]	@ (10005e0c <__wrap___aeabi_dmul+0x16>)
10005dbe:	6f92      	ldr	r2, [r2, #120]	@ 0x78
10005dc0:	0892      	lsrs	r2, r2, #2
10005dc2:	d209      	bcs.n	10005dd8 <ddiv_save_state>
10005dc4:	4662      	mov	r2, ip

10005dc6 <ddiv_shim_call>:
10005dc6:	b418      	push	{r3, r4}
10005dc8:	4b0f      	ldr	r3, [pc, #60]	@ (10005e08 <__wrap___aeabi_dmul+0x12>)
10005dca:	68db      	ldr	r3, [r3, #12]
10005dcc:	46fc      	mov	ip, pc
10005dce:	9301      	str	r3, [sp, #4]
10005dd0:	bd08      	pop	{r3, pc}
10005dd2:	df0c      	.short	0xdf0c
10005dd4:	10006a89 	.word	0x10006a89

10005dd8 <ddiv_save_state>:
10005dd8:	4a0c      	ldr	r2, [pc, #48]	@ (10005e0c <__wrap___aeabi_dmul+0x16>)
10005dda:	b5f0      	push	{r4, r5, r6, r7, lr}
10005ddc:	6e14      	ldr	r4, [r2, #96]	@ 0x60
10005dde:	6e55      	ldr	r5, [r2, #100]	@ 0x64
10005de0:	6f57      	ldr	r7, [r2, #116]	@ 0x74
10005de2:	6f16      	ldr	r6, [r2, #112]	@ 0x70
10005de4:	4662      	mov	r2, ip
10005de6:	f7ff ffee 	bl	10005dc6 <ddiv_shim_call>
10005dea:	4a08      	ldr	r2, [pc, #32]	@ (10005e0c <__wrap___aeabi_dmul+0x16>)
10005dec:	6614      	str	r4, [r2, #96]	@ 0x60
10005dee:	6655      	str	r5, [r2, #100]	@ 0x64
10005df0:	6757      	str	r7, [r2, #116]	@ 0x74
10005df2:	6716      	str	r6, [r2, #112]	@ 0x70
10005df4:	bdf0      	pop	{r4, r5, r6, r7, pc}

10005df6 <__wrap___aeabi_dmul>:
10005df6:	b418      	push	{r3, r4}
10005df8:	4b03      	ldr	r3, [pc, #12]	@ (10005e08 <__wrap___aeabi_dmul+0x12>)
10005dfa:	689b      	ldr	r3, [r3, #8]
10005dfc:	46fc      	mov	ip, pc
10005dfe:	9301      	str	r3, [sp, #4]
10005e00:	bd08      	pop	{r3, pc}
10005e02:	df08      	.short	0xdf08
10005e04:	1000692d 	.word	0x1000692d
10005e08:	20002310 	.word	0x20002310
10005e0c:	d0000000 	.word	0xd0000000

10005e10 <__wrap___aeabi_cdrcmple>:
10005e10:	b5ff      	push	{r0, r1, r2, r3, r4, r5, r6, r7, lr}
10005e12:	4050      	eors	r0, r2
10005e14:	4042      	eors	r2, r0
10005e16:	4050      	eors	r0, r2
10005e18:	4059      	eors	r1, r3
10005e1a:	404b      	eors	r3, r1
10005e1c:	4059      	eors	r1, r3
10005e1e:	e000      	b.n	10005e22 <__aeabi_dfcmple_guts>

10005e20 <__wrap___aeabi_cdcmpeq>:
10005e20:	b5ff      	push	{r0, r1, r2, r3, r4, r5, r6, r7, lr}

10005e22 <__aeabi_dfcmple_guts>:
10005e22:	4f15      	ldr	r7, [pc, #84]	@ (10005e78 <__aeabi_dfcmple_guts+0x56>)
10005e24:	004c      	lsls	r4, r1, #1
10005e26:	0d64      	lsrs	r4, r4, #21
10005e28:	d003      	beq.n	10005e32 <__aeabi_dfcmple_guts+0x10>
10005e2a:	42bc      	cmp	r4, r7
10005e2c:	d104      	bne.n	10005e38 <__aeabi_dfcmple_guts+0x16>
10005e2e:	030c      	lsls	r4, r1, #12
10005e30:	d814      	bhi.n	10005e5c <__aeabi_dfcmple_guts+0x3a>
10005e32:	2000      	movs	r0, #0
10005e34:	0d09      	lsrs	r1, r1, #20
10005e36:	0509      	lsls	r1, r1, #20
10005e38:	005c      	lsls	r4, r3, #1
10005e3a:	0d64      	lsrs	r4, r4, #21
10005e3c:	d003      	beq.n	10005e46 <__aeabi_dfcmple_guts+0x24>
10005e3e:	42bc      	cmp	r4, r7
10005e40:	d104      	bne.n	10005e4c <__aeabi_dfcmple_guts+0x2a>
10005e42:	031c      	lsls	r4, r3, #12
10005e44:	d80a      	bhi.n	10005e5c <__aeabi_dfcmple_guts+0x3a>
10005e46:	2200      	movs	r2, #0
10005e48:	0d1b      	lsrs	r3, r3, #20
10005e4a:	051b      	lsls	r3, r3, #20
10005e4c:	2601      	movs	r6, #1
10005e4e:	404b      	eors	r3, r1
10005e50:	d409      	bmi.n	10005e66 <__aeabi_dfcmple_guts+0x44>
10005e52:	404b      	eors	r3, r1
10005e54:	d503      	bpl.n	10005e5e <__aeabi_dfcmple_guts+0x3c>
10005e56:	428b      	cmp	r3, r1
10005e58:	d100      	bne.n	10005e5c <__aeabi_dfcmple_guts+0x3a>
10005e5a:	4282      	cmp	r2, r0
10005e5c:	bdff      	pop	{r0, r1, r2, r3, r4, r5, r6, r7, pc}
10005e5e:	4299      	cmp	r1, r3
10005e60:	d1fc      	bne.n	10005e5c <__aeabi_dfcmple_guts+0x3a>
10005e62:	4290      	cmp	r0, r2
10005e64:	bdff      	pop	{r0, r1, r2, r3, r4, r5, r6, r7, pc}
10005e66:	430b      	orrs	r3, r1
10005e68:	18db      	adds	r3, r3, r3
10005e6a:	4303      	orrs	r3, r0
10005e6c:	4313      	orrs	r3, r2
10005e6e:	d0f5      	beq.n	10005e5c <__aeabi_dfcmple_guts+0x3a>
10005e70:	43c9      	mvns	r1, r1
10005e72:	1849      	adds	r1, r1, r1
10005e74:	bdff      	pop	{r0, r1, r2, r3, r4, r5, r6, r7, pc}
10005e76:	0000      	.short	0x0000
10005e78:	000007ff 	.word	0x000007ff

10005e7c <__wrap___aeabi_dcmpeq>:
10005e7c:	b500      	push	{lr}
10005e7e:	f7ff ffcf 	bl	10005e20 <__wrap___aeabi_cdcmpeq>
10005e82:	d001      	beq.n	10005e88 <__wrap___aeabi_dcmpeq+0xc>
10005e84:	2000      	movs	r0, #0
10005e86:	bd00      	pop	{pc}
10005e88:	2001      	movs	r0, #1
10005e8a:	bd00      	pop	{pc}

10005e8c <__wrap___aeabi_dcmplt>:
10005e8c:	b500      	push	{lr}
10005e8e:	f7ff ffc7 	bl	10005e20 <__wrap___aeabi_cdcmpeq>
10005e92:	4180      	sbcs	r0, r0
10005e94:	bd00      	pop	{pc}
10005e96:	46c0      	nop			@ (mov r8, r8)

10005e98 <__wrap___aeabi_dcmple>:
10005e98:	b500      	push	{lr}
10005e9a:	f7ff ffc1 	bl	10005e20 <__wrap___aeabi_cdcmpeq>
10005e9e:	d901      	bls.n	10005ea4 <__wrap___aeabi_dcmple+0xc>
10005ea0:	2000      	movs	r0, #0
10005ea2:	bd00      	pop	{pc}
10005ea4:	2001      	movs	r0, #1
10005ea6:	bd00      	pop	{pc}

10005ea8 <__wrap___aeabi_dcmpge>:
10005ea8:	b500      	push	{lr}
10005eaa:	f7ff ffb1 	bl	10005e10 <__wrap___aeabi_cdrcmple>
10005eae:	d901      	bls.n	10005eb4 <__wrap___aeabi_dcmpge+0xc>
10005eb0:	2000      	movs	r0, #0
10005eb2:	bd00      	pop	{pc}
10005eb4:	2001      	movs	r0, #1
10005eb6:	bd00      	pop	{pc}

10005eb8 <__wrap___aeabi_dcmpgt>:
10005eb8:	b500      	push	{lr}
10005eba:	f7ff ffa9 	bl	10005e10 <__wrap___aeabi_cdrcmple>
10005ebe:	4180      	sbcs	r0, r0
10005ec0:	bd00      	pop	{pc}

10005ec2 <__wrap___aeabi_dcmpun>:
10005ec2:	2001      	movs	r0, #1
10005ec4:	0540      	lsls	r0, r0, #21
10005ec6:	004a      	lsls	r2, r1, #1
10005ec8:	1812      	adds	r2, r2, r0
10005eca:	d804      	bhi.n	10005ed6 <__wrap___aeabi_dcmpun+0x14>
10005ecc:	005a      	lsls	r2, r3, #1
10005ece:	1812      	adds	r2, r2, r0
10005ed0:	d801      	bhi.n	10005ed6 <__wrap___aeabi_dcmpun+0x14>
10005ed2:	2000      	movs	r0, #0
10005ed4:	4770      	bx	lr
10005ed6:	2001      	movs	r0, #1
10005ed8:	4770      	bx	lr
10005eda:	2000      	movs	r0, #0
10005edc:	4770      	bx	lr
	...

10005ee0 <__wrap___aeabi_ui2d>:
10005ee0:	2100      	movs	r1, #0
10005ee2:	2800      	cmp	r0, #0
10005ee4:	d105      	bne.n	10005ef2 <__wrap___aeabi_i2d+0xa>
10005ee6:	4770      	bx	lr

10005ee8 <__wrap___aeabi_i2d>:
10005ee8:	17c1      	asrs	r1, r0, #31
10005eea:	4048      	eors	r0, r1
10005eec:	1a40      	subs	r0, r0, r1
10005eee:	d0fa      	beq.n	10005ee6 <__wrap___aeabi_ui2d+0x6>
10005ef0:	07c9      	lsls	r1, r1, #31
10005ef2:	b513      	push	{r0, r1, r4, lr}
10005ef4:	4b06      	ldr	r3, [pc, #24]	@ (10005f10 <__wrap___aeabi_i2d+0x28>)
10005ef6:	681b      	ldr	r3, [r3, #0]
10005ef8:	4798      	blx	r3
10005efa:	bc0c      	pop	{r2, r3}
10005efc:	1c44      	adds	r4, r0, #1
10005efe:	40a2      	lsls	r2, r4
10005f00:	0510      	lsls	r0, r2, #20
10005f02:	0b12      	lsrs	r2, r2, #12
10005f04:	4903      	ldr	r1, [pc, #12]	@ (10005f14 <__wrap___aeabi_i2d+0x2c>)
10005f06:	1b09      	subs	r1, r1, r4
10005f08:	0509      	lsls	r1, r1, #20
10005f0a:	4319      	orrs	r1, r3
10005f0c:	4311      	orrs	r1, r2
10005f0e:	bd10      	pop	{r4, pc}
10005f10:	20002410 	.word	0x20002410
10005f14:	0000041f 	.word	0x0000041f

10005f18 <__wrap___aeabi_d2iz>:
10005f18:	b510      	push	{r4, lr}
10005f1a:	004c      	lsls	r4, r1, #1
10005f1c:	0d62      	lsrs	r2, r4, #21
10005f1e:	2380      	movs	r3, #128	@ 0x80
10005f20:	18d2      	adds	r2, r2, r3
10005f22:	00db      	lsls	r3, r3, #3
10005f24:	1ad2      	subs	r2, r2, r3
10005f26:	055b      	lsls	r3, r3, #21
10005f28:	2a7e      	cmp	r2, #126	@ 0x7e
10005f2a:	dd10      	ble.n	10005f4e <__wrap___aeabi_d2iz+0x36>
10005f2c:	3a9e      	subs	r2, #158	@ 0x9e
10005f2e:	da13      	bge.n	10005f58 <__wrap___aeabi_d2iz+0x40>
10005f30:	17cc      	asrs	r4, r1, #31
10005f32:	0309      	lsls	r1, r1, #12
10005f34:	0849      	lsrs	r1, r1, #1
10005f36:	4319      	orrs	r1, r3
10005f38:	4252      	negs	r2, r2
10005f3a:	40d1      	lsrs	r1, r2
10005f3c:	0064      	lsls	r4, r4, #1
10005f3e:	3401      	adds	r4, #1
10005f40:	3215      	adds	r2, #21
10005f42:	2a20      	cmp	r2, #32
10005f44:	da05      	bge.n	10005f52 <__wrap___aeabi_d2iz+0x3a>
10005f46:	40d0      	lsrs	r0, r2
10005f48:	4308      	orrs	r0, r1
10005f4a:	4360      	muls	r0, r4
10005f4c:	bd10      	pop	{r4, pc}
10005f4e:	2000      	movs	r0, #0
10005f50:	bd10      	pop	{r4, pc}
10005f52:	4608      	mov	r0, r1
10005f54:	4360      	muls	r0, r4
10005f56:	bd10      	pop	{r4, pc}
10005f58:	0fc8      	lsrs	r0, r1, #31
10005f5a:	18c0      	adds	r0, r0, r3
10005f5c:	3801      	subs	r0, #1
10005f5e:	bd10      	pop	{r4, pc}

10005f60 <__wrap___aeabi_d2uiz>:
10005f60:	b418      	push	{r3, r4}
10005f62:	4b04      	ldr	r3, [pc, #16]	@ (10005f74 <__wrap___aeabi_d2uiz+0x14>)
10005f64:	6a5b      	ldr	r3, [r3, #36]	@ 0x24
10005f66:	46fc      	mov	ip, pc
10005f68:	9301      	str	r3, [sp, #4]
10005f6a:	bd08      	pop	{r3, pc}
10005f6c:	6c39df24 	.word	0x6c39df24
10005f70:	00001000 	.word	0x00001000
10005f74:	20002310 	.word	0x20002310

10005f78 <__wrap___aeabi_ul2d>:
10005f78:	b418      	push	{r3, r4}
10005f7a:	4b04      	ldr	r3, [pc, #16]	@ (10005f8c <__wrap___aeabi_ul2d+0x14>)
10005f7c:	6e5b      	ldr	r3, [r3, #100]	@ 0x64
10005f7e:	46fc      	mov	ip, pc
10005f80:	9301      	str	r3, [sp, #4]
10005f82:	bd08      	pop	{r3, pc}
10005f84:	6cc9df64 	.word	0x6cc9df64
10005f88:	00001000 	.word	0x00001000
10005f8c:	20002310 	.word	0x20002310

10005f90 <__wrap___aeabi_d2ulz>:
10005f90:	b418      	push	{r3, r4}
10005f92:	4b04      	ldr	r3, [pc, #16]	@ (10005fa4 <__wrap___aeabi_d2ulz+0x14>)
10005f94:	6f5b      	ldr	r3, [r3, #116]	@ 0x74
10005f96:	46fc      	mov	ip, pc
10005f98:	9301      	str	r3, [sp, #4]
10005f9a:	bd08      	pop	{r3, pc}
10005f9c:	6c49df74 	.word	0x6c49df74
10005fa0:	00001000 	.word	0x00001000
10005fa4:	20002310 	.word	0x20002310

10005fa8 <__wrap_exp>:
10005fa8:	b418      	push	{r3, r4}
10005faa:	4b04      	ldr	r3, [pc, #16]	@ (10005fbc <__wrap_exp+0x14>)
10005fac:	6cdb      	ldr	r3, [r3, #76]	@ 0x4c
10005fae:	46fc      	mov	ip, pc
10005fb0:	9301      	str	r3, [sp, #4]
10005fb2:	bd08      	pop	{r3, pc}
10005fb4:	6e09df4c 	.word	0x6e09df4c
10005fb8:	00001000 	.word	0x00001000
10005fbc:	20002310 	.word	0x20002310

10005fc0 <__wrap_log>:
10005fc0:	b418      	push	{r3, r4}
10005fc2:	4b04      	ldr	r3, [pc, #16]	@ (10005fd4 <__wrap_log+0x14>)
10005fc4:	6d1b      	ldr	r3, [r3, #80]	@ 0x50
10005fc6:	46fc      	mov	ip, pc
10005fc8:	9301      	str	r3, [sp, #4]
10005fca:	bd08      	pop	{r3, pc}
10005fcc:	6ea5df50 	.word	0x6ea5df50
10005fd0:	00001000 	.word	0x00001000
10005fd4:	20002310 	.word	0x20002310

10005fd8 <__aeabi_double_init>:
10005fd8:	b570      	push	{r4, r5, r6, lr}
10005fda:	2313      	movs	r3, #19
10005fdc:	781c      	ldrb	r4, [r3, #0]
10005fde:	2c01      	cmp	r4, #1
10005fe0:	d012      	beq.n	10006008 <__aeabi_double_init+0x30>
10005fe2:	2c01      	cmp	r4, #1
10005fe4:	dc12      	bgt.n	1000600c <__aeabi_double_init+0x34>
10005fe6:	4b21      	ldr	r3, [pc, #132]	@ (1000606c <__aeabi_double_init+0x94>)
10005fe8:	4a21      	ldr	r2, [pc, #132]	@ (10006070 <__aeabi_double_init+0x98>)
10005fea:	6493      	str	r3, [r2, #72]	@ 0x48
10005fec:	4821      	ldr	r0, [pc, #132]	@ (10006074 <__aeabi_double_init+0x9c>)
10005fee:	f7ff fc43 	bl	10005878 <rom_func_lookup>
10005ff2:	4b21      	ldr	r3, [pc, #132]	@ (10006078 <__aeabi_double_init+0xa0>)
10005ff4:	6018      	str	r0, [r3, #0]
10005ff6:	bd70      	pop	{r4, r5, r6, pc}
10005ff8:	491c      	ldr	r1, [pc, #112]	@ (1000606c <__aeabi_double_init+0x94>)
10005ffa:	4a1d      	ldr	r2, [pc, #116]	@ (10006070 <__aeabi_double_init+0x98>)
10005ffc:	0098      	lsls	r0, r3, #2
10005ffe:	5081      	str	r1, [r0, r2]
10006000:	3301      	adds	r3, #1
10006002:	2b1f      	cmp	r3, #31
10006004:	d9f8      	bls.n	10005ff8 <__aeabi_double_init+0x20>
10006006:	e7ec      	b.n	10005fe2 <__aeabi_double_init+0xa>
10006008:	2300      	movs	r3, #0
1000600a:	e7fa      	b.n	10006002 <__aeabi_double_init+0x2a>
1000600c:	481b      	ldr	r0, [pc, #108]	@ (1000607c <__aeabi_double_init+0xa4>)
1000600e:	f7ff fc3b 	bl	10005888 <rom_data_lookup>
10006012:	0005      	movs	r5, r0
10006014:	481a      	ldr	r0, [pc, #104]	@ (10006080 <__aeabi_double_init+0xa8>)
10006016:	f7ff fc37 	bl	10005888 <rom_data_lookup>
1000601a:	3802      	subs	r0, #2
1000601c:	7803      	ldrb	r3, [r0, #0]
1000601e:	009b      	lsls	r3, r3, #2
10006020:	2b7f      	cmp	r3, #127	@ 0x7f
10006022:	dd09      	ble.n	10006038 <__aeabi_double_init+0x60>
10006024:	4812      	ldr	r0, [pc, #72]	@ (10006070 <__aeabi_double_init+0x98>)
10006026:	2280      	movs	r2, #128	@ 0x80
10006028:	0029      	movs	r1, r5
1000602a:	f001 f9d1 	bl	100073d0 <__wrap___aeabi_memcpy>
1000602e:	2c02      	cmp	r4, #2
10006030:	d008      	beq.n	10006044 <__aeabi_double_init+0x6c>
10006032:	2c02      	cmp	r4, #2
10006034:	dcda      	bgt.n	10005fec <__aeabi_double_init+0x14>
10006036:	e7d6      	b.n	10005fe6 <__aeabi_double_init+0xe>
10006038:	4b12      	ldr	r3, [pc, #72]	@ (10006084 <__aeabi_double_init+0xac>)
1000603a:	4a13      	ldr	r2, [pc, #76]	@ (10006088 <__aeabi_double_init+0xb0>)
1000603c:	4813      	ldr	r0, [pc, #76]	@ (1000608c <__aeabi_double_init+0xb4>)
1000603e:	2132      	movs	r1, #50	@ 0x32
10006040:	f7fe fa86 	bl	10004550 <__assert_func>
10006044:	4b12      	ldr	r3, [pc, #72]	@ (10006090 <__aeabi_double_init+0xb8>)
10006046:	881a      	ldrh	r2, [r3, #0]
10006048:	23b5      	movs	r3, #181	@ 0xb5
1000604a:	021b      	lsls	r3, r3, #8
1000604c:	429a      	cmp	r2, r3
1000604e:	d109      	bne.n	10006064 <__aeabi_double_init+0x8c>
10006050:	4b10      	ldr	r3, [pc, #64]	@ (10006094 <__aeabi_double_init+0xbc>)
10006052:	881a      	ldrh	r2, [r3, #0]
10006054:	4b10      	ldr	r3, [pc, #64]	@ (10006098 <__aeabi_double_init+0xc0>)
10006056:	429a      	cmp	r2, r3
10006058:	d104      	bne.n	10006064 <__aeabi_double_init+0x8c>
1000605a:	4b10      	ldr	r3, [pc, #64]	@ (1000609c <__aeabi_double_init+0xc4>)
1000605c:	881a      	ldrh	r2, [r3, #0]
1000605e:	4b10      	ldr	r3, [pc, #64]	@ (100060a0 <__aeabi_double_init+0xc8>)
10006060:	429a      	cmp	r2, r3
10006062:	d0e6      	beq.n	10006032 <__aeabi_double_init+0x5a>
10006064:	2000      	movs	r0, #0
10006066:	f7fe fb0b 	bl	10004680 <panic>
1000606a:	46c0      	nop			@ (mov r8, r8)
1000606c:	1000678d 	.word	0x1000678d
10006070:	20002310 	.word	0x20002310
10006074:	0000334c 	.word	0x0000334c
10006078:	20002410 	.word	0x20002410
1000607c:	00004453 	.word	0x00004453
10006080:	00004653 	.word	0x00004653
10006084:	1000bd60 	.word	0x1000bd60
10006088:	1000c870 	.word	0x1000c870
1000608c:	1000bdb4 	.word	0x1000bdb4
10006090:	00003854 	.word	0x00003854
10006094:	000038d8 	.word	0x000038d8
10006098:	00004649 	.word	0x00004649
1000609c:	0000389c 	.word	0x0000389c
100060a0:	00004659 	.word	0x00004659

100060a4 <dldexp>:
100060a4:	b530      	push	{r4, r5, lr}
100060a6:	0d0b      	lsrs	r3, r1, #20
100060a8:	055b      	lsls	r3, r3, #21
100060aa:	0d5c      	lsrs	r4, r3, #21
100060ac:	2b00      	cmp	r3, #0
100060ae:	d014      	beq.n	100060da <dldexp+0x36>
100060b0:	4b0d      	ldr	r3, [pc, #52]	@ (100060e8 <dldexp+0x44>)
100060b2:	429c      	cmp	r4, r3
100060b4:	d011      	beq.n	100060da <dldexp+0x36>
100060b6:	1914      	adds	r4, r2, r4
100060b8:	2c00      	cmp	r4, #0
100060ba:	dd09      	ble.n	100060d0 <dldexp+0x2c>
100060bc:	4b0b      	ldr	r3, [pc, #44]	@ (100060ec <dldexp+0x48>)
100060be:	429c      	cmp	r4, r3
100060c0:	dd0c      	ble.n	100060dc <dldexp+0x38>
100060c2:	0fc9      	lsrs	r1, r1, #31
100060c4:	07c9      	lsls	r1, r1, #31
100060c6:	2400      	movs	r4, #0
100060c8:	4809      	ldr	r0, [pc, #36]	@ (100060f0 <dldexp+0x4c>)
100060ca:	4308      	orrs	r0, r1
100060cc:	0005      	movs	r5, r0
100060ce:	e002      	b.n	100060d6 <dldexp+0x32>
100060d0:	2400      	movs	r4, #0
100060d2:	0fc9      	lsrs	r1, r1, #31
100060d4:	07cd      	lsls	r5, r1, #31
100060d6:	0020      	movs	r0, r4
100060d8:	0029      	movs	r1, r5
100060da:	bd30      	pop	{r4, r5, pc}
100060dc:	2400      	movs	r4, #0
100060de:	0515      	lsls	r5, r2, #20
100060e0:	1824      	adds	r4, r4, r0
100060e2:	414d      	adcs	r5, r1
100060e4:	e7f7      	b.n	100060d6 <dldexp+0x32>
100060e6:	46c0      	nop			@ (mov r8, r8)
100060e8:	000007ff 	.word	0x000007ff
100060ec:	000007fe 	.word	0x000007fe
100060f0:	7ff00000 	.word	0x7ff00000

100060f4 <disint>:
100060f4:	b530      	push	{r4, r5, lr}
100060f6:	0d0b      	lsrs	r3, r1, #20
100060f8:	055b      	lsls	r3, r3, #21
100060fa:	0d5a      	lsrs	r2, r3, #21
100060fc:	2b00      	cmp	r3, #0
100060fe:	d01f      	beq.n	10006140 <disint+0x4c>
10006100:	4b13      	ldr	r3, [pc, #76]	@ (10006150 <disint+0x5c>)
10006102:	18d2      	adds	r2, r2, r3
10006104:	d41e      	bmi.n	10006144 <disint+0x50>
10006106:	2334      	movs	r3, #52	@ 0x34
10006108:	1a9b      	subs	r3, r3, r2
1000610a:	2b00      	cmp	r3, #0
1000610c:	dd1c      	ble.n	10006148 <disint+0x54>
1000610e:	001c      	movs	r4, r3
10006110:	3c20      	subs	r4, #32
10006112:	d40c      	bmi.n	1000612e <disint+0x3a>
10006114:	2201      	movs	r2, #1
10006116:	4252      	negs	r2, r2
10006118:	40a2      	lsls	r2, r4
1000611a:	2401      	movs	r4, #1
1000611c:	4264      	negs	r4, r4
1000611e:	409c      	lsls	r4, r3
10006120:	0003      	movs	r3, r0
10006122:	43a3      	bics	r3, r4
10006124:	4391      	bics	r1, r2
10006126:	430b      	orrs	r3, r1
10006128:	d110      	bne.n	1000614c <disint+0x58>
1000612a:	2001      	movs	r0, #1
1000612c:	e009      	b.n	10006142 <disint+0x4e>
1000612e:	2420      	movs	r4, #32
10006130:	1ae4      	subs	r4, r4, r3
10006132:	2201      	movs	r2, #1
10006134:	4252      	negs	r2, r2
10006136:	0015      	movs	r5, r2
10006138:	40e5      	lsrs	r5, r4
1000613a:	409a      	lsls	r2, r3
1000613c:	432a      	orrs	r2, r5
1000613e:	e7ec      	b.n	1000611a <disint+0x26>
10006140:	2001      	movs	r0, #1
10006142:	bd30      	pop	{r4, r5, pc}
10006144:	2000      	movs	r0, #0
10006146:	e7fc      	b.n	10006142 <disint+0x4e>
10006148:	2001      	movs	r0, #1
1000614a:	e7fa      	b.n	10006142 <disint+0x4e>
1000614c:	2000      	movs	r0, #0
1000614e:	e7f8      	b.n	10006142 <disint+0x4e>
10006150:	fffffc01 	.word	0xfffffc01

10006154 <disoddint>:
10006154:	b530      	push	{r4, r5, lr}
10006156:	0d0b      	lsrs	r3, r1, #20
10006158:	055b      	lsls	r3, r3, #21
1000615a:	0d5b      	lsrs	r3, r3, #21
1000615c:	4a1b      	ldr	r2, [pc, #108]	@ (100061cc <disoddint+0x78>)
1000615e:	189b      	adds	r3, r3, r2
10006160:	d42c      	bmi.n	100061bc <disoddint+0x68>
10006162:	2234      	movs	r2, #52	@ 0x34
10006164:	1ad3      	subs	r3, r2, r3
10006166:	d42b      	bmi.n	100061c0 <disoddint+0x6c>
10006168:	001c      	movs	r4, r3
1000616a:	3c20      	subs	r4, #32
1000616c:	d416      	bmi.n	1000619c <disoddint+0x48>
1000616e:	3a35      	subs	r2, #53	@ 0x35
10006170:	40a2      	lsls	r2, r4
10006172:	2401      	movs	r4, #1
10006174:	4264      	negs	r4, r4
10006176:	409c      	lsls	r4, r3
10006178:	0005      	movs	r5, r0
1000617a:	43a5      	bics	r5, r4
1000617c:	002c      	movs	r4, r5
1000617e:	000d      	movs	r5, r1
10006180:	4395      	bics	r5, r2
10006182:	002a      	movs	r2, r5
10006184:	4322      	orrs	r2, r4
10006186:	d11d      	bne.n	100061c4 <disoddint+0x70>
10006188:	2b34      	cmp	r3, #52	@ 0x34
1000618a:	d01d      	beq.n	100061c8 <disoddint+0x74>
1000618c:	001a      	movs	r2, r3
1000618e:	3a20      	subs	r2, #32
10006190:	d40d      	bmi.n	100061ae <disoddint+0x5a>
10006192:	0008      	movs	r0, r1
10006194:	40d0      	lsrs	r0, r2
10006196:	2301      	movs	r3, #1
10006198:	4018      	ands	r0, r3
1000619a:	bd30      	pop	{r4, r5, pc}
1000619c:	2420      	movs	r4, #32
1000619e:	1ae4      	subs	r4, r4, r3
100061a0:	2201      	movs	r2, #1
100061a2:	4252      	negs	r2, r2
100061a4:	0015      	movs	r5, r2
100061a6:	40e5      	lsrs	r5, r4
100061a8:	409a      	lsls	r2, r3
100061aa:	432a      	orrs	r2, r5
100061ac:	e7e1      	b.n	10006172 <disoddint+0x1e>
100061ae:	2220      	movs	r2, #32
100061b0:	1ad2      	subs	r2, r2, r3
100061b2:	000c      	movs	r4, r1
100061b4:	4094      	lsls	r4, r2
100061b6:	40d8      	lsrs	r0, r3
100061b8:	4320      	orrs	r0, r4
100061ba:	e7ec      	b.n	10006196 <disoddint+0x42>
100061bc:	2000      	movs	r0, #0
100061be:	e7ec      	b.n	1000619a <disoddint+0x46>
100061c0:	2000      	movs	r0, #0
100061c2:	e7ea      	b.n	1000619a <disoddint+0x46>
100061c4:	2000      	movs	r0, #0
100061c6:	e7e8      	b.n	1000619a <disoddint+0x46>
100061c8:	2001      	movs	r0, #1
100061ca:	e7e6      	b.n	1000619a <disoddint+0x46>
100061cc:	fffffc01 	.word	0xfffffc01

100061d0 <dispo2>:
100061d0:	0002      	movs	r2, r0
100061d2:	000b      	movs	r3, r1
100061d4:	0d09      	lsrs	r1, r1, #20
100061d6:	0549      	lsls	r1, r1, #21
100061d8:	0d48      	lsrs	r0, r1, #21
100061da:	2900      	cmp	r1, #0
100061dc:	d007      	beq.n	100061ee <dispo2+0x1e>
100061de:	4905      	ldr	r1, [pc, #20]	@ (100061f4 <dispo2+0x24>)
100061e0:	4288      	cmp	r0, r1
100061e2:	d005      	beq.n	100061f0 <dispo2+0x20>
100061e4:	0318      	lsls	r0, r3, #12
100061e6:	0b00      	lsrs	r0, r0, #12
100061e8:	4310      	orrs	r0, r2
100061ea:	4243      	negs	r3, r0
100061ec:	4158      	adcs	r0, r3
100061ee:	4770      	bx	lr
100061f0:	2000      	movs	r0, #0
100061f2:	e7fc      	b.n	100061ee <dispo2+0x1e>
100061f4:	000007ff 	.word	0x000007ff

100061f8 <dpow_int2>:
100061f8:	b570      	push	{r4, r5, r6, lr}
100061fa:	0004      	movs	r4, r0
100061fc:	000d      	movs	r5, r1
100061fe:	0016      	movs	r6, r2
10006200:	2a01      	cmp	r2, #1
10006202:	d00e      	beq.n	10006222 <dpow_int2+0x2a>
10006204:	0fd2      	lsrs	r2, r2, #31
10006206:	1992      	adds	r2, r2, r6
10006208:	1052      	asrs	r2, r2, #1
1000620a:	f7ff fff5 	bl	100061f8 <dpow_int2>
1000620e:	0002      	movs	r2, r0
10006210:	000b      	movs	r3, r1
10006212:	f7ff fdf0 	bl	10005df6 <__wrap___aeabi_dmul>
10006216:	07f6      	lsls	r6, r6, #31
10006218:	d503      	bpl.n	10006222 <dpow_int2+0x2a>
1000621a:	0022      	movs	r2, r4
1000621c:	002b      	movs	r3, r5
1000621e:	f7ff fdea 	bl	10005df6 <__wrap___aeabi_dmul>
10006222:	bd70      	pop	{r4, r5, r6, pc}

10006224 <dpowint_1>:
10006224:	b510      	push	{r4, lr}
10006226:	1e14      	subs	r4, r2, #0
10006228:	db03      	blt.n	10006232 <dpowint_1+0xe>
1000622a:	0022      	movs	r2, r4
1000622c:	f7ff ffe4 	bl	100061f8 <dpow_int2>
10006230:	bd10      	pop	{r4, pc}
10006232:	0002      	movs	r2, r0
10006234:	000b      	movs	r3, r1
10006236:	2000      	movs	r0, #0
10006238:	4902      	ldr	r1, [pc, #8]	@ (10006244 <dpowint_1+0x20>)
1000623a:	f7ff fdbe 	bl	10005dba <__wrap___aeabi_ddiv>
1000623e:	4264      	negs	r4, r4
10006240:	e7f3      	b.n	1000622a <dpowint_1+0x6>
10006242:	46c0      	nop			@ (mov r8, r8)
10006244:	3ff00000 	.word	0x3ff00000

10006248 <dpow_1>:
10006248:	b5f0      	push	{r4, r5, r6, r7, lr}
1000624a:	46d6      	mov	lr, sl
1000624c:	464f      	mov	r7, r9
1000624e:	4646      	mov	r6, r8
10006250:	b5c0      	push	{r6, r7, lr}
10006252:	b088      	sub	sp, #32
10006254:	0014      	movs	r4, r2
10006256:	001d      	movs	r5, r3
10006258:	0d0e      	lsrs	r6, r1, #20
1000625a:	0576      	lsls	r6, r6, #21
1000625c:	0d76      	lsrs	r6, r6, #21
1000625e:	4b67      	ldr	r3, [pc, #412]	@ (100063fc <dpow_1+0x1b4>)
10006260:	18f7      	adds	r7, r6, r3
10006262:	4a67      	ldr	r2, [pc, #412]	@ (10006400 <dpow_1+0x1b8>)
10006264:	1b92      	subs	r2, r2, r6
10006266:	f7ff ff1d 	bl	100060a4 <dldexp>
1000626a:	f7ff fea9 	bl	10005fc0 <__wrap_log>
1000626e:	4a65      	ldr	r2, [pc, #404]	@ (10006404 <dpow_1+0x1bc>)
10006270:	4b65      	ldr	r3, [pc, #404]	@ (10006408 <dpow_1+0x1c0>)
10006272:	f7ff fda2 	bl	10005dba <__wrap___aeabi_ddiv>
10006276:	2200      	movs	r2, #0
10006278:	4b64      	ldr	r3, [pc, #400]	@ (1000640c <dpow_1+0x1c4>)
1000627a:	9000      	str	r0, [sp, #0]
1000627c:	9101      	str	r1, [sp, #4]
1000627e:	f7ff fe1b 	bl	10005eb8 <__wrap___aeabi_dcmpgt>
10006282:	2800      	cmp	r0, #0
10006284:	d009      	beq.n	1000629a <dpow_1+0x52>
10006286:	2200      	movs	r2, #0
10006288:	4b61      	ldr	r3, [pc, #388]	@ (10006410 <dpow_1+0x1c8>)
1000628a:	9800      	ldr	r0, [sp, #0]
1000628c:	9901      	ldr	r1, [sp, #4]
1000628e:	f7ff fd82 	bl	10005d96 <__wrap___aeabi_dsub>
10006292:	9000      	str	r0, [sp, #0]
10006294:	9101      	str	r1, [sp, #4]
10006296:	4b5f      	ldr	r3, [pc, #380]	@ (10006414 <dpow_1+0x1cc>)
10006298:	18f7      	adds	r7, r6, r3
1000629a:	2f00      	cmp	r7, #0
1000629c:	d011      	beq.n	100062c2 <dpow_1+0x7a>
1000629e:	2200      	movs	r2, #0
100062a0:	4b5d      	ldr	r3, [pc, #372]	@ (10006418 <dpow_1+0x1d0>)
100062a2:	0020      	movs	r0, r4
100062a4:	0029      	movs	r1, r5
100062a6:	f7ff fdff 	bl	10005ea8 <__wrap___aeabi_dcmpge>
100062aa:	2800      	cmp	r0, #0
100062ac:	d015      	beq.n	100062da <dpow_1+0x92>
100062ae:	2f00      	cmp	r7, #0
100062b0:	db10      	blt.n	100062d4 <dpow_1+0x8c>
100062b2:	2000      	movs	r0, #0
100062b4:	4959      	ldr	r1, [pc, #356]	@ (1000641c <dpow_1+0x1d4>)
100062b6:	b008      	add	sp, #32
100062b8:	bce0      	pop	{r5, r6, r7}
100062ba:	46ba      	mov	sl, r7
100062bc:	46b1      	mov	r9, r6
100062be:	46a8      	mov	r8, r5
100062c0:	bdf0      	pop	{r4, r5, r6, r7, pc}
100062c2:	0022      	movs	r2, r4
100062c4:	002b      	movs	r3, r5
100062c6:	9800      	ldr	r0, [sp, #0]
100062c8:	9901      	ldr	r1, [sp, #4]
100062ca:	f7ff fd94 	bl	10005df6 <__wrap___aeabi_dmul>
100062ce:	f000 f965 	bl	1000659c <__wrap_exp2>
100062d2:	e7f0      	b.n	100062b6 <dpow_1+0x6e>
100062d4:	2000      	movs	r0, #0
100062d6:	2100      	movs	r1, #0
100062d8:	e7ed      	b.n	100062b6 <dpow_1+0x6e>
100062da:	2200      	movs	r2, #0
100062dc:	4b50      	ldr	r3, [pc, #320]	@ (10006420 <dpow_1+0x1d8>)
100062de:	0020      	movs	r0, r4
100062e0:	0029      	movs	r1, r5
100062e2:	f7ff fdd9 	bl	10005e98 <__wrap___aeabi_dcmple>
100062e6:	2800      	cmp	r0, #0
100062e8:	d007      	beq.n	100062fa <dpow_1+0xb2>
100062ea:	2f00      	cmp	r7, #0
100062ec:	db02      	blt.n	100062f4 <dpow_1+0xac>
100062ee:	2000      	movs	r0, #0
100062f0:	2100      	movs	r1, #0
100062f2:	e7e0      	b.n	100062b6 <dpow_1+0x6e>
100062f4:	2000      	movs	r0, #0
100062f6:	4949      	ldr	r1, [pc, #292]	@ (1000641c <dpow_1+0x1d4>)
100062f8:	e7dd      	b.n	100062b6 <dpow_1+0x6e>
100062fa:	0020      	movs	r0, r4
100062fc:	0029      	movs	r1, r5
100062fe:	f000 f901 	bl	10006504 <__wrap_round>
10006302:	9004      	str	r0, [sp, #16]
10006304:	9105      	str	r1, [sp, #20]
10006306:	0002      	movs	r2, r0
10006308:	000b      	movs	r3, r1
1000630a:	0020      	movs	r0, r4
1000630c:	0029      	movs	r1, r5
1000630e:	f7ff fd42 	bl	10005d96 <__wrap___aeabi_dsub>
10006312:	0003      	movs	r3, r0
10006314:	000c      	movs	r4, r1
10006316:	221a      	movs	r2, #26
10006318:	9302      	str	r3, [sp, #8]
1000631a:	9403      	str	r4, [sp, #12]
1000631c:	f000 f8ee 	bl	100064fc <__wrap_ldexp>
10006320:	f000 f8f0 	bl	10006504 <__wrap_round>
10006324:	221a      	movs	r2, #26
10006326:	4252      	negs	r2, r2
10006328:	f7ff febc 	bl	100060a4 <dldexp>
1000632c:	0004      	movs	r4, r0
1000632e:	000d      	movs	r5, r1
10006330:	0002      	movs	r2, r0
10006332:	000b      	movs	r3, r1
10006334:	9802      	ldr	r0, [sp, #8]
10006336:	9903      	ldr	r1, [sp, #12]
10006338:	f7ff fd2d 	bl	10005d96 <__wrap___aeabi_dsub>
1000633c:	9006      	str	r0, [sp, #24]
1000633e:	9107      	str	r1, [sp, #28]
10006340:	9804      	ldr	r0, [sp, #16]
10006342:	9905      	ldr	r1, [sp, #20]
10006344:	f7ff fde8 	bl	10005f18 <__wrap___aeabi_d2iz>
10006348:	4681      	mov	r9, r0
1000634a:	0001      	movs	r1, r0
1000634c:	4379      	muls	r1, r7
1000634e:	468a      	mov	sl, r1
10006350:	0038      	movs	r0, r7
10006352:	f7ff fdc9 	bl	10005ee8 <__wrap___aeabi_i2d>
10006356:	0022      	movs	r2, r4
10006358:	002b      	movs	r3, r5
1000635a:	9004      	str	r0, [sp, #16]
1000635c:	9105      	str	r1, [sp, #20]
1000635e:	f7ff fd4a 	bl	10005df6 <__wrap___aeabi_dmul>
10006362:	0006      	movs	r6, r0
10006364:	000f      	movs	r7, r1
10006366:	f000 f8cd 	bl	10006504 <__wrap_round>
1000636a:	0004      	movs	r4, r0
1000636c:	000d      	movs	r5, r1
1000636e:	f7ff fdd3 	bl	10005f18 <__wrap___aeabi_d2iz>
10006372:	4680      	mov	r8, r0
10006374:	44d0      	add	r8, sl
10006376:	0022      	movs	r2, r4
10006378:	002b      	movs	r3, r5
1000637a:	0030      	movs	r0, r6
1000637c:	0039      	movs	r1, r7
1000637e:	f7ff fd0a 	bl	10005d96 <__wrap___aeabi_dsub>
10006382:	0004      	movs	r4, r0
10006384:	000d      	movs	r5, r1
10006386:	9a06      	ldr	r2, [sp, #24]
10006388:	9b07      	ldr	r3, [sp, #28]
1000638a:	9804      	ldr	r0, [sp, #16]
1000638c:	9905      	ldr	r1, [sp, #20]
1000638e:	f7ff fd32 	bl	10005df6 <__wrap___aeabi_dmul>
10006392:	0002      	movs	r2, r0
10006394:	000b      	movs	r3, r1
10006396:	0020      	movs	r0, r4
10006398:	0029      	movs	r1, r5
1000639a:	f7ff fd05 	bl	10005da8 <__wrap___aeabi_dadd>
1000639e:	9004      	str	r0, [sp, #16]
100063a0:	9105      	str	r1, [sp, #20]
100063a2:	4648      	mov	r0, r9
100063a4:	f7ff fda0 	bl	10005ee8 <__wrap___aeabi_i2d>
100063a8:	9a00      	ldr	r2, [sp, #0]
100063aa:	9b01      	ldr	r3, [sp, #4]
100063ac:	f7ff fd23 	bl	10005df6 <__wrap___aeabi_dmul>
100063b0:	0004      	movs	r4, r0
100063b2:	000d      	movs	r5, r1
100063b4:	f000 f8a6 	bl	10006504 <__wrap_round>
100063b8:	0006      	movs	r6, r0
100063ba:	000f      	movs	r7, r1
100063bc:	f7ff fdac 	bl	10005f18 <__wrap___aeabi_d2iz>
100063c0:	4480      	add	r8, r0
100063c2:	0032      	movs	r2, r6
100063c4:	003b      	movs	r3, r7
100063c6:	0020      	movs	r0, r4
100063c8:	0029      	movs	r1, r5
100063ca:	f7ff fce4 	bl	10005d96 <__wrap___aeabi_dsub>
100063ce:	9a04      	ldr	r2, [sp, #16]
100063d0:	9b05      	ldr	r3, [sp, #20]
100063d2:	f7ff fce9 	bl	10005da8 <__wrap___aeabi_dadd>
100063d6:	0004      	movs	r4, r0
100063d8:	000d      	movs	r5, r1
100063da:	9a02      	ldr	r2, [sp, #8]
100063dc:	9b03      	ldr	r3, [sp, #12]
100063de:	9800      	ldr	r0, [sp, #0]
100063e0:	9901      	ldr	r1, [sp, #4]
100063e2:	f7ff fd08 	bl	10005df6 <__wrap___aeabi_dmul>
100063e6:	0022      	movs	r2, r4
100063e8:	002b      	movs	r3, r5
100063ea:	f7ff fcdd 	bl	10005da8 <__wrap___aeabi_dadd>
100063ee:	f000 f8d5 	bl	1000659c <__wrap_exp2>
100063f2:	4642      	mov	r2, r8
100063f4:	f7ff fe56 	bl	100060a4 <dldexp>
100063f8:	e75d      	b.n	100062b6 <dpow_1+0x6e>
100063fa:	46c0      	nop			@ (mov r8, r8)
100063fc:	fffffc01 	.word	0xfffffc01
10006400:	000003ff 	.word	0x000003ff
10006404:	fefa39ef 	.word	0xfefa39ef
10006408:	3fe62e42 	.word	0x3fe62e42
1000640c:	3fe00000 	.word	0x3fe00000
10006410:	3ff00000 	.word	0x3ff00000
10006414:	fffffc02 	.word	0xfffffc02
10006418:	40b00000 	.word	0x40b00000
1000641c:	7ff00000 	.word	0x7ff00000
10006420:	c0b00000 	.word	0xc0b00000

10006424 <dpow_0>:
10006424:	b5f0      	push	{r4, r5, r6, r7, lr}
10006426:	46c6      	mov	lr, r8
10006428:	b500      	push	{lr}
1000642a:	b082      	sub	sp, #8
1000642c:	0004      	movs	r4, r0
1000642e:	000d      	movs	r5, r1
10006430:	0016      	movs	r6, r2
10006432:	001f      	movs	r7, r3
10006434:	9001      	str	r0, [sp, #4]
10006436:	2900      	cmp	r1, #0
10006438:	da1d      	bge.n	10006476 <dpow_0+0x52>
1000643a:	0010      	movs	r0, r2
1000643c:	0019      	movs	r1, r3
1000643e:	f7ff fe89 	bl	10006154 <disoddint>
10006442:	2800      	cmp	r0, #0
10006444:	d00e      	beq.n	10006464 <dpow_0+0x40>
10006446:	0020      	movs	r0, r4
10006448:	2380      	movs	r3, #128	@ 0x80
1000644a:	061b      	lsls	r3, r3, #24
1000644c:	18e9      	adds	r1, r5, r3
1000644e:	0032      	movs	r2, r6
10006450:	003b      	movs	r3, r7
10006452:	f7ff ffe7 	bl	10006424 <dpow_0>
10006456:	2480      	movs	r4, #128	@ 0x80
10006458:	0624      	lsls	r4, r4, #24
1000645a:	1909      	adds	r1, r1, r4
1000645c:	b002      	add	sp, #8
1000645e:	bc80      	pop	{r7}
10006460:	46b8      	mov	r8, r7
10006462:	bdf0      	pop	{r4, r5, r6, r7, pc}
10006464:	9801      	ldr	r0, [sp, #4]
10006466:	2380      	movs	r3, #128	@ 0x80
10006468:	061b      	lsls	r3, r3, #24
1000646a:	18e9      	adds	r1, r5, r3
1000646c:	0032      	movs	r2, r6
1000646e:	003b      	movs	r3, r7
10006470:	f7ff ffd8 	bl	10006424 <dpow_0>
10006474:	e7f2      	b.n	1000645c <dpow_0+0x38>
10006476:	0010      	movs	r0, r2
10006478:	0019      	movs	r1, r3
1000647a:	f7ff fd4d 	bl	10005f18 <__wrap___aeabi_d2iz>
1000647e:	4680      	mov	r8, r0
10006480:	0020      	movs	r0, r4
10006482:	0029      	movs	r1, r5
10006484:	f7ff fea4 	bl	100061d0 <dispo2>
10006488:	2800      	cmp	r0, #0
1000648a:	d10c      	bne.n	100064a6 <dpow_0+0x82>
1000648c:	4643      	mov	r3, r8
1000648e:	2b00      	cmp	r3, #0
10006490:	d028      	beq.n	100064e4 <dpow_0+0xc0>
10006492:	3320      	adds	r3, #32
10006494:	2b40      	cmp	r3, #64	@ 0x40
10006496:	d91f      	bls.n	100064d8 <dpow_0+0xb4>
10006498:	0032      	movs	r2, r6
1000649a:	003b      	movs	r3, r7
1000649c:	0020      	movs	r0, r4
1000649e:	0029      	movs	r1, r5
100064a0:	f7ff fed2 	bl	10006248 <dpow_1>
100064a4:	e7da      	b.n	1000645c <dpow_0+0x38>
100064a6:	0d2a      	lsrs	r2, r5, #20
100064a8:	0552      	lsls	r2, r2, #21
100064aa:	0d52      	lsrs	r2, r2, #21
100064ac:	4b0f      	ldr	r3, [pc, #60]	@ (100064ec <dpow_0+0xc8>)
100064ae:	469c      	mov	ip, r3
100064b0:	4462      	add	r2, ip
100064b2:	2380      	movs	r3, #128	@ 0x80
100064b4:	011b      	lsls	r3, r3, #4
100064b6:	4598      	cmp	r8, r3
100064b8:	da05      	bge.n	100064c6 <dpow_0+0xa2>
100064ba:	4b0d      	ldr	r3, [pc, #52]	@ (100064f0 <dpow_0+0xcc>)
100064bc:	4598      	cmp	r8, r3
100064be:	da04      	bge.n	100064ca <dpow_0+0xa6>
100064c0:	4b0b      	ldr	r3, [pc, #44]	@ (100064f0 <dpow_0+0xcc>)
100064c2:	4698      	mov	r8, r3
100064c4:	e001      	b.n	100064ca <dpow_0+0xa6>
100064c6:	4b0b      	ldr	r3, [pc, #44]	@ (100064f4 <dpow_0+0xd0>)
100064c8:	4698      	mov	r8, r3
100064ca:	4643      	mov	r3, r8
100064cc:	435a      	muls	r2, r3
100064ce:	2000      	movs	r0, #0
100064d0:	4909      	ldr	r1, [pc, #36]	@ (100064f8 <dpow_0+0xd4>)
100064d2:	f7ff fde7 	bl	100060a4 <dldexp>
100064d6:	e7c1      	b.n	1000645c <dpow_0+0x38>
100064d8:	4642      	mov	r2, r8
100064da:	0020      	movs	r0, r4
100064dc:	0029      	movs	r1, r5
100064de:	f7ff fea1 	bl	10006224 <dpowint_1>
100064e2:	e7bb      	b.n	1000645c <dpow_0+0x38>
100064e4:	2000      	movs	r0, #0
100064e6:	4904      	ldr	r1, [pc, #16]	@ (100064f8 <dpow_0+0xd4>)
100064e8:	e7b8      	b.n	1000645c <dpow_0+0x38>
100064ea:	46c0      	nop			@ (mov r8, r8)
100064ec:	fffffc01 	.word	0xfffffc01
100064f0:	fffff800 	.word	0xfffff800
100064f4:	000007ff 	.word	0x000007ff
100064f8:	3ff00000 	.word	0x3ff00000

100064fc <__wrap_ldexp>:
100064fc:	b510      	push	{r4, lr}
100064fe:	f7ff fdd1 	bl	100060a4 <dldexp>
10006502:	bd10      	pop	{r4, pc}

10006504 <__wrap_round>:
10006504:	b570      	push	{r4, r5, r6, lr}
10006506:	0d0b      	lsrs	r3, r1, #20
10006508:	055b      	lsls	r3, r3, #21
1000650a:	0d5b      	lsrs	r3, r3, #21
1000650c:	4a21      	ldr	r2, [pc, #132]	@ (10006594 <__wrap_round+0x90>)
1000650e:	4694      	mov	ip, r2
10006510:	4463      	add	r3, ip
10006512:	1c5a      	adds	r2, r3, #1
10006514:	db24      	blt.n	10006560 <__wrap_round+0x5c>
10006516:	1c5a      	adds	r2, r3, #1
10006518:	d028      	beq.n	1000656c <__wrap_round+0x68>
1000651a:	2234      	movs	r2, #52	@ 0x34
1000651c:	1ad2      	subs	r2, r2, r3
1000651e:	2a00      	cmp	r2, #0
10006520:	dd1d      	ble.n	1000655e <__wrap_round+0x5a>
10006522:	2433      	movs	r4, #51	@ 0x33
10006524:	1ae4      	subs	r4, r4, r3
10006526:	0025      	movs	r5, r4
10006528:	3d20      	subs	r5, #32
1000652a:	d426      	bmi.n	1000657a <__wrap_round+0x76>
1000652c:	2601      	movs	r6, #1
1000652e:	40ae      	lsls	r6, r5
10006530:	0033      	movs	r3, r6
10006532:	2501      	movs	r5, #1
10006534:	40a5      	lsls	r5, r4
10006536:	002a      	movs	r2, r5
10006538:	1812      	adds	r2, r2, r0
1000653a:	414b      	adcs	r3, r1
1000653c:	0025      	movs	r5, r4
1000653e:	3d20      	subs	r5, #32
10006540:	d421      	bmi.n	10006586 <__wrap_round+0x82>
10006542:	2602      	movs	r6, #2
10006544:	40ae      	lsls	r6, r5
10006546:	0031      	movs	r1, r6
10006548:	2502      	movs	r5, #2
1000654a:	40a5      	lsls	r5, r4
1000654c:	0028      	movs	r0, r5
1000654e:	2500      	movs	r5, #0
10006550:	4244      	negs	r4, r0
10006552:	418d      	sbcs	r5, r1
10006554:	0016      	movs	r6, r2
10006556:	4026      	ands	r6, r4
10006558:	0030      	movs	r0, r6
1000655a:	402b      	ands	r3, r5
1000655c:	0019      	movs	r1, r3
1000655e:	bd70      	pop	{r4, r5, r6, pc}
10006560:	2200      	movs	r2, #0
10006562:	0fc9      	lsrs	r1, r1, #31
10006564:	07cb      	lsls	r3, r1, #31
10006566:	0010      	movs	r0, r2
10006568:	0019      	movs	r1, r3
1000656a:	e7f8      	b.n	1000655e <__wrap_round+0x5a>
1000656c:	0fcb      	lsrs	r3, r1, #31
1000656e:	07db      	lsls	r3, r3, #31
10006570:	2000      	movs	r0, #0
10006572:	4a09      	ldr	r2, [pc, #36]	@ (10006598 <__wrap_round+0x94>)
10006574:	431a      	orrs	r2, r3
10006576:	0011      	movs	r1, r2
10006578:	e7f1      	b.n	1000655e <__wrap_round+0x5a>
1000657a:	2520      	movs	r5, #32
1000657c:	1b2d      	subs	r5, r5, r4
1000657e:	2601      	movs	r6, #1
10006580:	40ee      	lsrs	r6, r5
10006582:	0033      	movs	r3, r6
10006584:	e7d5      	b.n	10006532 <__wrap_round+0x2e>
10006586:	2520      	movs	r5, #32
10006588:	1b2d      	subs	r5, r5, r4
1000658a:	2602      	movs	r6, #2
1000658c:	40ee      	lsrs	r6, r5
1000658e:	0031      	movs	r1, r6
10006590:	e7da      	b.n	10006548 <__wrap_round+0x44>
10006592:	46c0      	nop			@ (mov r8, r8)
10006594:	fffffc01 	.word	0xfffffc01
10006598:	3ff00000 	.word	0x3ff00000

1000659c <__wrap_exp2>:
1000659c:	b570      	push	{r4, r5, r6, lr}
1000659e:	0004      	movs	r4, r0
100065a0:	000d      	movs	r5, r1
100065a2:	0d0a      	lsrs	r2, r1, #20
100065a4:	4b19      	ldr	r3, [pc, #100]	@ (1000660c <__wrap_exp2+0x70>)
100065a6:	429a      	cmp	r2, r3
100065a8:	d029      	beq.n	100065fe <__wrap_exp2+0x62>
100065aa:	2200      	movs	r2, #0
100065ac:	4b18      	ldr	r3, [pc, #96]	@ (10006610 <__wrap_exp2+0x74>)
100065ae:	f7ff fc73 	bl	10005e98 <__wrap___aeabi_dcmple>
100065b2:	2800      	cmp	r0, #0
100065b4:	d126      	bne.n	10006604 <__wrap_exp2+0x68>
100065b6:	2200      	movs	r2, #0
100065b8:	4b16      	ldr	r3, [pc, #88]	@ (10006614 <__wrap_exp2+0x78>)
100065ba:	0020      	movs	r0, r4
100065bc:	0029      	movs	r1, r5
100065be:	f7ff fc73 	bl	10005ea8 <__wrap___aeabi_dcmpge>
100065c2:	2800      	cmp	r0, #0
100065c4:	d002      	beq.n	100065cc <__wrap_exp2+0x30>
100065c6:	2000      	movs	r0, #0
100065c8:	4913      	ldr	r1, [pc, #76]	@ (10006618 <__wrap_exp2+0x7c>)
100065ca:	e01d      	b.n	10006608 <__wrap_exp2+0x6c>
100065cc:	0020      	movs	r0, r4
100065ce:	0029      	movs	r1, r5
100065d0:	f7ff ff98 	bl	10006504 <__wrap_round>
100065d4:	f7ff fca0 	bl	10005f18 <__wrap___aeabi_d2iz>
100065d8:	0006      	movs	r6, r0
100065da:	f7ff fc85 	bl	10005ee8 <__wrap___aeabi_i2d>
100065de:	0002      	movs	r2, r0
100065e0:	000b      	movs	r3, r1
100065e2:	0020      	movs	r0, r4
100065e4:	0029      	movs	r1, r5
100065e6:	f7ff fbd6 	bl	10005d96 <__wrap___aeabi_dsub>
100065ea:	4a0c      	ldr	r2, [pc, #48]	@ (1000661c <__wrap_exp2+0x80>)
100065ec:	4b0c      	ldr	r3, [pc, #48]	@ (10006620 <__wrap_exp2+0x84>)
100065ee:	f7ff fc02 	bl	10005df6 <__wrap___aeabi_dmul>
100065f2:	f7ff fcd9 	bl	10005fa8 <__wrap_exp>
100065f6:	0032      	movs	r2, r6
100065f8:	f7ff fd54 	bl	100060a4 <dldexp>
100065fc:	e004      	b.n	10006608 <__wrap_exp2+0x6c>
100065fe:	2000      	movs	r0, #0
10006600:	2100      	movs	r1, #0
10006602:	e001      	b.n	10006608 <__wrap_exp2+0x6c>
10006604:	2000      	movs	r0, #0
10006606:	2100      	movs	r1, #0
10006608:	bd70      	pop	{r4, r5, r6, pc}
1000660a:	46c0      	nop			@ (mov r8, r8)
1000660c:	00000fff 	.word	0x00000fff
10006610:	c0b00000 	.word	0xc0b00000
10006614:	40b00000 	.word	0x40b00000
10006618:	7ff00000 	.word	0x7ff00000
1000661c:	fefa39ef 	.word	0xfefa39ef
10006620:	3fe62e42 	.word	0x3fe62e42

10006624 <__wrap_pow>:
10006624:	b5f8      	push	{r3, r4, r5, r6, r7, lr}
10006626:	46ce      	mov	lr, r9
10006628:	4647      	mov	r7, r8
1000662a:	b580      	push	{r7, lr}
1000662c:	0006      	movs	r6, r0
1000662e:	000f      	movs	r7, r1
10006630:	0014      	movs	r4, r2
10006632:	001d      	movs	r5, r3
10006634:	2200      	movs	r2, #0
10006636:	4b4e      	ldr	r3, [pc, #312]	@ (10006770 <__wrap_pow+0x14c>)
10006638:	f7ff fc20 	bl	10005e7c <__wrap___aeabi_dcmpeq>
1000663c:	2800      	cmp	r0, #0
1000663e:	d121      	bne.n	10006684 <__wrap_pow+0x60>
10006640:	0d2b      	lsrs	r3, r5, #20
10006642:	4698      	mov	r8, r3
10006644:	055b      	lsls	r3, r3, #21
10006646:	0d5a      	lsrs	r2, r3, #21
10006648:	4691      	mov	r9, r2
1000664a:	2b00      	cmp	r3, #0
1000664c:	d01a      	beq.n	10006684 <__wrap_pow+0x60>
1000664e:	2200      	movs	r2, #0
10006650:	4b48      	ldr	r3, [pc, #288]	@ (10006774 <__wrap_pow+0x150>)
10006652:	0030      	movs	r0, r6
10006654:	0039      	movs	r1, r7
10006656:	f7ff fc11 	bl	10005e7c <__wrap___aeabi_dcmpeq>
1000665a:	2800      	cmp	r0, #0
1000665c:	d002      	beq.n	10006664 <__wrap_pow+0x40>
1000665e:	4b46      	ldr	r3, [pc, #280]	@ (10006778 <__wrap_pow+0x154>)
10006660:	4599      	cmp	r9, r3
10006662:	d06d      	beq.n	10006740 <__wrap_pow+0x11c>
10006664:	0d3a      	lsrs	r2, r7, #20
10006666:	0553      	lsls	r3, r2, #21
10006668:	0d59      	lsrs	r1, r3, #21
1000666a:	2b00      	cmp	r3, #0
1000666c:	d11d      	bne.n	100066aa <__wrap_pow+0x86>
1000666e:	2d00      	cmp	r5, #0
10006670:	db0e      	blt.n	10006690 <__wrap_pow+0x6c>
10006672:	0020      	movs	r0, r4
10006674:	0029      	movs	r1, r5
10006676:	f7ff fd6d 	bl	10006154 <disoddint>
1000667a:	2800      	cmp	r0, #0
1000667c:	d063      	beq.n	10006746 <__wrap_pow+0x122>
1000667e:	0030      	movs	r0, r6
10006680:	0039      	movs	r1, r7
10006682:	e001      	b.n	10006688 <__wrap_pow+0x64>
10006684:	2000      	movs	r0, #0
10006686:	493a      	ldr	r1, [pc, #232]	@ (10006770 <__wrap_pow+0x14c>)
10006688:	bcc0      	pop	{r6, r7}
1000668a:	46b9      	mov	r9, r7
1000668c:	46b0      	mov	r8, r6
1000668e:	bdf8      	pop	{r3, r4, r5, r6, r7, pc}
10006690:	0020      	movs	r0, r4
10006692:	0029      	movs	r1, r5
10006694:	f7ff fd5e 	bl	10006154 <disoddint>
10006698:	2800      	cmp	r0, #0
1000669a:	d057      	beq.n	1000674c <__wrap_pow+0x128>
1000669c:	0ffb      	lsrs	r3, r7, #31
1000669e:	07db      	lsls	r3, r3, #31
100066a0:	2000      	movs	r0, #0
100066a2:	4a36      	ldr	r2, [pc, #216]	@ (1000677c <__wrap_pow+0x158>)
100066a4:	431a      	orrs	r2, r3
100066a6:	0011      	movs	r1, r2
100066a8:	e7ee      	b.n	10006688 <__wrap_pow+0x64>
100066aa:	4b33      	ldr	r3, [pc, #204]	@ (10006778 <__wrap_pow+0x154>)
100066ac:	429a      	cmp	r2, r3
100066ae:	d013      	beq.n	100066d8 <__wrap_pow+0xb4>
100066b0:	4b33      	ldr	r3, [pc, #204]	@ (10006780 <__wrap_pow+0x15c>)
100066b2:	429a      	cmp	r2, r3
100066b4:	d015      	beq.n	100066e2 <__wrap_pow+0xbe>
100066b6:	4b30      	ldr	r3, [pc, #192]	@ (10006778 <__wrap_pow+0x154>)
100066b8:	4598      	cmp	r8, r3
100066ba:	d027      	beq.n	1000670c <__wrap_pow+0xe8>
100066bc:	4b30      	ldr	r3, [pc, #192]	@ (10006780 <__wrap_pow+0x15c>)
100066be:	4598      	cmp	r8, r3
100066c0:	d02a      	beq.n	10006718 <__wrap_pow+0xf4>
100066c2:	0020      	movs	r0, r4
100066c4:	0029      	movs	r1, r5
100066c6:	f7ff fd15 	bl	100060f4 <disint>
100066ca:	2800      	cmp	r0, #0
100066cc:	d12a      	bne.n	10006724 <__wrap_pow+0x100>
100066ce:	2f00      	cmp	r7, #0
100066d0:	da2f      	bge.n	10006732 <__wrap_pow+0x10e>
100066d2:	2000      	movs	r0, #0
100066d4:	4929      	ldr	r1, [pc, #164]	@ (1000677c <__wrap_pow+0x158>)
100066d6:	e7d7      	b.n	10006688 <__wrap_pow+0x64>
100066d8:	2d00      	cmp	r5, #0
100066da:	da3a      	bge.n	10006752 <__wrap_pow+0x12e>
100066dc:	2000      	movs	r0, #0
100066de:	2100      	movs	r1, #0
100066e0:	e7d2      	b.n	10006688 <__wrap_pow+0x64>
100066e2:	2d00      	cmp	r5, #0
100066e4:	db08      	blt.n	100066f8 <__wrap_pow+0xd4>
100066e6:	0020      	movs	r0, r4
100066e8:	0029      	movs	r1, r5
100066ea:	f7ff fd33 	bl	10006154 <disoddint>
100066ee:	2800      	cmp	r0, #0
100066f0:	d032      	beq.n	10006758 <__wrap_pow+0x134>
100066f2:	2000      	movs	r0, #0
100066f4:	4923      	ldr	r1, [pc, #140]	@ (10006784 <__wrap_pow+0x160>)
100066f6:	e7c7      	b.n	10006688 <__wrap_pow+0x64>
100066f8:	0020      	movs	r0, r4
100066fa:	0029      	movs	r1, r5
100066fc:	f7ff fd2a 	bl	10006154 <disoddint>
10006700:	2800      	cmp	r0, #0
10006702:	d02c      	beq.n	1000675e <__wrap_pow+0x13a>
10006704:	2000      	movs	r0, #0
10006706:	2180      	movs	r1, #128	@ 0x80
10006708:	0609      	lsls	r1, r1, #24
1000670a:	e7bd      	b.n	10006688 <__wrap_pow+0x64>
1000670c:	4b1e      	ldr	r3, [pc, #120]	@ (10006788 <__wrap_pow+0x164>)
1000670e:	4299      	cmp	r1, r3
10006710:	dc28      	bgt.n	10006764 <__wrap_pow+0x140>
10006712:	2000      	movs	r0, #0
10006714:	2100      	movs	r1, #0
10006716:	e7b7      	b.n	10006688 <__wrap_pow+0x64>
10006718:	4b1b      	ldr	r3, [pc, #108]	@ (10006788 <__wrap_pow+0x164>)
1000671a:	4299      	cmp	r1, r3
1000671c:	dc25      	bgt.n	1000676a <__wrap_pow+0x146>
1000671e:	2000      	movs	r0, #0
10006720:	4916      	ldr	r1, [pc, #88]	@ (1000677c <__wrap_pow+0x158>)
10006722:	e7b1      	b.n	10006688 <__wrap_pow+0x64>
10006724:	0022      	movs	r2, r4
10006726:	002b      	movs	r3, r5
10006728:	0030      	movs	r0, r6
1000672a:	0039      	movs	r1, r7
1000672c:	f7ff fe7a 	bl	10006424 <dpow_0>
10006730:	e7aa      	b.n	10006688 <__wrap_pow+0x64>
10006732:	0022      	movs	r2, r4
10006734:	002b      	movs	r3, r5
10006736:	0030      	movs	r0, r6
10006738:	0039      	movs	r1, r7
1000673a:	f7ff fd85 	bl	10006248 <dpow_1>
1000673e:	e7a3      	b.n	10006688 <__wrap_pow+0x64>
10006740:	2000      	movs	r0, #0
10006742:	490b      	ldr	r1, [pc, #44]	@ (10006770 <__wrap_pow+0x14c>)
10006744:	e7a0      	b.n	10006688 <__wrap_pow+0x64>
10006746:	2000      	movs	r0, #0
10006748:	2100      	movs	r1, #0
1000674a:	e79d      	b.n	10006688 <__wrap_pow+0x64>
1000674c:	2000      	movs	r0, #0
1000674e:	490b      	ldr	r1, [pc, #44]	@ (1000677c <__wrap_pow+0x158>)
10006750:	e79a      	b.n	10006688 <__wrap_pow+0x64>
10006752:	2000      	movs	r0, #0
10006754:	4909      	ldr	r1, [pc, #36]	@ (1000677c <__wrap_pow+0x158>)
10006756:	e797      	b.n	10006688 <__wrap_pow+0x64>
10006758:	2000      	movs	r0, #0
1000675a:	4908      	ldr	r1, [pc, #32]	@ (1000677c <__wrap_pow+0x158>)
1000675c:	e794      	b.n	10006688 <__wrap_pow+0x64>
1000675e:	2000      	movs	r0, #0
10006760:	2100      	movs	r1, #0
10006762:	e791      	b.n	10006688 <__wrap_pow+0x64>
10006764:	2000      	movs	r0, #0
10006766:	4905      	ldr	r1, [pc, #20]	@ (1000677c <__wrap_pow+0x158>)
10006768:	e78e      	b.n	10006688 <__wrap_pow+0x64>
1000676a:	2000      	movs	r0, #0
1000676c:	2100      	movs	r1, #0
1000676e:	e78b      	b.n	10006688 <__wrap_pow+0x64>
10006770:	3ff00000 	.word	0x3ff00000
10006774:	bff00000 	.word	0xbff00000
10006778:	000007ff 	.word	0x000007ff
1000677c:	7ff00000 	.word	0x7ff00000
10006780:	00000fff 	.word	0x00000fff
10006784:	fff00000 	.word	0xfff00000
10006788:	000003fe 	.word	0x000003fe

1000678c <double_table_shim_on_use_helper>:
1000678c:	b507      	push	{r0, r1, r2, lr}
1000678e:	4660      	mov	r0, ip
10006790:	2800      	cmp	r0, #0
10006792:	d100      	bne.n	10006796 <double_table_shim_on_use_helper+0xa>
10006794:	be00      	bkpt	0x0000
10006796:	8801      	ldrh	r1, [r0, #0]
10006798:	0a0a      	lsrs	r2, r1, #8
1000679a:	3002      	adds	r0, #2
1000679c:	2adf      	cmp	r2, #223	@ 0xdf
1000679e:	d1fa      	bne.n	10006796 <double_table_shim_on_use_helper+0xa>
100067a0:	b2c9      	uxtb	r1, r1
100067a2:	0882      	lsrs	r2, r0, #2
100067a4:	d304      	bcc.n	100067b0 <double_table_shim_on_use_helper+0x24>
100067a6:	8802      	ldrh	r2, [r0, #0]
100067a8:	8840      	ldrh	r0, [r0, #2]
100067aa:	0400      	lsls	r0, r0, #16
100067ac:	4310      	orrs	r0, r2
100067ae:	e000      	b.n	100067b2 <double_table_shim_on_use_helper+0x26>
100067b0:	6800      	ldr	r0, [r0, #0]
100067b2:	4a02      	ldr	r2, [pc, #8]	@ (100067bc <double_table_shim_on_use_helper+0x30>)
100067b4:	5050      	str	r0, [r2, r1]
100067b6:	9003      	str	r0, [sp, #12]
100067b8:	bd07      	pop	{r0, r1, r2, pc}
100067ba:	0000      	.short	0x0000
100067bc:	20002310 	.word	0x20002310

100067c0 <drsub_shim>:
100067c0:	b40f      	push	{r0, r1, r2, r3}
100067c2:	bc03      	pop	{r0, r1}
100067c4:	bc0c      	pop	{r2, r3}

100067c6 <dsub_shim>:
100067c6:	b5f0      	push	{r4, r5, r6, r7, lr}
100067c8:	2401      	movs	r4, #1
100067ca:	07e4      	lsls	r4, r4, #31
100067cc:	4063      	eors	r3, r4
100067ce:	e000      	b.n	100067d2 <da_entry>

100067d0 <dadd_shim>:
100067d0:	b5f0      	push	{r4, r5, r6, r7, lr}

100067d2 <da_entry>:
100067d2:	0d0c      	lsrs	r4, r1, #20
100067d4:	0fcf      	lsrs	r7, r1, #31
100067d6:	1e66      	subs	r6, r4, #1
100067d8:	0536      	lsls	r6, r6, #20
100067da:	1b89      	subs	r1, r1, r6
100067dc:	0564      	lsls	r4, r4, #21
100067de:	d303      	bcc.n	100067e8 <l8_1>
100067e0:	43c9      	mvns	r1, r1
100067e2:	4240      	negs	r0, r0
100067e4:	d300      	bcc.n	100067e8 <l8_1>
100067e6:	3101      	adds	r1, #1

100067e8 <l8_1>:
100067e8:	0d64      	lsrs	r4, r4, #21
100067ea:	d003      	beq.n	100067f4 <l8_2>
100067ec:	1c66      	adds	r6, r4, #1
100067ee:	0af6      	lsrs	r6, r6, #11
100067f0:	d007      	beq.n	10006802 <l8_3>
100067f2:	1be4      	subs	r4, r4, r7

100067f4 <l8_2>:
100067f4:	2000      	movs	r0, #0
100067f6:	007f      	lsls	r7, r7, #1
100067f8:	1c79      	adds	r1, r7, #1
100067fa:	0789      	lsls	r1, r1, #30
100067fc:	1289      	asrs	r1, r1, #10
100067fe:	3c80      	subs	r4, #128	@ 0x80
10006800:	0324      	lsls	r4, r4, #12

10006802 <l8_3>:
10006802:	0d1d      	lsrs	r5, r3, #20
10006804:	0fdf      	lsrs	r7, r3, #31
10006806:	1e6e      	subs	r6, r5, #1
10006808:	0536      	lsls	r6, r6, #20
1000680a:	1b9b      	subs	r3, r3, r6
1000680c:	056d      	lsls	r5, r5, #21
1000680e:	d303      	bcc.n	10006818 <l9_1>
10006810:	43db      	mvns	r3, r3
10006812:	4252      	negs	r2, r2
10006814:	d300      	bcc.n	10006818 <l9_1>
10006816:	3301      	adds	r3, #1

10006818 <l9_1>:
10006818:	0d6d      	lsrs	r5, r5, #21
1000681a:	d003      	beq.n	10006824 <l9_2>
1000681c:	1c6e      	adds	r6, r5, #1
1000681e:	0af6      	lsrs	r6, r6, #11
10006820:	d007      	beq.n	10006832 <l9_3>
10006822:	1bed      	subs	r5, r5, r7

10006824 <l9_2>:
10006824:	2200      	movs	r2, #0
10006826:	007f      	lsls	r7, r7, #1
10006828:	1c7b      	adds	r3, r7, #1
1000682a:	079b      	lsls	r3, r3, #30
1000682c:	129b      	asrs	r3, r3, #10
1000682e:	3d80      	subs	r5, #128	@ 0x80
10006830:	032d      	lsls	r5, r5, #12

10006832 <l9_3>:
10006832:	1b2f      	subs	r7, r5, r4
10006834:	1b66      	subs	r6, r4, r5
10006836:	d458      	bmi.n	100068ea <da_ygtx>
10006838:	46a4      	mov	ip, r4
1000683a:	2e20      	cmp	r6, #32
1000683c:	da46      	bge.n	100068cc <da_xrgty>
1000683e:	3720      	adds	r7, #32
10006840:	0014      	movs	r4, r2
10006842:	40bc      	lsls	r4, r7

10006844 <da_xgty0>:
10006844:	001d      	movs	r5, r3
10006846:	40bd      	lsls	r5, r7
10006848:	40f2      	lsrs	r2, r6
1000684a:	4133      	asrs	r3, r6
1000684c:	432a      	orrs	r2, r5

1000684e <da_add>:
1000684e:	1880      	adds	r0, r0, r2
10006850:	4159      	adcs	r1, r3

10006852 <da_pack>:
10006852:	0fcb      	lsrs	r3, r1, #31
10006854:	d005      	beq.n	10006862 <da_pack+0x10>
10006856:	43c9      	mvns	r1, r1
10006858:	43c0      	mvns	r0, r0
1000685a:	2200      	movs	r2, #0
1000685c:	4264      	negs	r4, r4
1000685e:	4150      	adcs	r0, r2
10006860:	4151      	adcs	r1, r2
10006862:	4662      	mov	r2, ip
10006864:	0d4d      	lsrs	r5, r1, #21
10006866:	d128      	bne.n	100068ba <da_0>
10006868:	0d0d      	lsrs	r5, r1, #20
1000686a:	d107      	bne.n	1000687c <da_1>
1000686c:	2800      	cmp	r0, #0
1000686e:	d01f      	beq.n	100068b0 <da_5>

10006870 <da_2>:
10006870:	1924      	adds	r4, r4, r4
10006872:	4140      	adcs	r0, r0
10006874:	4149      	adcs	r1, r1
10006876:	3a01      	subs	r2, #1
10006878:	0d0d      	lsrs	r5, r1, #20
1000687a:	d0f9      	beq.n	10006870 <da_2>

1000687c <da_1>:
1000687c:	0064      	lsls	r4, r4, #1
1000687e:	d306      	bcc.n	1000688e <da_3>

10006880 <da_4>:
10006880:	3001      	adds	r0, #1
10006882:	d300      	bcc.n	10006886 <da_4+0x6>
10006884:	3101      	adds	r1, #1
10006886:	2c00      	cmp	r4, #0
10006888:	d101      	bne.n	1000688e <da_3>
1000688a:	0840      	lsrs	r0, r0, #1
1000688c:	0040      	lsls	r0, r0, #1

1000688e <da_3>:
1000688e:	3a01      	subs	r2, #1
10006890:	d40b      	bmi.n	100068aa <da_6>
10006892:	1c94      	adds	r4, r2, #2
10006894:	0ae4      	lsrs	r4, r4, #11
10006896:	d104      	bne.n	100068a2 <da_7>
10006898:	0512      	lsls	r2, r2, #20
1000689a:	4411      	add	r1, r2
1000689c:	07db      	lsls	r3, r3, #31
1000689e:	4419      	add	r1, r3
100068a0:	bdf0      	pop	{r4, r5, r6, r7, pc}

100068a2 <da_7>:
100068a2:	07d9      	lsls	r1, r3, #31
100068a4:	4b20      	ldr	r3, [pc, #128]	@ (10006928 <da_xmgty+0x4>)
100068a6:	4319      	orrs	r1, r3
100068a8:	e000      	b.n	100068ac <da_6+0x2>

100068aa <da_6>:
100068aa:	07d9      	lsls	r1, r3, #31
100068ac:	2000      	movs	r0, #0
100068ae:	bdf0      	pop	{r4, r5, r6, r7, pc}

100068b0 <da_5>:
100068b0:	2900      	cmp	r1, #0
100068b2:	d1dd      	bne.n	10006870 <da_2>
100068b4:	2c00      	cmp	r4, #0
100068b6:	d1db      	bne.n	10006870 <da_2>
100068b8:	bdf0      	pop	{r4, r5, r6, r7, pc}

100068ba <da_0>:
100068ba:	3201      	adds	r2, #1
100068bc:	07c6      	lsls	r6, r0, #31
100068be:	0840      	lsrs	r0, r0, #1
100068c0:	07cd      	lsls	r5, r1, #31
100068c2:	4328      	orrs	r0, r5
100068c4:	0849      	lsrs	r1, r1, #1
100068c6:	2e00      	cmp	r6, #0
100068c8:	d0e1      	beq.n	1000688e <da_3>
100068ca:	e7d9      	b.n	10006880 <da_4>

100068cc <da_xrgty>:
100068cc:	2e3c      	cmp	r6, #60	@ 0x3c
100068ce:	da29      	bge.n	10006924 <da_xmgty>
100068d0:	3e20      	subs	r6, #32
100068d2:	3740      	adds	r7, #64	@ 0x40
100068d4:	0014      	movs	r4, r2
100068d6:	40bc      	lsls	r4, r7
100068d8:	d000      	beq.n	100068dc <da_xrgty+0x10>
100068da:	2401      	movs	r4, #1
100068dc:	40f2      	lsrs	r2, r6
100068de:	4314      	orrs	r4, r2
100068e0:	001a      	movs	r2, r3
100068e2:	40bb      	lsls	r3, r7
100068e4:	431c      	orrs	r4, r3
100068e6:	17d3      	asrs	r3, r2, #31
100068e8:	e7ac      	b.n	10006844 <da_xgty0>

100068ea <da_ygtx>:
100068ea:	46ac      	mov	ip, r5
100068ec:	2f20      	cmp	r7, #32
100068ee:	da08      	bge.n	10006902 <da_yrgtx>
100068f0:	3620      	adds	r6, #32
100068f2:	0004      	movs	r4, r0
100068f4:	40b4      	lsls	r4, r6

100068f6 <da_ygtx0>:
100068f6:	000d      	movs	r5, r1
100068f8:	40b5      	lsls	r5, r6
100068fa:	40f8      	lsrs	r0, r7
100068fc:	4139      	asrs	r1, r7
100068fe:	4328      	orrs	r0, r5
10006900:	e7a5      	b.n	1000684e <da_add>

10006902 <da_yrgtx>:
10006902:	2f3c      	cmp	r7, #60	@ 0x3c
10006904:	da0c      	bge.n	10006920 <da_ymgtx>
10006906:	3f20      	subs	r7, #32
10006908:	3640      	adds	r6, #64	@ 0x40
1000690a:	0004      	movs	r4, r0
1000690c:	40b4      	lsls	r4, r6
1000690e:	d000      	beq.n	10006912 <da_yrgtx+0x10>
10006910:	2401      	movs	r4, #1
10006912:	40f8      	lsrs	r0, r7
10006914:	4304      	orrs	r4, r0
10006916:	0008      	movs	r0, r1
10006918:	40b1      	lsls	r1, r6
1000691a:	430c      	orrs	r4, r1
1000691c:	17c1      	asrs	r1, r0, #31
1000691e:	e7ea      	b.n	100068f6 <da_ygtx0>

10006920 <da_ymgtx>:
10006920:	0010      	movs	r0, r2
10006922:	0019      	movs	r1, r3

10006924 <da_xmgty>:
10006924:	2400      	movs	r4, #0
10006926:	e794      	b.n	10006852 <da_pack>
10006928:	7ff00000 	.word	0x7ff00000

1000692c <dmul_shim>:
1000692c:	b5f0      	push	{r4, r5, r6, r7, lr}
1000692e:	0d0c      	lsrs	r4, r1, #20
10006930:	1e66      	subs	r6, r4, #1
10006932:	0536      	lsls	r6, r6, #20
10006934:	1b89      	subs	r1, r1, r6
10006936:	0ae6      	lsrs	r6, r4, #11
10006938:	0564      	lsls	r4, r4, #21
1000693a:	0d64      	lsrs	r4, r4, #21
1000693c:	d002      	beq.n	10006944 <l12_1>
1000693e:	1c65      	adds	r5, r4, #1
10006940:	0aed      	lsrs	r5, r5, #11
10006942:	d004      	beq.n	1000694e <l12_2>

10006944 <l12_1>:
10006944:	2000      	movs	r0, #0
10006946:	2101      	movs	r1, #1
10006948:	0509      	lsls	r1, r1, #20
1000694a:	3c80      	subs	r4, #128	@ 0x80
1000694c:	0324      	lsls	r4, r4, #12

1000694e <l12_2>:
1000694e:	46a4      	mov	ip, r4
10006950:	0d1c      	lsrs	r4, r3, #20
10006952:	1e67      	subs	r7, r4, #1
10006954:	053f      	lsls	r7, r7, #20
10006956:	1bdb      	subs	r3, r3, r7
10006958:	0ae7      	lsrs	r7, r4, #11
1000695a:	0564      	lsls	r4, r4, #21
1000695c:	0d64      	lsrs	r4, r4, #21
1000695e:	d002      	beq.n	10006966 <l13_1>
10006960:	1c65      	adds	r5, r4, #1
10006962:	0aed      	lsrs	r5, r5, #11
10006964:	d004      	beq.n	10006970 <l13_2>

10006966 <l13_1>:
10006966:	2200      	movs	r2, #0
10006968:	2301      	movs	r3, #1
1000696a:	051b      	lsls	r3, r3, #20
1000696c:	3c80      	subs	r4, #128	@ 0x80
1000696e:	0324      	lsls	r4, r4, #12

10006970 <l13_2>:
10006970:	4077      	eors	r7, r6
10006972:	4464      	add	r4, ip
10006974:	b497      	push	{r0, r1, r2, r4, r7}
10006976:	b284      	uxth	r4, r0
10006978:	b296      	uxth	r6, r2
1000697a:	4374      	muls	r4, r6
1000697c:	0c07      	lsrs	r7, r0, #16
1000697e:	437e      	muls	r6, r7
10006980:	0c15      	lsrs	r5, r2, #16
10006982:	436f      	muls	r7, r5
10006984:	b280      	uxth	r0, r0
10006986:	4368      	muls	r0, r5
10006988:	1836      	adds	r6, r6, r0
1000698a:	d302      	bcc.n	10006992 <l14_1>
1000698c:	2001      	movs	r0, #1
1000698e:	0400      	lsls	r0, r0, #16
10006990:	183f      	adds	r7, r7, r0

10006992 <l14_1>:
10006992:	0430      	lsls	r0, r6, #16
10006994:	0c35      	lsrs	r5, r6, #16
10006996:	1900      	adds	r0, r0, r4
10006998:	417d      	adcs	r5, r7
1000699a:	4684      	mov	ip, r0
1000699c:	b288      	uxth	r0, r1
1000699e:	b29a      	uxth	r2, r3
100069a0:	4350      	muls	r0, r2
100069a2:	0c0c      	lsrs	r4, r1, #16
100069a4:	4362      	muls	r2, r4
100069a6:	0c1f      	lsrs	r7, r3, #16
100069a8:	437c      	muls	r4, r7
100069aa:	b28e      	uxth	r6, r1
100069ac:	437e      	muls	r6, r7
100069ae:	1992      	adds	r2, r2, r6
100069b0:	d302      	bcc.n	100069b8 <l15_1>
100069b2:	2601      	movs	r6, #1
100069b4:	0436      	lsls	r6, r6, #16
100069b6:	19a4      	adds	r4, r4, r6

100069b8 <l15_1>:
100069b8:	0416      	lsls	r6, r2, #16
100069ba:	0c17      	lsrs	r7, r2, #16
100069bc:	1836      	adds	r6, r6, r0
100069be:	4167      	adcs	r7, r4
100069c0:	bc01      	pop	{r0}
100069c2:	b281      	uxth	r1, r0
100069c4:	b29a      	uxth	r2, r3
100069c6:	4351      	muls	r1, r2
100069c8:	0c04      	lsrs	r4, r0, #16
100069ca:	4362      	muls	r2, r4
100069cc:	0c1b      	lsrs	r3, r3, #16
100069ce:	435c      	muls	r4, r3
100069d0:	b280      	uxth	r0, r0
100069d2:	4358      	muls	r0, r3
100069d4:	1812      	adds	r2, r2, r0
100069d6:	d302      	bcc.n	100069de <l16_1>
100069d8:	2001      	movs	r0, #1
100069da:	0400      	lsls	r0, r0, #16
100069dc:	1824      	adds	r4, r4, r0

100069de <l16_1>:
100069de:	0410      	lsls	r0, r2, #16
100069e0:	0c13      	lsrs	r3, r2, #16
100069e2:	1840      	adds	r0, r0, r1
100069e4:	4163      	adcs	r3, r4
100069e6:	182d      	adds	r5, r5, r0
100069e8:	415e      	adcs	r6, r3
100069ea:	2000      	movs	r0, #0
100069ec:	4147      	adcs	r7, r0
100069ee:	bc06      	pop	{r1, r2}
100069f0:	b288      	uxth	r0, r1
100069f2:	b293      	uxth	r3, r2
100069f4:	4358      	muls	r0, r3
100069f6:	0c0c      	lsrs	r4, r1, #16
100069f8:	4363      	muls	r3, r4
100069fa:	0c12      	lsrs	r2, r2, #16
100069fc:	4354      	muls	r4, r2
100069fe:	b289      	uxth	r1, r1
10006a00:	4351      	muls	r1, r2
10006a02:	185b      	adds	r3, r3, r1
10006a04:	d302      	bcc.n	10006a0c <l17_1>
10006a06:	2101      	movs	r1, #1
10006a08:	0409      	lsls	r1, r1, #16
10006a0a:	1864      	adds	r4, r4, r1

10006a0c <l17_1>:
10006a0c:	0419      	lsls	r1, r3, #16
10006a0e:	0c1a      	lsrs	r2, r3, #16
10006a10:	1809      	adds	r1, r1, r0
10006a12:	4162      	adcs	r2, r4
10006a14:	186d      	adds	r5, r5, r1
10006a16:	4156      	adcs	r6, r2
10006a18:	2000      	movs	r0, #0
10006a1a:	4147      	adcs	r7, r0
10006a1c:	bc18      	pop	{r3, r4}
10006a1e:	02f9      	lsls	r1, r7, #11
10006a20:	0d72      	lsrs	r2, r6, #21
10006a22:	4311      	orrs	r1, r2
10006a24:	02f0      	lsls	r0, r6, #11
10006a26:	0d6a      	lsrs	r2, r5, #21
10006a28:	4310      	orrs	r0, r2
10006a2a:	02ed      	lsls	r5, r5, #11
10006a2c:	0d0a      	lsrs	r2, r1, #20
10006a2e:	d103      	bne.n	10006a38 <l17_1+0x2c>
10006a30:	196d      	adds	r5, r5, r5
10006a32:	4140      	adcs	r0, r0
10006a34:	4149      	adcs	r1, r1
10006a36:	3b01      	subs	r3, #1
10006a38:	4e12      	ldr	r6, [pc, #72]	@ (10006a84 <dm_1+0xa>)
10006a3a:	1b9b      	subs	r3, r3, r6
10006a3c:	0076      	lsls	r6, r6, #1
10006a3e:	42b3      	cmp	r3, r6
10006a40:	d20e      	bcs.n	10006a60 <dm_0>
10006a42:	006d      	lsls	r5, r5, #1
10006a44:	d307      	bcc.n	10006a56 <l17_1+0x4a>
10006a46:	3001      	adds	r0, #1
10006a48:	2600      	movs	r6, #0
10006a4a:	4171      	adcs	r1, r6
10006a4c:	4666      	mov	r6, ip
10006a4e:	4335      	orrs	r5, r6
10006a50:	d101      	bne.n	10006a56 <l17_1+0x4a>
10006a52:	0840      	lsrs	r0, r0, #1
10006a54:	0040      	lsls	r0, r0, #1
10006a56:	051b      	lsls	r3, r3, #20
10006a58:	18c9      	adds	r1, r1, r3

10006a5a <dm_2>:
10006a5a:	07e4      	lsls	r4, r4, #31
10006a5c:	4421      	add	r1, r4
10006a5e:	bdf0      	pop	{r4, r5, r6, r7, pc}

10006a60 <dm_0>:
10006a60:	da0b      	bge.n	10006a7a <dm_1>
10006a62:	3301      	adds	r3, #1
10006a64:	d106      	bne.n	10006a74 <dm_0+0x14>
10006a66:	3001      	adds	r0, #1
10006a68:	d104      	bne.n	10006a74 <dm_0+0x14>
10006a6a:	3101      	adds	r1, #1
10006a6c:	0d4f      	lsrs	r7, r1, #21
10006a6e:	d001      	beq.n	10006a74 <dm_0+0x14>
10006a70:	0849      	lsrs	r1, r1, #1
10006a72:	e7f2      	b.n	10006a5a <dm_2>
10006a74:	07e1      	lsls	r1, r4, #31
10006a76:	2000      	movs	r0, #0
10006a78:	bdf0      	pop	{r4, r5, r6, r7, pc}

10006a7a <dm_1>:
10006a7a:	3601      	adds	r6, #1
10006a7c:	0531      	lsls	r1, r6, #20
10006a7e:	2000      	movs	r0, #0
10006a80:	e7eb      	b.n	10006a5a <dm_2>
10006a82:	0000      	.short	0x0000
10006a84:	000003ff 	.word	0x000003ff

10006a88 <ddiv_shim>:
10006a88:	b5f0      	push	{r4, r5, r6, r7, lr}

10006a8a <ddiv0>:
10006a8a:	0d1c      	lsrs	r4, r3, #20
10006a8c:	1e67      	subs	r7, r4, #1
10006a8e:	053f      	lsls	r7, r7, #20
10006a90:	1bdb      	subs	r3, r3, r7
10006a92:	0ae7      	lsrs	r7, r4, #11
10006a94:	0564      	lsls	r4, r4, #21
10006a96:	0d64      	lsrs	r4, r4, #21
10006a98:	d002      	beq.n	10006aa0 <l20_1>
10006a9a:	1c66      	adds	r6, r4, #1
10006a9c:	0af6      	lsrs	r6, r6, #11
10006a9e:	d004      	beq.n	10006aaa <l20_2>

10006aa0 <l20_1>:
10006aa0:	2200      	movs	r2, #0
10006aa2:	2301      	movs	r3, #1
10006aa4:	051b      	lsls	r3, r3, #20
10006aa6:	3c80      	subs	r4, #128	@ 0x80
10006aa8:	0324      	lsls	r4, r4, #12

10006aaa <l20_2>:
10006aaa:	25d0      	movs	r5, #208	@ 0xd0
10006aac:	062d      	lsls	r5, r5, #24
10006aae:	2600      	movs	r6, #0
10006ab0:	43f6      	mvns	r6, r6
10006ab2:	662e      	str	r6, [r5, #96]	@ 0x60
10006ab4:	091e      	lsrs	r6, r3, #4
10006ab6:	666e      	str	r6, [r5, #100]	@ 0x64
10006ab8:	0fce      	lsrs	r6, r1, #31
10006aba:	19f6      	adds	r6, r6, r7
10006abc:	46b4      	mov	ip, r6
10006abe:	0049      	lsls	r1, r1, #1
10006ac0:	0d4f      	lsrs	r7, r1, #21
10006ac2:	d002      	beq.n	10006aca <l20_2+0x20>
10006ac4:	1c7e      	adds	r6, r7, #1
10006ac6:	0af6      	lsrs	r6, r6, #11
10006ac8:	d003      	beq.n	10006ad2 <l20_2+0x28>
10006aca:	2000      	movs	r0, #0
10006acc:	2100      	movs	r1, #0
10006ace:	3f40      	subs	r7, #64	@ 0x40
10006ad0:	033f      	lsls	r7, r7, #12
10006ad2:	1b3e      	subs	r6, r7, r4
10006ad4:	00b6      	lsls	r6, r6, #2
10006ad6:	44b4      	add	ip, r6
10006ad8:	3f01      	subs	r7, #1
10006ada:	057f      	lsls	r7, r7, #21
10006adc:	1bc9      	subs	r1, r1, r7
10006ade:	0849      	lsrs	r1, r1, #1
10006ae0:	6f2e      	ldr	r6, [r5, #112]	@ 0x70
10006ae2:	3601      	adds	r6, #1
10006ae4:	0876      	lsrs	r6, r6, #1
10006ae6:	029c      	lsls	r4, r3, #10
10006ae8:	0d95      	lsrs	r5, r2, #22
10006aea:	4325      	orrs	r5, r4
10006aec:	4375      	muls	r5, r6
10006aee:	13ed      	asrs	r5, r5, #15
10006af0:	4375      	muls	r5, r6
10006af2:	13ad      	asrs	r5, r5, #14
10006af4:	3501      	adds	r5, #1
10006af6:	106d      	asrs	r5, r5, #1
10006af8:	03f6      	lsls	r6, r6, #15
10006afa:	1b76      	subs	r6, r6, r5
10006afc:	b40c      	push	{r2, r3}
10006afe:	02cc      	lsls	r4, r1, #11
10006b00:	0d45      	lsrs	r5, r0, #21
10006b02:	432c      	orrs	r4, r5
10006b04:	b2a2      	uxth	r2, r4
10006b06:	b2b3      	uxth	r3, r6
10006b08:	435a      	muls	r2, r3
10006b0a:	0c27      	lsrs	r7, r4, #16
10006b0c:	437b      	muls	r3, r7
10006b0e:	0c35      	lsrs	r5, r6, #16
10006b10:	436f      	muls	r7, r5
10006b12:	b2a4      	uxth	r4, r4
10006b14:	436c      	muls	r4, r5
10006b16:	191b      	adds	r3, r3, r4
10006b18:	d302      	bcc.n	10006b20 <l21_1>
10006b1a:	2401      	movs	r4, #1
10006b1c:	0424      	lsls	r4, r4, #16
10006b1e:	193f      	adds	r7, r7, r4

10006b20 <l21_1>:
10006b20:	041c      	lsls	r4, r3, #16
10006b22:	0c1d      	lsrs	r5, r3, #16
10006b24:	18a4      	adds	r4, r4, r2
10006b26:	417d      	adcs	r5, r7
10006b28:	1924      	adds	r4, r4, r4
10006b2a:	416d      	adcs	r5, r5
10006b2c:	9a00      	ldr	r2, [sp, #0]
10006b2e:	b291      	uxth	r1, r2
10006b30:	b2ac      	uxth	r4, r5
10006b32:	4361      	muls	r1, r4
10006b34:	0c17      	lsrs	r7, r2, #16
10006b36:	437c      	muls	r4, r7
10006b38:	0c2b      	lsrs	r3, r5, #16
10006b3a:	435f      	muls	r7, r3
10006b3c:	b292      	uxth	r2, r2
10006b3e:	435a      	muls	r2, r3
10006b40:	18a4      	adds	r4, r4, r2
10006b42:	d302      	bcc.n	10006b4a <l22_1>
10006b44:	2201      	movs	r2, #1
10006b46:	0412      	lsls	r2, r2, #16
10006b48:	18bf      	adds	r7, r7, r2

10006b4a <l22_1>:
10006b4a:	0422      	lsls	r2, r4, #16
10006b4c:	0c23      	lsrs	r3, r4, #16
10006b4e:	1852      	adds	r2, r2, r1
10006b50:	417b      	adcs	r3, r7
10006b52:	9c01      	ldr	r4, [sp, #4]
10006b54:	436c      	muls	r4, r5
10006b56:	191b      	adds	r3, r3, r4
10006b58:	0e52      	lsrs	r2, r2, #25
10006b5a:	01d9      	lsls	r1, r3, #7
10006b5c:	430a      	orrs	r2, r1
10006b5e:	0144      	lsls	r4, r0, #5
10006b60:	1aa0      	subs	r0, r4, r2
10006b62:	b281      	uxth	r1, r0
10006b64:	b2b2      	uxth	r2, r6
10006b66:	4351      	muls	r1, r2
10006b68:	1403      	asrs	r3, r0, #16
10006b6a:	435a      	muls	r2, r3
10006b6c:	0c36      	lsrs	r6, r6, #16
10006b6e:	4373      	muls	r3, r6
10006b70:	b287      	uxth	r7, r0
10006b72:	4377      	muls	r7, r6
10006b74:	17d6      	asrs	r6, r2, #31
10006b76:	19d2      	adds	r2, r2, r7
10006b78:	2700      	movs	r7, #0
10006b7a:	417e      	adcs	r6, r7
10006b7c:	0436      	lsls	r6, r6, #16
10006b7e:	199b      	adds	r3, r3, r6
10006b80:	0417      	lsls	r7, r2, #16
10006b82:	0c16      	lsrs	r6, r2, #16
10006b84:	187f      	adds	r7, r7, r1
10006b86:	415e      	adcs	r6, r3
10006b88:	1673      	asrs	r3, r6, #25
10006b8a:	18ed      	adds	r5, r5, r3
10006b8c:	01f3      	lsls	r3, r6, #7
10006b8e:	2600      	movs	r6, #0
10006b90:	3380      	adds	r3, #128	@ 0x80
10006b92:	4175      	adcs	r5, r6
10006b94:	0fa9      	lsrs	r1, r5, #30
10006b96:	d106      	bne.n	10006ba6 <dd_0>
10006b98:	0064      	lsls	r4, r4, #1
10006b9a:	0a69      	lsrs	r1, r5, #9
10006b9c:	05e8      	lsls	r0, r5, #23
10006b9e:	0a5b      	lsrs	r3, r3, #9
10006ba0:	4318      	orrs	r0, r3
10006ba2:	d209      	bcs.n	10006bb8 <dd_1>
10006ba4:	e02f      	b.n	10006c06 <dd_2>

10006ba6 <dd_0>:
10006ba6:	2204      	movs	r2, #4
10006ba8:	4494      	add	ip, r2
10006baa:	3380      	adds	r3, #128	@ 0x80
10006bac:	4175      	adcs	r5, r6
10006bae:	0aa9      	lsrs	r1, r5, #10
10006bb0:	05a8      	lsls	r0, r5, #22
10006bb2:	0a9b      	lsrs	r3, r3, #10
10006bb4:	4318      	orrs	r0, r3
10006bb6:	d326      	bcc.n	10006c06 <dd_2>

10006bb8 <dd_1>:
10006bb8:	4140      	adcs	r0, r0
10006bba:	4149      	adcs	r1, r1
10006bbc:	0424      	lsls	r4, r4, #16
10006bbe:	9a00      	ldr	r2, [sp, #0]
10006bc0:	9b01      	ldr	r3, [sp, #4]
10006bc2:	000d      	movs	r5, r1
10006bc4:	4355      	muls	r5, r2
10006bc6:	1b64      	subs	r4, r4, r5
10006bc8:	4343      	muls	r3, r0
10006bca:	1ae4      	subs	r4, r4, r3
10006bcc:	b295      	uxth	r5, r2
10006bce:	b286      	uxth	r6, r0
10006bd0:	4375      	muls	r5, r6
10006bd2:	0c17      	lsrs	r7, r2, #16
10006bd4:	437e      	muls	r6, r7
10006bd6:	0c03      	lsrs	r3, r0, #16
10006bd8:	435f      	muls	r7, r3
10006bda:	b292      	uxth	r2, r2
10006bdc:	435a      	muls	r2, r3
10006bde:	18b6      	adds	r6, r6, r2
10006be0:	d302      	bcc.n	10006be8 <l24_1>
10006be2:	2201      	movs	r2, #1
10006be4:	0412      	lsls	r2, r2, #16
10006be6:	18bf      	adds	r7, r7, r2

10006be8 <l24_1>:
10006be8:	0432      	lsls	r2, r6, #16
10006bea:	0c33      	lsrs	r3, r6, #16
10006bec:	1952      	adds	r2, r2, r5
10006bee:	417b      	adcs	r3, r7
10006bf0:	4252      	negs	r2, r2
10006bf2:	419c      	sbcs	r4, r3
10006bf4:	2c00      	cmp	r4, #0
10006bf6:	d402      	bmi.n	10006bfe <l24_1+0x16>
10006bf8:	2200      	movs	r2, #0
10006bfa:	3001      	adds	r0, #1
10006bfc:	4151      	adcs	r1, r2
10006bfe:	0840      	lsrs	r0, r0, #1
10006c00:	07ca      	lsls	r2, r1, #31
10006c02:	4310      	orrs	r0, r2
10006c04:	0849      	lsrs	r1, r1, #1

10006c06 <dd_2>:
10006c06:	b002      	add	sp, #8
10006c08:	4662      	mov	r2, ip
10006c0a:	07d7      	lsls	r7, r2, #31
10006c0c:	1092      	asrs	r2, r2, #2
10006c0e:	4b08      	ldr	r3, [pc, #32]	@ (10006c30 <dd_4+0x6>)
10006c10:	18d2      	adds	r2, r2, r3
10006c12:	4b08      	ldr	r3, [pc, #32]	@ (10006c34 <dd_4+0xa>)
10006c14:	429a      	cmp	r2, r3
10006c16:	d203      	bcs.n	10006c20 <dd_3>
10006c18:	0512      	lsls	r2, r2, #20
10006c1a:	1889      	adds	r1, r1, r2

10006c1c <dd_5>:
10006c1c:	19c9      	adds	r1, r1, r7
10006c1e:	bdf0      	pop	{r4, r5, r6, r7, pc}

10006c20 <dd_3>:
10006c20:	2000      	movs	r0, #0
10006c22:	2a00      	cmp	r2, #0
10006c24:	dc01      	bgt.n	10006c2a <dd_4>
10006c26:	0039      	movs	r1, r7
10006c28:	bdf0      	pop	{r4, r5, r6, r7, pc}

10006c2a <dd_4>:
10006c2a:	3301      	adds	r3, #1
10006c2c:	0519      	lsls	r1, r3, #20
10006c2e:	e7f5      	b.n	10006c1c <dd_5>
10006c30:	000003fd 	.word	0x000003fd
10006c34:	000007fe 	.word	0x000007fe

10006c38 <double2uint_shim>:
10006c38:	2200      	movs	r2, #0

10006c3a <double2ufix_shim>:
10006c3a:	b500      	push	{lr}
10006c3c:	3220      	adds	r2, #32
10006c3e:	f000 f804 	bl	10006c4a <double2ufix64_shim>
10006c42:	0008      	movs	r0, r1
10006c44:	bd00      	pop	{pc}
	...

10006c48 <double2uint64_shim>:
10006c48:	2200      	movs	r2, #0

10006c4a <double2ufix64_shim>:
10006c4a:	150b      	asrs	r3, r1, #20
10006c4c:	d40a      	bmi.n	10006c64 <ret_dzero>

10006c4e <d2fix>:
10006c4e:	b510      	push	{r4, lr}
10006c50:	4694      	mov	ip, r2
10006c52:	f000 f879 	bl	10006d48 <dunpacks>
10006c56:	1414      	asrs	r4, r2, #16
10006c58:	3401      	adds	r4, #1
10006c5a:	da00      	bge.n	10006c5e <d2fix+0x10>
10006c5c:	2100      	movs	r1, #0
10006c5e:	17cb      	asrs	r3, r1, #31
10006c60:	4c14      	ldr	r4, [pc, #80]	@ (10006cb4 <d2fix_a+0x4a>)
10006c62:	4720      	bx	r4

10006c64 <ret_dzero>:
10006c64:	2000      	movs	r0, #0
10006c66:	2100      	movs	r1, #0
10006c68:	4770      	bx	lr

10006c6a <d2fix_a>:
10006c6a:	4462      	add	r2, ip
10006c6c:	3a34      	subs	r2, #52	@ 0x34
10006c6e:	d40c      	bmi.n	10006c8a <d2fix_a+0x20>
10006c70:	2a0c      	cmp	r2, #12
10006c72:	da07      	bge.n	10006c84 <d2fix_a+0x1a>
10006c74:	0004      	movs	r4, r0
10006c76:	4091      	lsls	r1, r2
10006c78:	4090      	lsls	r0, r2
10006c7a:	4252      	negs	r2, r2
10006c7c:	3220      	adds	r2, #32
10006c7e:	40d4      	lsrs	r4, r2
10006c80:	4321      	orrs	r1, r4
10006c82:	bd10      	pop	{r4, pc}
10006c84:	43d8      	mvns	r0, r3
10006c86:	43d9      	mvns	r1, r3
10006c88:	bd10      	pop	{r4, pc}
10006c8a:	3220      	adds	r2, #32
10006c8c:	d407      	bmi.n	10006c9e <d2fix_a+0x34>
10006c8e:	460c      	mov	r4, r1
10006c90:	4094      	lsls	r4, r2
10006c92:	4252      	negs	r2, r2
10006c94:	3220      	adds	r2, #32
10006c96:	4111      	asrs	r1, r2
10006c98:	40d0      	lsrs	r0, r2
10006c9a:	4320      	orrs	r0, r4
10006c9c:	bd10      	pop	{r4, pc}
10006c9e:	0008      	movs	r0, r1
10006ca0:	17c9      	asrs	r1, r1, #31
10006ca2:	3220      	adds	r2, #32
10006ca4:	d403      	bmi.n	10006cae <d2fix_a+0x44>
10006ca6:	4252      	negs	r2, r2
10006ca8:	3220      	adds	r2, #32
10006caa:	4110      	asrs	r0, r2
10006cac:	bd10      	pop	{r4, pc}
10006cae:	0018      	movs	r0, r3
10006cb0:	0019      	movs	r1, r3
10006cb2:	bd10      	pop	{r4, pc}
10006cb4:	10006c6b 	.word	0x10006c6b

10006cb8 <uint2double_shim>:
10006cb8:	2100      	movs	r1, #0

10006cba <ufix2double_shim>:
10006cba:	000a      	movs	r2, r1
10006cbc:	2100      	movs	r1, #0
10006cbe:	e004      	b.n	10006cca <ufix642double_shim>

10006cc0 <int2double_shim>:
10006cc0:	2100      	movs	r1, #0

10006cc2 <fix2double_shim>:
10006cc2:	000a      	movs	r2, r1
10006cc4:	17c1      	asrs	r1, r0, #31
10006cc6:	e004      	b.n	10006cd2 <fix642double_shim>

10006cc8 <uint642double_shim>:
10006cc8:	2200      	movs	r2, #0

10006cca <ufix642double_shim>:
10006cca:	2300      	movs	r3, #0
10006ccc:	e006      	b.n	10006cdc <uf2d>
10006cce:	46c0      	nop			@ (mov r8, r8)

10006cd0 <int642double_shim>:
10006cd0:	2200      	movs	r2, #0

10006cd2 <fix642double_shim>:
10006cd2:	17cb      	asrs	r3, r1, #31
10006cd4:	4058      	eors	r0, r3
10006cd6:	4059      	eors	r1, r3
10006cd8:	1ac0      	subs	r0, r0, r3
10006cda:	4199      	sbcs	r1, r3

10006cdc <uf2d>:
10006cdc:	b530      	push	{r4, r5, lr}
10006cde:	4c18      	ldr	r4, [pc, #96]	@ (10006d40 <uf2d+0x64>)
10006ce0:	1aa2      	subs	r2, r4, r2
10006ce2:	2900      	cmp	r1, #0
10006ce4:	d103      	bne.n	10006cee <uf2d+0x12>
10006ce6:	0001      	movs	r1, r0
10006ce8:	d010      	beq.n	10006d0c <uf2d+0x30>
10006cea:	2000      	movs	r0, #0
10006cec:	3a20      	subs	r2, #32
10006cee:	154c      	asrs	r4, r1, #21
10006cf0:	d112      	bne.n	10006d18 <uf2d+0x3c>
10006cf2:	d204      	bcs.n	10006cfe <uf2d+0x22>
10006cf4:	3a01      	subs	r2, #1
10006cf6:	1800      	adds	r0, r0, r0
10006cf8:	4149      	adcs	r1, r1
10006cfa:	0d4c      	lsrs	r4, r1, #21
10006cfc:	d3fa      	bcc.n	10006cf4 <uf2d+0x18>
10006cfe:	4c11      	ldr	r4, [pc, #68]	@ (10006d44 <uf2d+0x68>)
10006d00:	42a2      	cmp	r2, r4
10006d02:	d204      	bcs.n	10006d0e <uf2d+0x32>
10006d04:	0512      	lsls	r2, r2, #20
10006d06:	1889      	adds	r1, r1, r2
10006d08:	07db      	lsls	r3, r3, #31
10006d0a:	18c9      	adds	r1, r1, r3
10006d0c:	bd30      	pop	{r4, r5, pc}
10006d0e:	43d2      	mvns	r2, r2
10006d10:	0d52      	lsrs	r2, r2, #21
10006d12:	2000      	movs	r0, #0
10006d14:	2100      	movs	r1, #0
10006d16:	e7f5      	b.n	10006d04 <uf2d+0x28>
10006d18:	d403      	bmi.n	10006d22 <uf2d+0x46>
10006d1a:	3a01      	subs	r2, #1
10006d1c:	1800      	adds	r0, r0, r0
10006d1e:	4149      	adcs	r1, r1
10006d20:	d5fb      	bpl.n	10006d1a <uf2d+0x3e>
10006d22:	320b      	adds	r2, #11
10006d24:	0544      	lsls	r4, r0, #21
10006d26:	0ac0      	lsrs	r0, r0, #11
10006d28:	054d      	lsls	r5, r1, #21
10006d2a:	4328      	orrs	r0, r5
10006d2c:	0ac9      	lsrs	r1, r1, #11
10006d2e:	0064      	lsls	r4, r4, #1
10006d30:	d003      	beq.n	10006d3a <uf2d+0x5e>
10006d32:	2400      	movs	r4, #0
10006d34:	4160      	adcs	r0, r4
10006d36:	4161      	adcs	r1, r4
10006d38:	e7e1      	b.n	10006cfe <uf2d+0x22>
10006d3a:	d3e0      	bcc.n	10006cfe <uf2d+0x22>
10006d3c:	0844      	lsrs	r4, r0, #1
10006d3e:	e7f8      	b.n	10006d32 <uf2d+0x56>
10006d40:	00000432 	.word	0x00000432
10006d44:	000007fe 	.word	0x000007fe

10006d48 <dunpacks>:
10006d48:	0d0a      	lsrs	r2, r1, #20
10006d4a:	0fcc      	lsrs	r4, r1, #31
10006d4c:	1e53      	subs	r3, r2, #1
10006d4e:	051b      	lsls	r3, r3, #20
10006d50:	1ac9      	subs	r1, r1, r3
10006d52:	0552      	lsls	r2, r2, #21
10006d54:	d303      	bcc.n	10006d5e <l60_1>
10006d56:	43c9      	mvns	r1, r1
10006d58:	4240      	negs	r0, r0
10006d5a:	d300      	bcc.n	10006d5e <l60_1>
10006d5c:	3101      	adds	r1, #1

10006d5e <l60_1>:
10006d5e:	0d52      	lsrs	r2, r2, #21
10006d60:	d003      	beq.n	10006d6a <l60_2>
10006d62:	1c53      	adds	r3, r2, #1
10006d64:	0adb      	lsrs	r3, r3, #11
10006d66:	d007      	beq.n	10006d78 <l60_3>
10006d68:	1b12      	subs	r2, r2, r4

10006d6a <l60_2>:
10006d6a:	2000      	movs	r0, #0
10006d6c:	0064      	lsls	r4, r4, #1
10006d6e:	1c61      	adds	r1, r4, #1
10006d70:	0789      	lsls	r1, r1, #30
10006d72:	1289      	asrs	r1, r1, #10
10006d74:	3a80      	subs	r2, #128	@ 0x80
10006d76:	0312      	lsls	r2, r2, #12

10006d78 <l60_3>:
10006d78:	4b01      	ldr	r3, [pc, #4]	@ (10006d80 <l60_3+0x8>)
10006d7a:	1ad2      	subs	r2, r2, r3
10006d7c:	4770      	bx	lr
10006d7e:	0000      	.short	0x0000
10006d80:	000003ff 	.word	0x000003ff

10006d84 <dreduce>:
10006d84:	3202      	adds	r2, #2
10006d86:	d425      	bmi.n	10006dd4 <dreduce+0x50>
10006d88:	2a0c      	cmp	r2, #12
10006d8a:	da1c      	bge.n	10006dc6 <dreduce+0x42>
10006d8c:	2511      	movs	r5, #17
10006d8e:	1aad      	subs	r5, r5, r2
10006d90:	000b      	movs	r3, r1
10006d92:	412b      	asrs	r3, r5
10006d94:	3208      	adds	r2, #8
10006d96:	3507      	adds	r5, #7
10006d98:	0006      	movs	r6, r0
10006d9a:	40ee      	lsrs	r6, r5
10006d9c:	4090      	lsls	r0, r2
10006d9e:	4091      	lsls	r1, r2
10006da0:	4331      	orrs	r1, r6
10006da2:	ccf0      	ldmia	r4, {r4, r5, r6, r7}
10006da4:	4363      	muls	r3, r4
10006da6:	151a      	asrs	r2, r3, #20
10006da8:	2300      	movs	r3, #0
10006daa:	415a      	adcs	r2, r3
10006dac:	4355      	muls	r5, r2
10006dae:	4356      	muls	r6, r2
10006db0:	4357      	muls	r7, r2
10006db2:	02bf      	lsls	r7, r7, #10
10006db4:	12f4      	asrs	r4, r6, #11
10006db6:	0576      	lsls	r6, r6, #21
10006db8:	1976      	adds	r6, r6, r5
10006dba:	4167      	adcs	r7, r4
10006dbc:	17ed      	asrs	r5, r5, #31
10006dbe:	197f      	adds	r7, r7, r5
10006dc0:	1b80      	subs	r0, r0, r6
10006dc2:	41b9      	sbcs	r1, r7
10006dc4:	4770      	bx	lr
10006dc6:	220c      	movs	r2, #12
10006dc8:	2000      	movs	r0, #0
10006dca:	17c9      	asrs	r1, r1, #31
10006dcc:	0049      	lsls	r1, r1, #1
10006dce:	3101      	adds	r1, #1
10006dd0:	0509      	lsls	r1, r1, #20
10006dd2:	e7db      	b.n	10006d8c <dreduce+0x8>
10006dd4:	0209      	lsls	r1, r1, #8
10006dd6:	0e03      	lsrs	r3, r0, #24
10006dd8:	4319      	orrs	r1, r3
10006dda:	0200      	lsls	r0, r0, #8
10006ddc:	4253      	negs	r3, r2
10006dde:	3220      	adds	r2, #32
10006de0:	d408      	bmi.n	10006df4 <dreduce+0x70>
10006de2:	000c      	movs	r4, r1
10006de4:	4119      	asrs	r1, r3
10006de6:	4094      	lsls	r4, r2
10006de8:	40d8      	lsrs	r0, r3
10006dea:	4320      	orrs	r0, r4
10006dec:	2200      	movs	r2, #0
10006dee:	4150      	adcs	r0, r2
10006df0:	4151      	adcs	r1, r2
10006df2:	4770      	bx	lr
10006df4:	0008      	movs	r0, r1
10006df6:	17c9      	asrs	r1, r1, #31
10006df8:	3b20      	subs	r3, #32
10006dfa:	3220      	adds	r2, #32
10006dfc:	d5f1      	bpl.n	10006de2 <dreduce+0x5e>
10006dfe:	2000      	movs	r0, #0
10006e00:	2100      	movs	r1, #0
10006e02:	2200      	movs	r2, #0
10006e04:	4770      	bx	lr
	...

10006e08 <dexp_shim>:
10006e08:	b5f0      	push	{r4, r5, r6, r7, lr}
10006e0a:	f7ff ff9d 	bl	10006d48 <dunpacks>
10006e0e:	a454      	add	r4, pc, #336	@ (adr r4, 10006f60 <dreddata1>)
10006e10:	f7ff ffb8 	bl	10006d84 <dreduce>
10006e14:	2900      	cmp	r1, #0
10006e16:	da04      	bge.n	10006e22 <dexp_shim+0x1a>
10006e18:	4c20      	ldr	r4, [pc, #128]	@ (10006e9c <dexp_shim+0x94>)
10006e1a:	4d21      	ldr	r5, [pc, #132]	@ (10006ea0 <dexp_shim+0x98>)
10006e1c:	1900      	adds	r0, r0, r4
10006e1e:	4169      	adcs	r1, r5
10006e20:	3a01      	subs	r2, #1
10006e22:	b404      	push	{r2}
10006e24:	2701      	movs	r7, #1
10006e26:	a652      	add	r6, pc, #328	@ (adr r6, 10006f70 <dtab_exp>)
10006e28:	2200      	movs	r2, #0
10006e2a:	2301      	movs	r3, #1
10006e2c:	079b      	lsls	r3, r3, #30
10006e2e:	ce30      	ldmia	r6!, {r4, r5}
10006e30:	46b4      	mov	ip, r6
10006e32:	1b00      	subs	r0, r0, r4
10006e34:	41a9      	sbcs	r1, r5
10006e36:	d40b      	bmi.n	10006e50 <dexp_shim+0x48>
10006e38:	427e      	negs	r6, r7
10006e3a:	3620      	adds	r6, #32
10006e3c:	001d      	movs	r5, r3
10006e3e:	413d      	asrs	r5, r7
10006e40:	001c      	movs	r4, r3
10006e42:	40b4      	lsls	r4, r6
10006e44:	0016      	movs	r6, r2
10006e46:	40fe      	lsrs	r6, r7
10006e48:	4334      	orrs	r4, r6
10006e4a:	4162      	adcs	r2, r4
10006e4c:	416b      	adcs	r3, r5
10006e4e:	e001      	b.n	10006e54 <dexp_shim+0x4c>
10006e50:	1900      	adds	r0, r0, r4
10006e52:	4169      	adcs	r1, r5
10006e54:	4666      	mov	r6, ip
10006e56:	3701      	adds	r7, #1
10006e58:	2f21      	cmp	r7, #33	@ 0x21
10006e5a:	d1e8      	bne.n	10006e2e <dexp_shim+0x26>
10006e5c:	b285      	uxth	r5, r0
10006e5e:	b29e      	uxth	r6, r3
10006e60:	4375      	muls	r5, r6
10006e62:	1407      	asrs	r7, r0, #16
10006e64:	437e      	muls	r6, r7
10006e66:	0c19      	lsrs	r1, r3, #16
10006e68:	434f      	muls	r7, r1
10006e6a:	b284      	uxth	r4, r0
10006e6c:	434c      	muls	r4, r1
10006e6e:	17f1      	asrs	r1, r6, #31
10006e70:	1936      	adds	r6, r6, r4
10006e72:	2400      	movs	r4, #0
10006e74:	4161      	adcs	r1, r4
10006e76:	0409      	lsls	r1, r1, #16
10006e78:	187f      	adds	r7, r7, r1
10006e7a:	0434      	lsls	r4, r6, #16
10006e7c:	0c31      	lsrs	r1, r6, #16
10006e7e:	1964      	adds	r4, r4, r5
10006e80:	4179      	adcs	r1, r7
10006e82:	0fa4      	lsrs	r4, r4, #30
10006e84:	0088      	lsls	r0, r1, #2
10006e86:	4320      	orrs	r0, r4
10006e88:	1789      	asrs	r1, r1, #30
10006e8a:	1880      	adds	r0, r0, r2
10006e8c:	4159      	adcs	r1, r3
10006e8e:	bc04      	pop	{r2}
10006e90:	4252      	negs	r2, r2
10006e92:	323e      	adds	r2, #62	@ 0x3e
10006e94:	f7ff ff1d 	bl	10006cd2 <fix642double_shim>
10006e98:	bdf0      	pop	{r4, r5, r6, r7, pc}
10006e9a:	0000      	.short	0x0000
10006e9c:	f473de6b 	.word	0xf473de6b
10006ea0:	2c5c85fd 	.word	0x2c5c85fd

10006ea4 <dln_shim>:
10006ea4:	b5f0      	push	{r4, r5, r6, r7, lr}
10006ea6:	004f      	lsls	r7, r1, #1
10006ea8:	d250      	bcs.n	10006f4c <dln_shim+0xa8>
10006eaa:	157f      	asrs	r7, r7, #21
10006eac:	d04e      	beq.n	10006f4c <dln_shim+0xa8>
10006eae:	3701      	adds	r7, #1
10006eb0:	d04f      	beq.n	10006f52 <dln_shim+0xae>
10006eb2:	f7ff ff49 	bl	10006d48 <dunpacks>
10006eb6:	b404      	push	{r2}
10006eb8:	0249      	lsls	r1, r1, #9
10006eba:	0dc2      	lsrs	r2, r0, #23
10006ebc:	4311      	orrs	r1, r2
10006ebe:	0240      	lsls	r0, r0, #9
10006ec0:	2701      	movs	r7, #1
10006ec2:	a62b      	add	r6, pc, #172	@ (adr r6, 10006f70 <dtab_exp>)
10006ec4:	46b4      	mov	ip, r6
10006ec6:	2200      	movs	r2, #0
10006ec8:	2300      	movs	r3, #0
10006eca:	427e      	negs	r6, r7
10006ecc:	3620      	adds	r6, #32
10006ece:	000d      	movs	r5, r1
10006ed0:	413d      	asrs	r5, r7
10006ed2:	000c      	movs	r4, r1
10006ed4:	40b4      	lsls	r4, r6
10006ed6:	0006      	movs	r6, r0
10006ed8:	40fe      	lsrs	r6, r7
10006eda:	4334      	orrs	r4, r6
10006edc:	4144      	adcs	r4, r0
10006ede:	414d      	adcs	r5, r1
10006ee0:	0fae      	lsrs	r6, r5, #30
10006ee2:	d105      	bne.n	10006ef0 <dln_shim+0x4c>
10006ee4:	0020      	movs	r0, r4
10006ee6:	0029      	movs	r1, r5
10006ee8:	4666      	mov	r6, ip
10006eea:	ce30      	ldmia	r6!, {r4, r5}
10006eec:	1b12      	subs	r2, r2, r4
10006eee:	41ab      	sbcs	r3, r5
10006ef0:	2408      	movs	r4, #8
10006ef2:	44a4      	add	ip, r4
10006ef4:	3701      	adds	r7, #1
10006ef6:	2f21      	cmp	r7, #33	@ 0x21
10006ef8:	d1e7      	bne.n	10006eca <dln_shim+0x26>
10006efa:	0089      	lsls	r1, r1, #2
10006efc:	1089      	asrs	r1, r1, #2
10006efe:	1812      	adds	r2, r2, r0
10006f00:	414b      	adcs	r3, r1
10006f02:	bc80      	pop	{r7}
10006f04:	a417      	add	r4, pc, #92	@ (adr r4, 10006f64 <dreddata1_plus_4>)
10006f06:	cc13      	ldmia	r4, {r0, r1, r4}
10006f08:	3701      	adds	r7, #1
10006f0a:	4378      	muls	r0, r7
10006f0c:	4379      	muls	r1, r7
10006f0e:	437c      	muls	r4, r7
10006f10:	054f      	lsls	r7, r1, #21
10006f12:	12c9      	asrs	r1, r1, #11
10006f14:	17cd      	asrs	r5, r1, #31
10006f16:	19c0      	adds	r0, r0, r7
10006f18:	4169      	adcs	r1, r5
10006f1a:	02a7      	lsls	r7, r4, #10
10006f1c:	15a4      	asrs	r4, r4, #22
10006f1e:	17cd      	asrs	r5, r1, #31
10006f20:	19c9      	adds	r1, r1, r7
10006f22:	416c      	adcs	r4, r5
10006f24:	17dd      	asrs	r5, r3, #31
10006f26:	1880      	adds	r0, r0, r2
10006f28:	4159      	adcs	r1, r3
10006f2a:	416c      	adcs	r4, r5
10006f2c:	223e      	movs	r2, #62	@ 0x3e
10006f2e:	17cd      	asrs	r5, r1, #31
10006f30:	42ac      	cmp	r4, r5
10006f32:	d008      	beq.n	10006f46 <dln_shim+0xa2>
10006f34:	0900      	lsrs	r0, r0, #4
10006f36:	070e      	lsls	r6, r1, #28
10006f38:	4330      	orrs	r0, r6
10006f3a:	0909      	lsrs	r1, r1, #4
10006f3c:	0726      	lsls	r6, r4, #28
10006f3e:	4331      	orrs	r1, r6
10006f40:	1124      	asrs	r4, r4, #4
10006f42:	3a04      	subs	r2, #4
10006f44:	e7f3      	b.n	10006f2e <dln_shim+0x8a>
10006f46:	f7ff fec4 	bl	10006cd2 <fix642double_shim>
10006f4a:	bdf0      	pop	{r4, r5, r6, r7, pc}
10006f4c:	4902      	ldr	r1, [pc, #8]	@ (10006f58 <dln_shim+0xb4>)
10006f4e:	2000      	movs	r0, #0
10006f50:	bdf0      	pop	{r4, r5, r6, r7, pc}
10006f52:	4902      	ldr	r1, [pc, #8]	@ (10006f5c <dln_shim+0xb8>)
10006f54:	2000      	movs	r0, #0
10006f56:	bdf0      	pop	{r4, r5, r6, r7, pc}
10006f58:	fff00000 	.word	0xfff00000
10006f5c:	7ff00000 	.word	0x7ff00000

10006f60 <dreddata1>:
10006f60:	0000b8aa 	.word	0x0000b8aa

10006f64 <dreddata1_plus_4>:
10006f64:	0013de6b 	.word	0x0013de6b
10006f68:	000fefa3 	.word	0x000fefa3
10006f6c:	000b1721 	.word	0x000b1721

10006f70 <dtab_exp>:
10006f70:	bf984bf3 	.word	0xbf984bf3
10006f74:	19f323ec 	.word	0x19f323ec
10006f78:	cd4d10d6 	.word	0xcd4d10d6
10006f7c:	0e47fbe3 	.word	0x0e47fbe3
10006f80:	8abcb97a 	.word	0x8abcb97a
10006f84:	0789c1db 	.word	0x0789c1db
10006f88:	022c54cc 	.word	0x022c54cc
10006f8c:	03e14618 	.word	0x03e14618
10006f90:	e7833005 	.word	0xe7833005
10006f94:	01f829b0 	.word	0x01f829b0
10006f98:	87e01f1e 	.word	0x87e01f1e
10006f9c:	00fe0545 	.word	0x00fe0545
10006fa0:	ac419e24 	.word	0xac419e24
10006fa4:	007f80a9 	.word	0x007f80a9
10006fa8:	45621781 	.word	0x45621781
10006fac:	003fe015 	.word	0x003fe015
10006fb0:	a9ab10e6 	.word	0xa9ab10e6
10006fb4:	001ff802 	.word	0x001ff802
10006fb8:	55455888 	.word	0x55455888
10006fbc:	000ffe00 	.word	0x000ffe00
10006fc0:	0aa9aac4 	.word	0x0aa9aac4
10006fc4:	0007ff80 	.word	0x0007ff80
10006fc8:	01554556 	.word	0x01554556
10006fcc:	0003ffe0 	.word	0x0003ffe0
10006fd0:	002aa9ab 	.word	0x002aa9ab
10006fd4:	0001fff8 	.word	0x0001fff8
10006fd8:	00055545 	.word	0x00055545
10006fdc:	0000fffe 	.word	0x0000fffe
10006fe0:	8000aaaa 	.word	0x8000aaaa
10006fe4:	00007fff 	.word	0x00007fff
10006fe8:	e0001555 	.word	0xe0001555
10006fec:	00003fff 	.word	0x00003fff
10006ff0:	f80002ab 	.word	0xf80002ab
10006ff4:	00001fff 	.word	0x00001fff
10006ff8:	fe000055 	.word	0xfe000055
10006ffc:	00000fff 	.word	0x00000fff
10007000:	ff80000b 	.word	0xff80000b
10007004:	000007ff 	.word	0x000007ff
10007008:	ffe00001 	.word	0xffe00001
1000700c:	000003ff 	.word	0x000003ff
10007010:	fff80000 	.word	0xfff80000
10007014:	000001ff 	.word	0x000001ff
10007018:	fffe0000 	.word	0xfffe0000
1000701c:	000000ff 	.word	0x000000ff
10007020:	ffff8000 	.word	0xffff8000
10007024:	0000007f 	.word	0x0000007f
10007028:	ffffe000 	.word	0xffffe000
1000702c:	0000003f 	.word	0x0000003f
10007030:	fffff800 	.word	0xfffff800
10007034:	0000001f 	.word	0x0000001f
10007038:	fffffe00 	.word	0xfffffe00
1000703c:	0000000f 	.word	0x0000000f
10007040:	ffffff80 	.word	0xffffff80
10007044:	00000007 	.word	0x00000007
10007048:	ffffffe0 	.word	0xffffffe0
1000704c:	00000003 	.word	0x00000003
10007050:	fffffff8 	.word	0xfffffff8
10007054:	00000001 	.word	0x00000001
10007058:	fffffffe 	.word	0xfffffffe
1000705c:	00000000 	.word	0x00000000
10007060:	80000000 	.word	0x80000000
10007064:	00000000 	.word	0x00000000
10007068:	40000000 	.word	0x40000000
1000706c:	00000000 	.word	0x00000000

10007070 <__wrap___aeabi_lmul>:
10007070:	4351      	muls	r1, r2
10007072:	4343      	muls	r3, r0
10007074:	18c9      	adds	r1, r1, r3
10007076:	468c      	mov	ip, r1
10007078:	0c11      	lsrs	r1, r2, #16
1000707a:	b283      	uxth	r3, r0
1000707c:	434b      	muls	r3, r1
1000707e:	b410      	push	{r4}
10007080:	0c04      	lsrs	r4, r0, #16
10007082:	4361      	muls	r1, r4
10007084:	b292      	uxth	r2, r2
10007086:	b280      	uxth	r0, r0
10007088:	4350      	muls	r0, r2
1000708a:	4362      	muls	r2, r4
1000708c:	041c      	lsls	r4, r3, #16
1000708e:	0c1b      	lsrs	r3, r3, #16
10007090:	1900      	adds	r0, r0, r4
10007092:	bc10      	pop	{r4}
10007094:	4159      	adcs	r1, r3
10007096:	0413      	lsls	r3, r2, #16
10007098:	0c12      	lsrs	r2, r2, #16
1000709a:	18c0      	adds	r0, r0, r3
1000709c:	4151      	adcs	r1, r2
1000709e:	4461      	add	r1, ip
100070a0:	4770      	bx	lr
	...

100070a4 <__wrap___aeabi_frsub>:
100070a4:	4048      	eors	r0, r1
100070a6:	4041      	eors	r1, r0
100070a8:	4048      	eors	r0, r1

100070aa <__wrap___aeabi_fsub>:
100070aa:	2300      	movs	r3, #0
100070ac:	469c      	mov	ip, r3
100070ae:	4b11      	ldr	r3, [pc, #68]	@ (100070f4 <__wrap___aeabi_fmul+0xa>)
100070b0:	685b      	ldr	r3, [r3, #4]
100070b2:	4718      	bx	r3

100070b4 <__wrap___aeabi_fadd>:
100070b4:	2300      	movs	r3, #0
100070b6:	469c      	mov	ip, r3
100070b8:	4b0e      	ldr	r3, [pc, #56]	@ (100070f4 <__wrap___aeabi_fmul+0xa>)
100070ba:	681b      	ldr	r3, [r3, #0]
100070bc:	4718      	bx	r3

100070be <__wrap___aeabi_fdiv>:
100070be:	4a0e      	ldr	r2, [pc, #56]	@ (100070f8 <__wrap___aeabi_fmul+0xe>)
100070c0:	6f93      	ldr	r3, [r2, #120]	@ 0x78
100070c2:	089b      	lsrs	r3, r3, #2
100070c4:	d204      	bcs.n	100070d0 <fdiv_save_state>

100070c6 <fdiv_shim_call>:
100070c6:	2300      	movs	r3, #0
100070c8:	469c      	mov	ip, r3
100070ca:	4b0a      	ldr	r3, [pc, #40]	@ (100070f4 <__wrap___aeabi_fmul+0xa>)
100070cc:	68db      	ldr	r3, [r3, #12]
100070ce:	4718      	bx	r3

100070d0 <fdiv_save_state>:
100070d0:	b5f0      	push	{r4, r5, r6, r7, lr}
100070d2:	6e14      	ldr	r4, [r2, #96]	@ 0x60
100070d4:	6e55      	ldr	r5, [r2, #100]	@ 0x64
100070d6:	6f57      	ldr	r7, [r2, #116]	@ 0x74
100070d8:	6f16      	ldr	r6, [r2, #112]	@ 0x70
100070da:	f7ff fff4 	bl	100070c6 <fdiv_shim_call>
100070de:	4a06      	ldr	r2, [pc, #24]	@ (100070f8 <__wrap___aeabi_fmul+0xe>)
100070e0:	6614      	str	r4, [r2, #96]	@ 0x60
100070e2:	6655      	str	r5, [r2, #100]	@ 0x64
100070e4:	6757      	str	r7, [r2, #116]	@ 0x74
100070e6:	6716      	str	r6, [r2, #112]	@ 0x70
100070e8:	bdf0      	pop	{r4, r5, r6, r7, pc}

100070ea <__wrap___aeabi_fmul>:
100070ea:	2300      	movs	r3, #0
100070ec:	469c      	mov	ip, r3
100070ee:	4b01      	ldr	r3, [pc, #4]	@ (100070f4 <__wrap___aeabi_fmul+0xa>)
100070f0:	689b      	ldr	r3, [r3, #8]
100070f2:	4718      	bx	r3
100070f4:	20002414 	.word	0x20002414
100070f8:	d0000000 	.word	0xd0000000

100070fc <__wrap___aeabi_ui2f>:
100070fc:	1a49      	subs	r1, r1, r1
100070fe:	2800      	cmp	r0, #0
10007100:	d108      	bne.n	10007114 <__aeabi_i2f_main>
10007102:	4608      	mov	r0, r1
10007104:	4770      	bx	lr
	...

10007108 <__wrap___aeabi_i2f>:
10007108:	0fc1      	lsrs	r1, r0, #31
1000710a:	07c9      	lsls	r1, r1, #31
1000710c:	d500      	bpl.n	10007110 <__wrap___aeabi_i2f+0x8>
1000710e:	4240      	negs	r0, r0
10007110:	2800      	cmp	r0, #0
10007112:	d017      	beq.n	10007144 <__aeabi_i2f_main+0x30>

10007114 <__aeabi_i2f_main>:
10007114:	46f4      	mov	ip, lr
10007116:	b403      	push	{r0, r1}
10007118:	4b0b      	ldr	r3, [pc, #44]	@ (10007148 <__aeabi_i2f_main+0x34>)
1000711a:	681b      	ldr	r3, [r3, #0]
1000711c:	4798      	blx	r3
1000711e:	bc06      	pop	{r1, r2}
10007120:	4081      	lsls	r1, r0
10007122:	389e      	subs	r0, #158	@ 0x9e
10007124:	4240      	negs	r0, r0
10007126:	3180      	adds	r1, #128	@ 0x80
10007128:	d207      	bcs.n	1000713a <__aeabi_i2f_main+0x26>
1000712a:	060b      	lsls	r3, r1, #24
1000712c:	d007      	beq.n	1000713e <__aeabi_i2f_main+0x2a>
1000712e:	0049      	lsls	r1, r1, #1
10007130:	0a49      	lsrs	r1, r1, #9
10007132:	05c0      	lsls	r0, r0, #23
10007134:	4310      	orrs	r0, r2
10007136:	4308      	orrs	r0, r1
10007138:	4760      	bx	ip
1000713a:	3001      	adds	r0, #1
1000713c:	e7f8      	b.n	10007130 <__aeabi_i2f_main+0x1c>
1000713e:	0a49      	lsrs	r1, r1, #9
10007140:	0289      	lsls	r1, r1, #10
10007142:	e7f5      	b.n	10007130 <__aeabi_i2f_main+0x1c>
10007144:	4770      	bx	lr
10007146:	0000      	.short	0x0000
10007148:	20002410 	.word	0x20002410

1000714c <__wrap___aeabi_f2uiz>:
1000714c:	2300      	movs	r3, #0
1000714e:	469c      	mov	ip, r3
10007150:	4b01      	ldr	r3, [pc, #4]	@ (10007158 <__wrap___aeabi_f2uiz+0xc>)
10007152:	6a5b      	ldr	r3, [r3, #36]	@ 0x24
10007154:	4718      	bx	r3
10007156:	0000      	.short	0x0000
10007158:	20002414 	.word	0x20002414

1000715c <__wrap___aeabi_f2ulz>:
1000715c:	4b03      	ldr	r3, [pc, #12]	@ (1000716c <__wrap___aeabi_f2ulz+0x10>)
1000715e:	6f5b      	ldr	r3, [r3, #116]	@ 0x74
10007160:	46fc      	mov	ip, pc
10007162:	4718      	bx	r3
10007164:	72abdf74 	.word	0x72abdf74
10007168:	00001000 	.word	0x00001000
1000716c:	20002414 	.word	0x20002414

10007170 <__aeabi_float_init>:
10007170:	b570      	push	{r4, r5, r6, lr}
10007172:	2313      	movs	r3, #19
10007174:	781e      	ldrb	r6, [r3, #0]
10007176:	482a      	ldr	r0, [pc, #168]	@ (10007220 <__aeabi_float_init+0xb0>)
10007178:	f7fe fb86 	bl	10005888 <rom_data_lookup>
1000717c:	0005      	movs	r5, r0
1000717e:	2e01      	cmp	r6, #1
10007180:	d011      	beq.n	100071a6 <__aeabi_float_init+0x36>
10007182:	2e01      	cmp	r6, #1
10007184:	dd09      	ble.n	1000719a <__aeabi_float_init+0x2a>
10007186:	1eab      	subs	r3, r5, #2
10007188:	781b      	ldrb	r3, [r3, #0]
1000718a:	009b      	lsls	r3, r3, #2
1000718c:	2b7f      	cmp	r3, #127	@ 0x7f
1000718e:	dd40      	ble.n	10007212 <__aeabi_float_init+0xa2>
10007190:	4824      	ldr	r0, [pc, #144]	@ (10007224 <__aeabi_float_init+0xb4>)
10007192:	2280      	movs	r2, #128	@ 0x80
10007194:	0029      	movs	r1, r5
10007196:	f000 f91b 	bl	100073d0 <__wrap___aeabi_memcpy>
1000719a:	4823      	ldr	r0, [pc, #140]	@ (10007228 <__aeabi_float_init+0xb8>)
1000719c:	f7fe fb6c 	bl	10005878 <rom_func_lookup>
100071a0:	4b22      	ldr	r3, [pc, #136]	@ (1000722c <__aeabi_float_init+0xbc>)
100071a2:	6018      	str	r0, [r3, #0]
100071a4:	bd70      	pop	{r4, r5, r6, pc}
100071a6:	481f      	ldr	r0, [pc, #124]	@ (10007224 <__aeabi_float_init+0xb4>)
100071a8:	2254      	movs	r2, #84	@ 0x54
100071aa:	0029      	movs	r1, r5
100071ac:	f000 f910 	bl	100073d0 <__wrap___aeabi_memcpy>
100071b0:	4b1f      	ldr	r3, [pc, #124]	@ (10007230 <__aeabi_float_init+0xc0>)
100071b2:	881a      	ldrh	r2, [r3, #0]
100071b4:	4b1f      	ldr	r3, [pc, #124]	@ (10007234 <__aeabi_float_init+0xc4>)
100071b6:	429a      	cmp	r2, r3
100071b8:	d11c      	bne.n	100071f4 <__aeabi_float_init+0x84>
100071ba:	23a7      	movs	r3, #167	@ 0xa7
100071bc:	019b      	lsls	r3, r3, #6
100071be:	881a      	ldrh	r2, [r3, #0]
100071c0:	4b1d      	ldr	r3, [pc, #116]	@ (10007238 <__aeabi_float_init+0xc8>)
100071c2:	429a      	cmp	r2, r3
100071c4:	d116      	bne.n	100071f4 <__aeabi_float_init+0x84>
100071c6:	4b1d      	ldr	r3, [pc, #116]	@ (1000723c <__aeabi_float_init+0xcc>)
100071c8:	881a      	ldrh	r2, [r3, #0]
100071ca:	4b1d      	ldr	r3, [pc, #116]	@ (10007240 <__aeabi_float_init+0xd0>)
100071cc:	429a      	cmp	r2, r3
100071ce:	d111      	bne.n	100071f4 <__aeabi_float_init+0x84>
100071d0:	4b1c      	ldr	r3, [pc, #112]	@ (10007244 <__aeabi_float_init+0xd4>)
100071d2:	881a      	ldrh	r2, [r3, #0]
100071d4:	2394      	movs	r3, #148	@ 0x94
100071d6:	019b      	lsls	r3, r3, #6
100071d8:	429a      	cmp	r2, r3
100071da:	d10b      	bne.n	100071f4 <__aeabi_float_init+0x84>
100071dc:	4b1a      	ldr	r3, [pc, #104]	@ (10007248 <__aeabi_float_init+0xd8>)
100071de:	881a      	ldrh	r2, [r3, #0]
100071e0:	4b1a      	ldr	r3, [pc, #104]	@ (1000724c <__aeabi_float_init+0xdc>)
100071e2:	429a      	cmp	r2, r3
100071e4:	d106      	bne.n	100071f4 <__aeabi_float_init+0x84>
100071e6:	4b1a      	ldr	r3, [pc, #104]	@ (10007250 <__aeabi_float_init+0xe0>)
100071e8:	681a      	ldr	r2, [r3, #0]
100071ea:	4b1a      	ldr	r3, [pc, #104]	@ (10007254 <__aeabi_float_init+0xe4>)
100071ec:	429a      	cmp	r2, r3
100071ee:	d101      	bne.n	100071f4 <__aeabi_float_init+0x84>
100071f0:	2315      	movs	r3, #21
100071f2:	e007      	b.n	10007204 <__aeabi_float_init+0x94>
100071f4:	4818      	ldr	r0, [pc, #96]	@ (10007258 <__aeabi_float_init+0xe8>)
100071f6:	f7fd fa43 	bl	10004680 <panic>
100071fa:	4c18      	ldr	r4, [pc, #96]	@ (1000725c <__aeabi_float_init+0xec>)
100071fc:	4a09      	ldr	r2, [pc, #36]	@ (10007224 <__aeabi_float_init+0xb4>)
100071fe:	0099      	lsls	r1, r3, #2
10007200:	508c      	str	r4, [r1, r2]
10007202:	3301      	adds	r3, #1
10007204:	2b1f      	cmp	r3, #31
10007206:	d9f8      	bls.n	100071fa <__aeabi_float_init+0x8a>
10007208:	4b14      	ldr	r3, [pc, #80]	@ (1000725c <__aeabi_float_init+0xec>)
1000720a:	4a06      	ldr	r2, [pc, #24]	@ (10007224 <__aeabi_float_init+0xb4>)
1000720c:	6213      	str	r3, [r2, #32]
1000720e:	61d3      	str	r3, [r2, #28]
10007210:	e7b7      	b.n	10007182 <__aeabi_float_init+0x12>
10007212:	4b13      	ldr	r3, [pc, #76]	@ (10007260 <__aeabi_float_init+0xf0>)
10007214:	4a13      	ldr	r2, [pc, #76]	@ (10007264 <__aeabi_float_init+0xf4>)
10007216:	4814      	ldr	r0, [pc, #80]	@ (10007268 <__aeabi_float_init+0xf8>)
10007218:	2142      	movs	r1, #66	@ 0x42
1000721a:	f7fd f999 	bl	10004550 <__assert_func>
1000721e:	46c0      	nop			@ (mov r8, r8)
10007220:	00004653 	.word	0x00004653
10007224:	20002414 	.word	0x20002414
10007228:	0000334c 	.word	0x0000334c
1000722c:	20002410 	.word	0x20002410
10007230:	000029ee 	.word	0x000029ee
10007234:	00000fc4 	.word	0x00000fc4
10007238:	00000dc2 	.word	0x00000dc2
1000723c:	00002b96 	.word	0x00002b96
10007240:	0000b5c0 	.word	0x0000b5c0
10007244:	00002b18 	.word	0x00002b18
10007248:	00002acc 	.word	0x00002acc
1000724c:	0000b510 	.word	0x0000b510
10007250:	00002cfc 	.word	0x00002cfc
10007254:	6487ed51 	.word	0x6487ed51
10007258:	1000aecc 	.word	0x1000aecc
1000725c:	1000726d 	.word	0x1000726d
10007260:	1000bdfc 	.word	0x1000bdfc
10007264:	1000c884 	.word	0x1000c884
10007268:	1000be30 	.word	0x1000be30

1000726c <float_table_shim_on_use_helper>:
1000726c:	b507      	push	{r0, r1, r2, lr}
1000726e:	4660      	mov	r0, ip
10007270:	2800      	cmp	r0, #0
10007272:	d100      	bne.n	10007276 <float_table_shim_on_use_helper+0xa>
10007274:	be00      	bkpt	0x0000
10007276:	8801      	ldrh	r1, [r0, #0]
10007278:	0a0a      	lsrs	r2, r1, #8
1000727a:	3002      	adds	r0, #2
1000727c:	2adf      	cmp	r2, #223	@ 0xdf
1000727e:	d1fa      	bne.n	10007276 <float_table_shim_on_use_helper+0xa>
10007280:	b2c9      	uxtb	r1, r1
10007282:	0882      	lsrs	r2, r0, #2
10007284:	d304      	bcc.n	10007290 <float_table_shim_on_use_helper+0x24>
10007286:	8802      	ldrh	r2, [r0, #0]
10007288:	8840      	ldrh	r0, [r0, #2]
1000728a:	0400      	lsls	r0, r0, #16
1000728c:	4310      	orrs	r0, r2
1000728e:	e000      	b.n	10007292 <float_table_shim_on_use_helper+0x26>
10007290:	6800      	ldr	r0, [r0, #0]
10007292:	4a02      	ldr	r2, [pc, #8]	@ (1000729c <float_table_shim_on_use_helper+0x30>)
10007294:	5050      	str	r0, [r2, r1]
10007296:	9003      	str	r0, [sp, #12]
10007298:	bd07      	pop	{r0, r1, r2, pc}
1000729a:	0000      	.short	0x0000
1000729c:	20002414 	.word	0x20002414

100072a0 <float2int64_shim>:
100072a0:	2100      	movs	r1, #0

100072a2 <float2fix64_shim>:
100072a2:	b500      	push	{lr}
100072a4:	f000 f804 	bl	100072b0 <f2fix>
100072a8:	e045      	b.n	10007336 <d2f64_a>

100072aa <float2uint64_shim>:
100072aa:	2100      	movs	r1, #0

100072ac <float2ufix64_shim>:
100072ac:	15c3      	asrs	r3, r0, #23
100072ae:	d418      	bmi.n	100072e2 <ret_dzero>

100072b0 <f2fix>:
100072b0:	b510      	push	{r4, lr}
100072b2:	468c      	mov	ip, r1
100072b4:	17c3      	asrs	r3, r0, #31
100072b6:	0040      	lsls	r0, r0, #1
100072b8:	0e02      	lsrs	r2, r0, #24
100072ba:	d00b      	beq.n	100072d4 <f2fix+0x24>
100072bc:	2aff      	cmp	r2, #255	@ 0xff
100072be:	d00d      	beq.n	100072dc <f2fix+0x2c>
100072c0:	1e51      	subs	r1, r2, #1
100072c2:	3a7f      	subs	r2, #127	@ 0x7f
100072c4:	0609      	lsls	r1, r1, #24
100072c6:	1a40      	subs	r0, r0, r1
100072c8:	4058      	eors	r0, r3
100072ca:	1ac0      	subs	r0, r0, r3
100072cc:	1101      	asrs	r1, r0, #4
100072ce:	0700      	lsls	r0, r0, #28
100072d0:	4c05      	ldr	r4, [pc, #20]	@ (100072e8 <ret_dzero+0x6>)
100072d2:	4720      	bx	r4
100072d4:	2000      	movs	r0, #0
100072d6:	0001      	movs	r1, r0
100072d8:	0003      	movs	r3, r0
100072da:	bd10      	pop	{r4, pc}
100072dc:	43d8      	mvns	r0, r3
100072de:	43d9      	mvns	r1, r3
100072e0:	bd10      	pop	{r4, pc}

100072e2 <ret_dzero>:
100072e2:	2000      	movs	r0, #0
100072e4:	2100      	movs	r1, #0
100072e6:	4770      	bx	lr
100072e8:	10006c6b 	.word	0x10006c6b
100072ec:	4462      	add	r2, ip
100072ee:	3a34      	subs	r2, #52	@ 0x34
100072f0:	d40c      	bmi.n	1000730c <ret_dzero+0x2a>
100072f2:	2a0c      	cmp	r2, #12
100072f4:	da07      	bge.n	10007306 <ret_dzero+0x24>
100072f6:	0004      	movs	r4, r0
100072f8:	4091      	lsls	r1, r2
100072fa:	4090      	lsls	r0, r2
100072fc:	4252      	negs	r2, r2
100072fe:	3220      	adds	r2, #32
10007300:	40d4      	lsrs	r4, r2
10007302:	4321      	orrs	r1, r4
10007304:	bd10      	pop	{r4, pc}
10007306:	43d8      	mvns	r0, r3
10007308:	43d9      	mvns	r1, r3
1000730a:	bd10      	pop	{r4, pc}
1000730c:	3220      	adds	r2, #32
1000730e:	d407      	bmi.n	10007320 <ret_dzero+0x3e>
10007310:	460c      	mov	r4, r1
10007312:	4094      	lsls	r4, r2
10007314:	4252      	negs	r2, r2
10007316:	3220      	adds	r2, #32
10007318:	4111      	asrs	r1, r2
1000731a:	40d0      	lsrs	r0, r2
1000731c:	4320      	orrs	r0, r4
1000731e:	bd10      	pop	{r4, pc}
10007320:	0008      	movs	r0, r1
10007322:	17c9      	asrs	r1, r1, #31
10007324:	3220      	adds	r2, #32
10007326:	d403      	bmi.n	10007330 <ret_dzero+0x4e>
10007328:	4252      	negs	r2, r2
1000732a:	3220      	adds	r2, #32
1000732c:	4110      	asrs	r0, r2
1000732e:	bd10      	pop	{r4, pc}
10007330:	0018      	movs	r0, r3
10007332:	0019      	movs	r1, r3
10007334:	bd10      	pop	{r4, pc}

10007336 <d2f64_a>:
10007336:	17ca      	asrs	r2, r1, #31
10007338:	429a      	cmp	r2, r3
1000733a:	d100      	bne.n	1000733e <d2f64_a+0x8>
1000733c:	bd00      	pop	{pc}
1000733e:	43d8      	mvns	r0, r3
10007340:	2101      	movs	r1, #1
10007342:	07c9      	lsls	r1, r1, #31
10007344:	4041      	eors	r1, r0
10007346:	bd00      	pop	{pc}

10007348 <check_alloc>:
10007348:	b510      	push	{r4, lr}
1000734a:	2800      	cmp	r0, #0
1000734c:	d004      	beq.n	10007358 <check_alloc+0x10>
1000734e:	1840      	adds	r0, r0, r1
10007350:	4b03      	ldr	r3, [pc, #12]	@ (10007360 <check_alloc+0x18>)
10007352:	4298      	cmp	r0, r3
10007354:	d800      	bhi.n	10007358 <check_alloc+0x10>
10007356:	bd10      	pop	{r4, pc}
10007358:	4802      	ldr	r0, [pc, #8]	@ (10007364 <check_alloc+0x1c>)
1000735a:	f7fd f991 	bl	10004680 <panic>
1000735e:	46c0      	nop			@ (mov r8, r8)
10007360:	20040000 	.word	0x20040000
10007364:	1000be78 	.word	0x1000be78

10007368 <__wrap_malloc>:
10007368:	b570      	push	{r4, r5, r6, lr}
1000736a:	0005      	movs	r5, r0
1000736c:	4e08      	ldr	r6, [pc, #32]	@ (10007390 <__wrap_malloc+0x28>)
1000736e:	0030      	movs	r0, r6
10007370:	f003 fd36 	bl	1000ade0 <__mutex_enter_blocking_veneer>
10007374:	0028      	movs	r0, r5
10007376:	f003 fbf7 	bl	1000ab68 <malloc>
1000737a:	0004      	movs	r4, r0
1000737c:	0030      	movs	r0, r6
1000737e:	f003 fcd7 	bl	1000ad30 <__mutex_exit_veneer>
10007382:	0029      	movs	r1, r5
10007384:	0020      	movs	r0, r4
10007386:	f7ff ffdf 	bl	10007348 <check_alloc>
1000738a:	0020      	movs	r0, r4
1000738c:	bd70      	pop	{r4, r5, r6, pc}
1000738e:	46c0      	nop			@ (mov r8, r8)
10007390:	200013e0 	.word	0x200013e0

10007394 <__wrap_free>:
10007394:	b570      	push	{r4, r5, r6, lr}
10007396:	0004      	movs	r4, r0
10007398:	4d05      	ldr	r5, [pc, #20]	@ (100073b0 <__wrap_free+0x1c>)
1000739a:	0028      	movs	r0, r5
1000739c:	f003 fd20 	bl	1000ade0 <__mutex_enter_blocking_veneer>
100073a0:	0020      	movs	r0, r4
100073a2:	f003 fbeb 	bl	1000ab7c <free>
100073a6:	0028      	movs	r0, r5
100073a8:	f003 fcc2 	bl	1000ad30 <__mutex_exit_veneer>
100073ac:	bd70      	pop	{r4, r5, r6, pc}
100073ae:	46c0      	nop			@ (mov r8, r8)
100073b0:	200013e0 	.word	0x200013e0

100073b4 <__aeabi_mem_init>:
100073b4:	4801      	ldr	r0, [pc, #4]	@ (100073bc <__aeabi_mem_init+0x8>)
100073b6:	2104      	movs	r1, #4
100073b8:	4b01      	ldr	r3, [pc, #4]	@ (100073c0 <__aeabi_mem_init+0xc>)
100073ba:	4718      	bx	r3
100073bc:	20000e50 	.word	0x20000e50
100073c0:	10005899 	.word	0x10005899

100073c4 <__wrap_memset>:
100073c4:	4b01      	ldr	r3, [pc, #4]	@ (100073cc <__wrap_memset+0x8>)
100073c6:	681b      	ldr	r3, [r3, #0]
100073c8:	4718      	bx	r3
100073ca:	0000      	.short	0x0000
100073cc:	20000e50 	.word	0x20000e50

100073d0 <__wrap___aeabi_memcpy>:
100073d0:	4b01      	ldr	r3, [pc, #4]	@ (100073d8 <__wrap___aeabi_memcpy+0x8>)
100073d2:	685b      	ldr	r3, [r3, #4]
100073d4:	4718      	bx	r3
100073d6:	0000      	.short	0x0000
100073d8:	20000e50 	.word	0x20000e50

100073dc <time_reached>:
100073dc:	4b08      	ldr	r3, [pc, #32]	@ (10007400 <time_reached+0x24>)
100073de:	6a5b      	ldr	r3, [r3, #36]	@ 0x24
100073e0:	4299      	cmp	r1, r3
100073e2:	d809      	bhi.n	100073f8 <time_reached+0x1c>
100073e4:	4a06      	ldr	r2, [pc, #24]	@ (10007400 <time_reached+0x24>)
100073e6:	6a92      	ldr	r2, [r2, #40]	@ 0x28
100073e8:	4282      	cmp	r2, r0
100073ea:	d207      	bcs.n	100073fc <time_reached+0x20>
100073ec:	4299      	cmp	r1, r3
100073ee:	d001      	beq.n	100073f4 <time_reached+0x18>
100073f0:	2001      	movs	r0, #1
100073f2:	e002      	b.n	100073fa <time_reached+0x1e>
100073f4:	2000      	movs	r0, #0
100073f6:	e000      	b.n	100073fa <time_reached+0x1e>
100073f8:	2000      	movs	r0, #0
100073fa:	4770      	bx	lr
100073fc:	2001      	movs	r0, #1
100073fe:	e7fc      	b.n	100073fa <time_reached+0x1e>
10007400:	40054000 	.word	0x40054000

10007404 <stdio_out_chars_no_crlf>:
10007404:	b510      	push	{r4, lr}
10007406:	0003      	movs	r3, r0
10007408:	0008      	movs	r0, r1
1000740a:	0011      	movs	r1, r2
1000740c:	681b      	ldr	r3, [r3, #0]
1000740e:	4798      	blx	r3
10007410:	bd10      	pop	{r4, pc}
	...

10007414 <stdio_out_chars_crlf>:
10007414:	b5f8      	push	{r3, r4, r5, r6, r7, lr}
10007416:	0007      	movs	r7, r0
10007418:	000d      	movs	r5, r1
1000741a:	0016      	movs	r6, r2
1000741c:	7d43      	ldrb	r3, [r0, #21]
1000741e:	2b00      	cmp	r3, #0
10007420:	d002      	beq.n	10007428 <stdio_out_chars_crlf+0x14>
10007422:	2400      	movs	r4, #0
10007424:	2000      	movs	r0, #0
10007426:	e00c      	b.n	10007442 <stdio_out_chars_crlf+0x2e>
10007428:	6803      	ldr	r3, [r0, #0]
1000742a:	0011      	movs	r1, r2
1000742c:	0028      	movs	r0, r5
1000742e:	4798      	blx	r3
10007430:	e02d      	b.n	1000748e <stdio_out_chars_crlf+0x7a>
10007432:	7d3b      	ldrb	r3, [r7, #20]
10007434:	e010      	b.n	10007458 <stdio_out_chars_crlf+0x44>
10007436:	683b      	ldr	r3, [r7, #0]
10007438:	4815      	ldr	r0, [pc, #84]	@ (10007490 <stdio_out_chars_crlf+0x7c>)
1000743a:	2102      	movs	r1, #2
1000743c:	4798      	blx	r3
1000743e:	1c60      	adds	r0, r4, #1
10007440:	3401      	adds	r4, #1
10007442:	42b4      	cmp	r4, r6
10007444:	da14      	bge.n	10007470 <stdio_out_chars_crlf+0x5c>
10007446:	2c00      	cmp	r4, #0
10007448:	ddf3      	ble.n	10007432 <stdio_out_chars_crlf+0x1e>
1000744a:	192b      	adds	r3, r5, r4
1000744c:	3b01      	subs	r3, #1
1000744e:	781b      	ldrb	r3, [r3, #0]
10007450:	3b0d      	subs	r3, #13
10007452:	425a      	negs	r2, r3
10007454:	4153      	adcs	r3, r2
10007456:	b2db      	uxtb	r3, r3
10007458:	5d2a      	ldrb	r2, [r5, r4]
1000745a:	2a0a      	cmp	r2, #10
1000745c:	d1f0      	bne.n	10007440 <stdio_out_chars_crlf+0x2c>
1000745e:	2b00      	cmp	r3, #0
10007460:	d1ee      	bne.n	10007440 <stdio_out_chars_crlf+0x2c>
10007462:	42a0      	cmp	r0, r4
10007464:	dae7      	bge.n	10007436 <stdio_out_chars_crlf+0x22>
10007466:	683b      	ldr	r3, [r7, #0]
10007468:	1a21      	subs	r1, r4, r0
1000746a:	1828      	adds	r0, r5, r0
1000746c:	4798      	blx	r3
1000746e:	e7e2      	b.n	10007436 <stdio_out_chars_crlf+0x22>
10007470:	42b0      	cmp	r0, r6
10007472:	da03      	bge.n	1000747c <stdio_out_chars_crlf+0x68>
10007474:	683b      	ldr	r3, [r7, #0]
10007476:	1a31      	subs	r1, r6, r0
10007478:	1828      	adds	r0, r5, r0
1000747a:	4798      	blx	r3
1000747c:	2e00      	cmp	r6, #0
1000747e:	dd06      	ble.n	1000748e <stdio_out_chars_crlf+0x7a>
10007480:	19ad      	adds	r5, r5, r6
10007482:	3d01      	subs	r5, #1
10007484:	782b      	ldrb	r3, [r5, #0]
10007486:	3b0d      	subs	r3, #13
10007488:	425a      	negs	r2, r3
1000748a:	4153      	adcs	r3, r2
1000748c:	753b      	strb	r3, [r7, #20]
1000748e:	bdf8      	pop	{r3, r4, r5, r6, r7, pc}
10007490:	1000c8dc 	.word	0x1000c8dc

10007494 <stdio_stack_buffer_flush>:
10007494:	b570      	push	{r4, r5, r6, lr}
10007496:	0005      	movs	r5, r0
10007498:	6803      	ldr	r3, [r0, #0]
1000749a:	2b00      	cmp	r3, #0
1000749c:	d016      	beq.n	100074cc <stdio_stack_buffer_flush+0x38>
1000749e:	4b0c      	ldr	r3, [pc, #48]	@ (100074d0 <stdio_stack_buffer_flush+0x3c>)
100074a0:	681c      	ldr	r4, [r3, #0]
100074a2:	e005      	b.n	100074b0 <stdio_stack_buffer_flush+0x1c>
100074a4:	0029      	movs	r1, r5
100074a6:	c904      	ldmia	r1!, {r2}
100074a8:	0020      	movs	r0, r4
100074aa:	f7ff ffb3 	bl	10007414 <stdio_out_chars_crlf>
100074ae:	6924      	ldr	r4, [r4, #16]
100074b0:	2c00      	cmp	r4, #0
100074b2:	d009      	beq.n	100074c8 <stdio_stack_buffer_flush+0x34>
100074b4:	6823      	ldr	r3, [r4, #0]
100074b6:	2b00      	cmp	r3, #0
100074b8:	d0f9      	beq.n	100074ae <stdio_stack_buffer_flush+0x1a>
100074ba:	4b06      	ldr	r3, [pc, #24]	@ (100074d4 <stdio_stack_buffer_flush+0x40>)
100074bc:	681b      	ldr	r3, [r3, #0]
100074be:	2b00      	cmp	r3, #0
100074c0:	d0f0      	beq.n	100074a4 <stdio_stack_buffer_flush+0x10>
100074c2:	42a3      	cmp	r3, r4
100074c4:	d1f3      	bne.n	100074ae <stdio_stack_buffer_flush+0x1a>
100074c6:	e7ed      	b.n	100074a4 <stdio_stack_buffer_flush+0x10>
100074c8:	2300      	movs	r3, #0
100074ca:	602b      	str	r3, [r5, #0]
100074cc:	bd70      	pop	{r4, r5, r6, pc}
100074ce:	46c0      	nop			@ (mov r8, r8)
100074d0:	20001eac 	.word	0x20001eac
100074d4:	20001eb4 	.word	0x20001eb4

100074d8 <stdio_buffered_printer>:
100074d8:	b570      	push	{r4, r5, r6, lr}
100074da:	0005      	movs	r5, r0
100074dc:	000c      	movs	r4, r1
100074de:	680b      	ldr	r3, [r1, #0]
100074e0:	2b80      	cmp	r3, #128	@ 0x80
100074e2:	d005      	beq.n	100074f0 <stdio_buffered_printer+0x18>
100074e4:	6823      	ldr	r3, [r4, #0]
100074e6:	1c5a      	adds	r2, r3, #1
100074e8:	6022      	str	r2, [r4, #0]
100074ea:	18e4      	adds	r4, r4, r3
100074ec:	7125      	strb	r5, [r4, #4]
100074ee:	bd70      	pop	{r4, r5, r6, pc}
100074f0:	0008      	movs	r0, r1
100074f2:	f7ff ffcf 	bl	10007494 <stdio_stack_buffer_flush>
100074f6:	e7f5      	b.n	100074e4 <stdio_buffered_printer+0xc>

100074f8 <update_us_since_boot>:
100074f8:	b510      	push	{r4, lr}
100074fa:	2b00      	cmp	r3, #0
100074fc:	db02      	blt.n	10007504 <update_us_since_boot+0xc>
100074fe:	6002      	str	r2, [r0, #0]
10007500:	6043      	str	r3, [r0, #4]
10007502:	bd10      	pop	{r4, pc}
10007504:	4b02      	ldr	r3, [pc, #8]	@ (10007510 <update_us_since_boot+0x18>)
10007506:	4a03      	ldr	r2, [pc, #12]	@ (10007514 <update_us_since_boot+0x1c>)
10007508:	4803      	ldr	r0, [pc, #12]	@ (10007518 <update_us_since_boot+0x20>)
1000750a:	213f      	movs	r1, #63	@ 0x3f
1000750c:	f7fd f820 	bl	10004550 <__assert_func>
10007510:	1000b6ec 	.word	0x1000b6ec
10007514:	1000c8e0 	.word	0x1000c8e0
10007518:	1000b708 	.word	0x1000b708

1000751c <get_absolute_time>:
1000751c:	b510      	push	{r4, lr}
1000751e:	b082      	sub	sp, #8
10007520:	0004      	movs	r4, r0
10007522:	f7fc fb19 	bl	10003b58 <time_us_64>
10007526:	0002      	movs	r2, r0
10007528:	000b      	movs	r3, r1
1000752a:	4668      	mov	r0, sp
1000752c:	f7ff ffe4 	bl	100074f8 <update_us_since_boot>
10007530:	9a00      	ldr	r2, [sp, #0]
10007532:	9b01      	ldr	r3, [sp, #4]
10007534:	6022      	str	r2, [r4, #0]
10007536:	6063      	str	r3, [r4, #4]
10007538:	0020      	movs	r0, r4
1000753a:	b002      	add	sp, #8
1000753c:	bd10      	pop	{r4, pc}
	...

10007540 <delayed_by_ms>:
10007540:	b570      	push	{r4, r5, r6, lr}
10007542:	b082      	sub	sp, #8
10007544:	0006      	movs	r6, r0
10007546:	0014      	movs	r4, r2
10007548:	001d      	movs	r5, r3
1000754a:	22fa      	movs	r2, #250	@ 0xfa
1000754c:	0092      	lsls	r2, r2, #2
1000754e:	2300      	movs	r3, #0
10007550:	9806      	ldr	r0, [sp, #24]
10007552:	2100      	movs	r1, #0
10007554:	f7ff fd8c 	bl	10007070 <__wrap___aeabi_lmul>
10007558:	0002      	movs	r2, r0
1000755a:	000b      	movs	r3, r1
1000755c:	1912      	adds	r2, r2, r4
1000755e:	416b      	adcs	r3, r5
10007560:	2b00      	cmp	r3, #0
10007562:	db09      	blt.n	10007578 <delayed_by_ms+0x38>
10007564:	4668      	mov	r0, sp
10007566:	f7ff ffc7 	bl	100074f8 <update_us_since_boot>
1000756a:	9a00      	ldr	r2, [sp, #0]
1000756c:	9b01      	ldr	r3, [sp, #4]
1000756e:	6032      	str	r2, [r6, #0]
10007570:	6073      	str	r3, [r6, #4]
10007572:	0030      	movs	r0, r6
10007574:	b002      	add	sp, #8
10007576:	bd70      	pop	{r4, r5, r6, pc}
10007578:	2201      	movs	r2, #1
1000757a:	4252      	negs	r2, r2
1000757c:	4b00      	ldr	r3, [pc, #0]	@ (10007580 <delayed_by_ms+0x40>)
1000757e:	e7f1      	b.n	10007564 <delayed_by_ms+0x24>
10007580:	7fffffff 	.word	0x7fffffff

10007584 <make_timeout_time_ms>:
10007584:	b530      	push	{r4, r5, lr}
10007586:	b085      	sub	sp, #20
10007588:	0004      	movs	r4, r0
1000758a:	000d      	movs	r5, r1
1000758c:	a802      	add	r0, sp, #8
1000758e:	f7ff ffc5 	bl	1000751c <get_absolute_time>
10007592:	9a02      	ldr	r2, [sp, #8]
10007594:	9b03      	ldr	r3, [sp, #12]
10007596:	9500      	str	r5, [sp, #0]
10007598:	0020      	movs	r0, r4
1000759a:	f7ff ffd1 	bl	10007540 <delayed_by_ms>
1000759e:	0020      	movs	r0, r4
100075a0:	b005      	add	sp, #20
100075a2:	bd30      	pop	{r4, r5, pc}

100075a4 <delayed_by_us>:
100075a4:	b510      	push	{r4, lr}
100075a6:	b082      	sub	sp, #8
100075a8:	0004      	movs	r4, r0
100075aa:	9804      	ldr	r0, [sp, #16]
100075ac:	9905      	ldr	r1, [sp, #20]
100075ae:	1812      	adds	r2, r2, r0
100075b0:	414b      	adcs	r3, r1
100075b2:	2b00      	cmp	r3, #0
100075b4:	db09      	blt.n	100075ca <delayed_by_us+0x26>
100075b6:	4668      	mov	r0, sp
100075b8:	f7ff ff9e 	bl	100074f8 <update_us_since_boot>
100075bc:	9a00      	ldr	r2, [sp, #0]
100075be:	9b01      	ldr	r3, [sp, #4]
100075c0:	6022      	str	r2, [r4, #0]
100075c2:	6063      	str	r3, [r4, #4]
100075c4:	0020      	movs	r0, r4
100075c6:	b002      	add	sp, #8
100075c8:	bd10      	pop	{r4, pc}
100075ca:	2201      	movs	r2, #1
100075cc:	4252      	negs	r2, r2
100075ce:	4b01      	ldr	r3, [pc, #4]	@ (100075d4 <delayed_by_us+0x30>)
100075d0:	e7f1      	b.n	100075b6 <delayed_by_us+0x12>
100075d2:	46c0      	nop			@ (mov r8, r8)
100075d4:	7fffffff 	.word	0x7fffffff

100075d8 <make_timeout_time_us>:
100075d8:	b570      	push	{r4, r5, r6, lr}
100075da:	b084      	sub	sp, #16
100075dc:	0004      	movs	r4, r0
100075de:	0016      	movs	r6, r2
100075e0:	001d      	movs	r5, r3
100075e2:	a802      	add	r0, sp, #8
100075e4:	f7ff ff9a 	bl	1000751c <get_absolute_time>
100075e8:	9a02      	ldr	r2, [sp, #8]
100075ea:	9b03      	ldr	r3, [sp, #12]
100075ec:	9600      	str	r6, [sp, #0]
100075ee:	9501      	str	r5, [sp, #4]
100075f0:	0020      	movs	r0, r4
100075f2:	f7ff ffd7 	bl	100075a4 <delayed_by_us>
100075f6:	0020      	movs	r0, r4
100075f8:	b004      	add	sp, #16
100075fa:	bd70      	pop	{r4, r5, r6, pc}

100075fc <stdio_get_until>:
100075fc:	b5f8      	push	{r3, r4, r5, r6, r7, lr}
100075fe:	46ce      	mov	lr, r9
10007600:	4647      	mov	r7, r8
10007602:	b580      	push	{r7, lr}
10007604:	0007      	movs	r7, r0
10007606:	000e      	movs	r6, r1
10007608:	4691      	mov	r9, r2
1000760a:	4698      	mov	r8, r3
1000760c:	e01b      	b.n	10007646 <stdio_get_until+0x4a>
1000760e:	68a3      	ldr	r3, [r4, #8]
10007610:	2b00      	cmp	r3, #0
10007612:	d004      	beq.n	1000761e <stdio_get_until+0x22>
10007614:	0031      	movs	r1, r6
10007616:	0038      	movs	r0, r7
10007618:	4798      	blx	r3
1000761a:	2800      	cmp	r0, #0
1000761c:	dc18      	bgt.n	10007650 <stdio_get_until+0x54>
1000761e:	6924      	ldr	r4, [r4, #16]
10007620:	2c00      	cmp	r4, #0
10007622:	d006      	beq.n	10007632 <stdio_get_until+0x36>
10007624:	4d0c      	ldr	r5, [pc, #48]	@ (10007658 <stdio_get_until+0x5c>)
10007626:	682d      	ldr	r5, [r5, #0]
10007628:	2d00      	cmp	r5, #0
1000762a:	d0f0      	beq.n	1000760e <stdio_get_until+0x12>
1000762c:	42a5      	cmp	r5, r4
1000762e:	d1f6      	bne.n	1000761e <stdio_get_until+0x22>
10007630:	e7ed      	b.n	1000760e <stdio_get_until+0x12>
10007632:	4648      	mov	r0, r9
10007634:	4641      	mov	r1, r8
10007636:	f7ff fed1 	bl	100073dc <time_reached>
1000763a:	2800      	cmp	r0, #0
1000763c:	d106      	bne.n	1000764c <stdio_get_until+0x50>
1000763e:	2001      	movs	r0, #1
10007640:	2100      	movs	r1, #0
10007642:	f7fc faa9 	bl	10003b98 <busy_wait_us>
10007646:	4b05      	ldr	r3, [pc, #20]	@ (1000765c <stdio_get_until+0x60>)
10007648:	681c      	ldr	r4, [r3, #0]
1000764a:	e7e9      	b.n	10007620 <stdio_get_until+0x24>
1000764c:	2001      	movs	r0, #1
1000764e:	4240      	negs	r0, r0
10007650:	bcc0      	pop	{r6, r7}
10007652:	46b9      	mov	r9, r7
10007654:	46b0      	mov	r8, r6
10007656:	bdf8      	pop	{r3, r4, r5, r6, r7, pc}
10007658:	20001eb4 	.word	0x20001eb4
1000765c:	20001eac 	.word	0x20001eac

10007660 <stdout_serialize_begin>:
10007660:	b500      	push	{lr}
10007662:	b083      	sub	sp, #12
10007664:	21fa      	movs	r1, #250	@ 0xfa
10007666:	0089      	lsls	r1, r1, #2
10007668:	4668      	mov	r0, sp
1000766a:	f7ff ff8b 	bl	10007584 <make_timeout_time_ms>
1000766e:	9a00      	ldr	r2, [sp, #0]
10007670:	9b01      	ldr	r3, [sp, #4]
10007672:	4802      	ldr	r0, [pc, #8]	@ (1000767c <stdout_serialize_begin+0x1c>)
10007674:	f003 fb94 	bl	1000ada0 <__mutex_try_enter_block_until_veneer>
10007678:	b003      	add	sp, #12
1000767a:	bd00      	pop	{pc}
1000767c:	200013e8 	.word	0x200013e8

10007680 <stdout_serialize_end>:
10007680:	b510      	push	{r4, lr}
10007682:	4802      	ldr	r0, [pc, #8]	@ (1000768c <stdout_serialize_end+0xc>)
10007684:	f003 fb54 	bl	1000ad30 <__mutex_exit_veneer>
10007688:	bd10      	pop	{r4, pc}
1000768a:	46c0      	nop			@ (mov r8, r8)
1000768c:	200013e8 	.word	0x200013e8

10007690 <stdio_put_string>:
10007690:	b5f0      	push	{r4, r5, r6, r7, lr}
10007692:	46ce      	mov	lr, r9
10007694:	4647      	mov	r7, r8
10007696:	b580      	push	{r7, lr}
10007698:	b083      	sub	sp, #12
1000769a:	0006      	movs	r6, r0
1000769c:	000d      	movs	r5, r1
1000769e:	4690      	mov	r8, r2
100076a0:	001c      	movs	r4, r3
100076a2:	f7ff ffdd 	bl	10007660 <stdout_serialize_begin>
100076a6:	4681      	mov	r9, r0
100076a8:	1c6b      	adds	r3, r5, #1
100076aa:	d005      	beq.n	100076b8 <stdio_put_string+0x28>
100076ac:	2c00      	cmp	r4, #0
100076ae:	d008      	beq.n	100076c2 <stdio_put_string+0x32>
100076b0:	4f19      	ldr	r7, [pc, #100]	@ (10007718 <stdio_put_string+0x88>)
100076b2:	4b1a      	ldr	r3, [pc, #104]	@ (1000771c <stdio_put_string+0x8c>)
100076b4:	681c      	ldr	r4, [r3, #0]
100076b6:	e007      	b.n	100076c8 <stdio_put_string+0x38>
100076b8:	0030      	movs	r0, r6
100076ba:	f003 fa83 	bl	1000abc4 <strlen>
100076be:	0005      	movs	r5, r0
100076c0:	e7f4      	b.n	100076ac <stdio_put_string+0x1c>
100076c2:	4f17      	ldr	r7, [pc, #92]	@ (10007720 <stdio_put_string+0x90>)
100076c4:	e7f5      	b.n	100076b2 <stdio_put_string+0x22>
100076c6:	6924      	ldr	r4, [r4, #16]
100076c8:	2c00      	cmp	r4, #0
100076ca:	d017      	beq.n	100076fc <stdio_put_string+0x6c>
100076cc:	6823      	ldr	r3, [r4, #0]
100076ce:	2b00      	cmp	r3, #0
100076d0:	d0f9      	beq.n	100076c6 <stdio_put_string+0x36>
100076d2:	4b14      	ldr	r3, [pc, #80]	@ (10007724 <stdio_put_string+0x94>)
100076d4:	681b      	ldr	r3, [r3, #0]
100076d6:	2b00      	cmp	r3, #0
100076d8:	d001      	beq.n	100076de <stdio_put_string+0x4e>
100076da:	42a3      	cmp	r3, r4
100076dc:	d1f3      	bne.n	100076c6 <stdio_put_string+0x36>
100076de:	002a      	movs	r2, r5
100076e0:	0031      	movs	r1, r6
100076e2:	0020      	movs	r0, r4
100076e4:	47b8      	blx	r7
100076e6:	4643      	mov	r3, r8
100076e8:	2b00      	cmp	r3, #0
100076ea:	d0ec      	beq.n	100076c6 <stdio_put_string+0x36>
100076ec:	466b      	mov	r3, sp
100076ee:	1dd9      	adds	r1, r3, #7
100076f0:	230a      	movs	r3, #10
100076f2:	700b      	strb	r3, [r1, #0]
100076f4:	2201      	movs	r2, #1
100076f6:	0020      	movs	r0, r4
100076f8:	47b8      	blx	r7
100076fa:	e7e4      	b.n	100076c6 <stdio_put_string+0x36>
100076fc:	464b      	mov	r3, r9
100076fe:	2b00      	cmp	r3, #0
10007700:	d107      	bne.n	10007712 <stdio_put_string+0x82>
10007702:	1e6b      	subs	r3, r5, #1
10007704:	419d      	sbcs	r5, r3
10007706:	b2e8      	uxtb	r0, r5
10007708:	b003      	add	sp, #12
1000770a:	bcc0      	pop	{r6, r7}
1000770c:	46b9      	mov	r9, r7
1000770e:	46b0      	mov	r8, r6
10007710:	bdf0      	pop	{r4, r5, r6, r7, pc}
10007712:	f7ff ffb5 	bl	10007680 <stdout_serialize_end>
10007716:	e7f4      	b.n	10007702 <stdio_put_string+0x72>
10007718:	10007405 	.word	0x10007405
1000771c:	20001eac 	.word	0x20001eac
10007720:	10007415 	.word	0x10007415
10007724:	20001eb4 	.word	0x20001eb4

10007728 <__wrap_putchar>:
10007728:	b510      	push	{r4, lr}
1000772a:	b082      	sub	sp, #8
1000772c:	0004      	movs	r4, r0
1000772e:	466b      	mov	r3, sp
10007730:	1dd8      	adds	r0, r3, #7
10007732:	7004      	strb	r4, [r0, #0]
10007734:	2300      	movs	r3, #0
10007736:	2200      	movs	r2, #0
10007738:	2101      	movs	r1, #1
1000773a:	f7ff ffa9 	bl	10007690 <stdio_put_string>
1000773e:	0020      	movs	r0, r4
10007740:	b002      	add	sp, #8
10007742:	bd10      	pop	{r4, pc}

10007744 <stdio_set_driver_enabled>:
10007744:	4a09      	ldr	r2, [pc, #36]	@ (1000776c <stdio_set_driver_enabled+0x28>)
10007746:	e001      	b.n	1000774c <stdio_set_driver_enabled+0x8>
10007748:	3310      	adds	r3, #16
1000774a:	001a      	movs	r2, r3
1000774c:	6813      	ldr	r3, [r2, #0]
1000774e:	2b00      	cmp	r3, #0
10007750:	d008      	beq.n	10007764 <stdio_set_driver_enabled+0x20>
10007752:	4283      	cmp	r3, r0
10007754:	d1f8      	bne.n	10007748 <stdio_set_driver_enabled+0x4>
10007756:	2900      	cmp	r1, #0
10007758:	d107      	bne.n	1000776a <stdio_set_driver_enabled+0x26>
1000775a:	6903      	ldr	r3, [r0, #16]
1000775c:	6013      	str	r3, [r2, #0]
1000775e:	2300      	movs	r3, #0
10007760:	6103      	str	r3, [r0, #16]
10007762:	e002      	b.n	1000776a <stdio_set_driver_enabled+0x26>
10007764:	2900      	cmp	r1, #0
10007766:	d000      	beq.n	1000776a <stdio_set_driver_enabled+0x26>
10007768:	6010      	str	r0, [r2, #0]
1000776a:	4770      	bx	lr
1000776c:	20001eac 	.word	0x20001eac

10007770 <stdio_flush>:
10007770:	b510      	push	{r4, lr}
10007772:	4b06      	ldr	r3, [pc, #24]	@ (1000778c <stdio_flush+0x1c>)
10007774:	681c      	ldr	r4, [r3, #0]
10007776:	e001      	b.n	1000777c <stdio_flush+0xc>
10007778:	4798      	blx	r3
1000777a:	6924      	ldr	r4, [r4, #16]
1000777c:	2c00      	cmp	r4, #0
1000777e:	d003      	beq.n	10007788 <stdio_flush+0x18>
10007780:	6863      	ldr	r3, [r4, #4]
10007782:	2b00      	cmp	r3, #0
10007784:	d1f8      	bne.n	10007778 <stdio_flush+0x8>
10007786:	e7f8      	b.n	1000777a <stdio_flush+0xa>
10007788:	bd10      	pop	{r4, pc}
1000778a:	46c0      	nop			@ (mov r8, r8)
1000778c:	20001eac 	.word	0x20001eac

10007790 <__wrap_puts>:
10007790:	b570      	push	{r4, r5, r6, lr}
10007792:	0005      	movs	r5, r0
10007794:	f003 fa16 	bl	1000abc4 <strlen>
10007798:	0004      	movs	r4, r0
1000779a:	2300      	movs	r3, #0
1000779c:	2201      	movs	r2, #1
1000779e:	0001      	movs	r1, r0
100077a0:	0028      	movs	r0, r5
100077a2:	f7ff ff75 	bl	10007690 <stdio_put_string>
100077a6:	f7ff ffe3 	bl	10007770 <stdio_flush>
100077aa:	0020      	movs	r0, r4
100077ac:	bd70      	pop	{r4, r5, r6, pc}
	...

100077b0 <__wrap_vprintf>:
100077b0:	b570      	push	{r4, r5, r6, lr}
100077b2:	b0a2      	sub	sp, #136	@ 0x88
100077b4:	0004      	movs	r4, r0
100077b6:	000e      	movs	r6, r1
100077b8:	f7ff ff52 	bl	10007660 <stdout_serialize_begin>
100077bc:	0005      	movs	r5, r0
100077be:	2300      	movs	r3, #0
100077c0:	9301      	str	r3, [sp, #4]
100077c2:	480a      	ldr	r0, [pc, #40]	@ (100077ec <__wrap_vprintf+0x3c>)
100077c4:	0033      	movs	r3, r6
100077c6:	0022      	movs	r2, r4
100077c8:	a901      	add	r1, sp, #4
100077ca:	f7fe f83d 	bl	10005848 <vfctprintf>
100077ce:	0004      	movs	r4, r0
100077d0:	a801      	add	r0, sp, #4
100077d2:	f7ff fe5f 	bl	10007494 <stdio_stack_buffer_flush>
100077d6:	f7ff ffcb 	bl	10007770 <stdio_flush>
100077da:	2d00      	cmp	r5, #0
100077dc:	d102      	bne.n	100077e4 <__wrap_vprintf+0x34>
100077de:	0020      	movs	r0, r4
100077e0:	b022      	add	sp, #136	@ 0x88
100077e2:	bd70      	pop	{r4, r5, r6, pc}
100077e4:	f7ff ff4c 	bl	10007680 <stdout_serialize_end>
100077e8:	e7f9      	b.n	100077de <__wrap_vprintf+0x2e>
100077ea:	46c0      	nop			@ (mov r8, r8)
100077ec:	100074d9 	.word	0x100074d9

100077f0 <__wrap_printf>:
100077f0:	b40f      	push	{r0, r1, r2, r3}
100077f2:	b500      	push	{lr}
100077f4:	b083      	sub	sp, #12
100077f6:	a904      	add	r1, sp, #16
100077f8:	c901      	ldmia	r1!, {r0}
100077fa:	9101      	str	r1, [sp, #4]
100077fc:	f7ff ffd8 	bl	100077b0 <__wrap_vprintf>
10007800:	b003      	add	sp, #12
10007802:	bc08      	pop	{r3}
10007804:	b004      	add	sp, #16
10007806:	4718      	bx	r3

10007808 <stdio_init_all>:
10007808:	b510      	push	{r4, lr}
1000780a:	f000 f9d1 	bl	10007bb0 <stdio_usb_init>
1000780e:	bd10      	pop	{r4, pc}

10007810 <getchar_timeout_us>:
10007810:	b500      	push	{lr}
10007812:	b085      	sub	sp, #20
10007814:	0002      	movs	r2, r0
10007816:	2300      	movs	r3, #0
10007818:	4668      	mov	r0, sp
1000781a:	f7ff fedd 	bl	100075d8 <make_timeout_time_us>
1000781e:	9a00      	ldr	r2, [sp, #0]
10007820:	9b01      	ldr	r3, [sp, #4]
10007822:	2101      	movs	r1, #1
10007824:	a803      	add	r0, sp, #12
10007826:	f7ff fee9 	bl	100075fc <stdio_get_until>
1000782a:	2800      	cmp	r0, #0
1000782c:	db02      	blt.n	10007834 <getchar_timeout_us+0x24>
1000782e:	d003      	beq.n	10007838 <getchar_timeout_us+0x28>
10007830:	ab03      	add	r3, sp, #12
10007832:	7818      	ldrb	r0, [r3, #0]
10007834:	b005      	add	sp, #20
10007836:	bd00      	pop	{pc}
10007838:	4b03      	ldr	r3, [pc, #12]	@ (10007848 <getchar_timeout_us+0x38>)
1000783a:	4a04      	ldr	r2, [pc, #16]	@ (1000784c <getchar_timeout_us+0x3c>)
1000783c:	219e      	movs	r1, #158	@ 0x9e
1000783e:	4804      	ldr	r0, [pc, #16]	@ (10007850 <getchar_timeout_us+0x40>)
10007840:	0049      	lsls	r1, r1, #1
10007842:	f7fc fe85 	bl	10004550 <__assert_func>
10007846:	46c0      	nop			@ (mov r8, r8)
10007848:	1000b9dc 	.word	0x1000b9dc
1000784c:	1000c8c8 	.word	0x1000c8c8
10007850:	1000bed4 	.word	0x1000bed4

10007854 <resetd_init>:
10007854:	4770      	bx	lr
	...

10007858 <resetd_reset>:
10007858:	4b01      	ldr	r3, [pc, #4]	@ (10007860 <resetd_reset+0x8>)
1000785a:	2200      	movs	r2, #0
1000785c:	701a      	strb	r2, [r3, #0]
1000785e:	4770      	bx	lr
10007860:	20002556 	.word	0x20002556

10007864 <resetd_open>:
10007864:	794b      	ldrb	r3, [r1, #5]
10007866:	2bff      	cmp	r3, #255	@ 0xff
10007868:	d10c      	bne.n	10007884 <resetd_open+0x20>
1000786a:	798b      	ldrb	r3, [r1, #6]
1000786c:	2b00      	cmp	r3, #0
1000786e:	d10b      	bne.n	10007888 <resetd_open+0x24>
10007870:	79cb      	ldrb	r3, [r1, #7]
10007872:	2b01      	cmp	r3, #1
10007874:	d10a      	bne.n	1000788c <resetd_open+0x28>
10007876:	2a08      	cmp	r2, #8
10007878:	d90a      	bls.n	10007890 <resetd_open+0x2c>
1000787a:	788a      	ldrb	r2, [r1, #2]
1000787c:	4b05      	ldr	r3, [pc, #20]	@ (10007894 <resetd_open+0x30>)
1000787e:	701a      	strb	r2, [r3, #0]
10007880:	2009      	movs	r0, #9
10007882:	e000      	b.n	10007886 <resetd_open+0x22>
10007884:	2000      	movs	r0, #0
10007886:	4770      	bx	lr
10007888:	2000      	movs	r0, #0
1000788a:	e7fc      	b.n	10007886 <resetd_open+0x22>
1000788c:	2000      	movs	r0, #0
1000788e:	e7fa      	b.n	10007886 <resetd_open+0x22>
10007890:	2000      	movs	r0, #0
10007892:	e7f8      	b.n	10007886 <resetd_open+0x22>
10007894:	20002556 	.word	0x20002556

10007898 <resetd_xfer_cb>:
10007898:	2001      	movs	r0, #1
1000789a:	4770      	bx	lr

1000789c <reset_usb_boot>:
1000789c:	b570      	push	{r4, r5, r6, lr}
1000789e:	0004      	movs	r4, r0
100078a0:	000d      	movs	r5, r1
100078a2:	4803      	ldr	r0, [pc, #12]	@ (100078b0 <reset_usb_boot+0x14>)
100078a4:	f7fd ffe8 	bl	10005878 <rom_func_lookup>
100078a8:	0003      	movs	r3, r0
100078aa:	0029      	movs	r1, r5
100078ac:	0020      	movs	r0, r4
100078ae:	4798      	blx	r3
100078b0:	00004255 	.word	0x00004255

100078b4 <resetd_control_xfer_cb>:
100078b4:	b510      	push	{r4, lr}
100078b6:	2901      	cmp	r1, #1
100078b8:	d126      	bne.n	10007908 <resetd_control_xfer_cb+0x54>
100078ba:	7911      	ldrb	r1, [r2, #4]
100078bc:	7953      	ldrb	r3, [r2, #5]
100078be:	021b      	lsls	r3, r3, #8
100078c0:	430b      	orrs	r3, r1
100078c2:	4912      	ldr	r1, [pc, #72]	@ (1000790c <resetd_control_xfer_cb+0x58>)
100078c4:	7809      	ldrb	r1, [r1, #0]
100078c6:	428b      	cmp	r3, r1
100078c8:	d001      	beq.n	100078ce <resetd_control_xfer_cb+0x1a>
100078ca:	2000      	movs	r0, #0
100078cc:	e01d      	b.n	1000790a <resetd_control_xfer_cb+0x56>
100078ce:	7853      	ldrb	r3, [r2, #1]
100078d0:	2b01      	cmp	r3, #1
100078d2:	d003      	beq.n	100078dc <resetd_control_xfer_cb+0x28>
100078d4:	2b02      	cmp	r3, #2
100078d6:	d010      	beq.n	100078fa <resetd_control_xfer_cb+0x46>
100078d8:	2000      	movs	r0, #0
100078da:	e016      	b.n	1000790a <resetd_control_xfer_cb+0x56>
100078dc:	7891      	ldrb	r1, [r2, #2]
100078de:	78d3      	ldrb	r3, [r2, #3]
100078e0:	021b      	lsls	r3, r3, #8
100078e2:	4319      	orrs	r1, r3
100078e4:	05db      	lsls	r3, r3, #23
100078e6:	d506      	bpl.n	100078f6 <resetd_control_xfer_cb+0x42>
100078e8:	0a4b      	lsrs	r3, r1, #9
100078ea:	2001      	movs	r0, #1
100078ec:	4098      	lsls	r0, r3
100078ee:	237f      	movs	r3, #127	@ 0x7f
100078f0:	4019      	ands	r1, r3
100078f2:	f7ff ffd3 	bl	1000789c <reset_usb_boot>
100078f6:	2000      	movs	r0, #0
100078f8:	e7f9      	b.n	100078ee <resetd_control_xfer_cb+0x3a>
100078fa:	2264      	movs	r2, #100	@ 0x64
100078fc:	2100      	movs	r1, #0
100078fe:	2000      	movs	r0, #0
10007900:	f7fc fdcc 	bl	1000449c <watchdog_reboot>
10007904:	2001      	movs	r0, #1
10007906:	e000      	b.n	1000790a <resetd_control_xfer_cb+0x56>
10007908:	2001      	movs	r0, #1
1000790a:	bd10      	pop	{r4, pc}
1000790c:	20002556 	.word	0x20002556

10007910 <usbd_app_driver_get_cb>:
10007910:	2301      	movs	r3, #1
10007912:	7003      	strb	r3, [r0, #0]
10007914:	4800      	ldr	r0, [pc, #0]	@ (10007918 <usbd_app_driver_get_cb+0x8>)
10007916:	4770      	bx	lr
10007918:	1000c8f8 	.word	0x1000c8f8

1000791c <tud_cdc_line_coding_cb>:
1000791c:	b510      	push	{r4, lr}
1000791e:	780a      	ldrb	r2, [r1, #0]
10007920:	784b      	ldrb	r3, [r1, #1]
10007922:	021b      	lsls	r3, r3, #8
10007924:	4313      	orrs	r3, r2
10007926:	788a      	ldrb	r2, [r1, #2]
10007928:	0412      	lsls	r2, r2, #16
1000792a:	431a      	orrs	r2, r3
1000792c:	78cb      	ldrb	r3, [r1, #3]
1000792e:	061b      	lsls	r3, r3, #24
10007930:	4313      	orrs	r3, r2
10007932:	2296      	movs	r2, #150	@ 0x96
10007934:	00d2      	lsls	r2, r2, #3
10007936:	4293      	cmp	r3, r2
10007938:	d000      	beq.n	1000793c <tud_cdc_line_coding_cb+0x20>
1000793a:	bd10      	pop	{r4, pc}
1000793c:	2100      	movs	r1, #0
1000793e:	0008      	movs	r0, r1
10007940:	f7ff ffac 	bl	1000789c <reset_usb_boot>

10007944 <stdio_usb_set_chars_available_callback>:
10007944:	4b02      	ldr	r3, [pc, #8]	@ (10007950 <stdio_usb_set_chars_available_callback+0xc>)
10007946:	6018      	str	r0, [r3, #0]
10007948:	4b02      	ldr	r3, [pc, #8]	@ (10007954 <stdio_usb_set_chars_available_callback+0x10>)
1000794a:	6019      	str	r1, [r3, #0]
1000794c:	4770      	bx	lr
1000794e:	46c0      	nop			@ (mov r8, r8)
10007950:	20001de8 	.word	0x20001de8
10007954:	20001dec 	.word	0x20001dec

10007958 <update_us_since_boot>:
10007958:	b510      	push	{r4, lr}
1000795a:	2b00      	cmp	r3, #0
1000795c:	db02      	blt.n	10007964 <update_us_since_boot+0xc>
1000795e:	6002      	str	r2, [r0, #0]
10007960:	6043      	str	r3, [r0, #4]
10007962:	bd10      	pop	{r4, pc}
10007964:	4b02      	ldr	r3, [pc, #8]	@ (10007970 <update_us_since_boot+0x18>)
10007966:	4a03      	ldr	r2, [pc, #12]	@ (10007974 <update_us_since_boot+0x1c>)
10007968:	4803      	ldr	r0, [pc, #12]	@ (10007978 <update_us_since_boot+0x20>)
1000796a:	213f      	movs	r1, #63	@ 0x3f
1000796c:	f7fc fdf0 	bl	10004550 <__assert_func>
10007970:	1000b6ec 	.word	0x1000b6ec
10007974:	1000c92c 	.word	0x1000c92c
10007978:	1000b708 	.word	0x1000b708

1000797c <get_absolute_time>:
1000797c:	b510      	push	{r4, lr}
1000797e:	b082      	sub	sp, #8
10007980:	0004      	movs	r4, r0
10007982:	f7fc f8e9 	bl	10003b58 <time_us_64>
10007986:	0002      	movs	r2, r0
10007988:	000b      	movs	r3, r1
1000798a:	4668      	mov	r0, sp
1000798c:	f7ff ffe4 	bl	10007958 <update_us_since_boot>
10007990:	9a00      	ldr	r2, [sp, #0]
10007992:	9b01      	ldr	r3, [sp, #4]
10007994:	6022      	str	r2, [r4, #0]
10007996:	6063      	str	r3, [r4, #4]
10007998:	0020      	movs	r0, r4
1000799a:	b002      	add	sp, #8
1000799c:	bd10      	pop	{r4, pc}
	...

100079a0 <delayed_by_ms>:
100079a0:	b570      	push	{r4, r5, r6, lr}
100079a2:	b082      	sub	sp, #8
100079a4:	0006      	movs	r6, r0
100079a6:	0014      	movs	r4, r2
100079a8:	001d      	movs	r5, r3
100079aa:	22fa      	movs	r2, #250	@ 0xfa
100079ac:	0092      	lsls	r2, r2, #2
100079ae:	2300      	movs	r3, #0
100079b0:	9806      	ldr	r0, [sp, #24]
100079b2:	2100      	movs	r1, #0
100079b4:	f7ff fb5c 	bl	10007070 <__wrap___aeabi_lmul>
100079b8:	0002      	movs	r2, r0
100079ba:	000b      	movs	r3, r1
100079bc:	1912      	adds	r2, r2, r4
100079be:	416b      	adcs	r3, r5
100079c0:	2b00      	cmp	r3, #0
100079c2:	db09      	blt.n	100079d8 <delayed_by_ms+0x38>
100079c4:	4668      	mov	r0, sp
100079c6:	f7ff ffc7 	bl	10007958 <update_us_since_boot>
100079ca:	9a00      	ldr	r2, [sp, #0]
100079cc:	9b01      	ldr	r3, [sp, #4]
100079ce:	6032      	str	r2, [r6, #0]
100079d0:	6073      	str	r3, [r6, #4]
100079d2:	0030      	movs	r0, r6
100079d4:	b002      	add	sp, #8
100079d6:	bd70      	pop	{r4, r5, r6, pc}
100079d8:	2201      	movs	r2, #1
100079da:	4252      	negs	r2, r2
100079dc:	4b00      	ldr	r3, [pc, #0]	@ (100079e0 <delayed_by_ms+0x40>)
100079de:	e7f1      	b.n	100079c4 <delayed_by_ms+0x24>
100079e0:	7fffffff 	.word	0x7fffffff

100079e4 <make_timeout_time_ms>:
100079e4:	b530      	push	{r4, r5, lr}
100079e6:	b085      	sub	sp, #20
100079e8:	0004      	movs	r4, r0
100079ea:	000d      	movs	r5, r1
100079ec:	a802      	add	r0, sp, #8
100079ee:	f7ff ffc5 	bl	1000797c <get_absolute_time>
100079f2:	9a02      	ldr	r2, [sp, #8]
100079f4:	9b03      	ldr	r3, [sp, #12]
100079f6:	9500      	str	r5, [sp, #0]
100079f8:	0020      	movs	r0, r4
100079fa:	f7ff ffd1 	bl	100079a0 <delayed_by_ms>
100079fe:	0020      	movs	r0, r4
10007a00:	b005      	add	sp, #20
10007a02:	bd30      	pop	{r4, r5, pc}

10007a04 <delayed_by_us>:
10007a04:	b510      	push	{r4, lr}
10007a06:	b082      	sub	sp, #8
10007a08:	0004      	movs	r4, r0
10007a0a:	9804      	ldr	r0, [sp, #16]
10007a0c:	9905      	ldr	r1, [sp, #20]
10007a0e:	1812      	adds	r2, r2, r0
10007a10:	414b      	adcs	r3, r1
10007a12:	2b00      	cmp	r3, #0
10007a14:	db09      	blt.n	10007a2a <delayed_by_us+0x26>
10007a16:	4668      	mov	r0, sp
10007a18:	f7ff ff9e 	bl	10007958 <update_us_since_boot>
10007a1c:	9a00      	ldr	r2, [sp, #0]
10007a1e:	9b01      	ldr	r3, [sp, #4]
10007a20:	6022      	str	r2, [r4, #0]
10007a22:	6063      	str	r3, [r4, #4]
10007a24:	0020      	movs	r0, r4
10007a26:	b002      	add	sp, #8
10007a28:	bd10      	pop	{r4, pc}
10007a2a:	2201      	movs	r2, #1
10007a2c:	4252      	negs	r2, r2
10007a2e:	4b01      	ldr	r3, [pc, #4]	@ (10007a34 <delayed_by_us+0x30>)
10007a30:	e7f1      	b.n	10007a16 <delayed_by_us+0x12>
10007a32:	46c0      	nop			@ (mov r8, r8)
10007a34:	7fffffff 	.word	0x7fffffff

10007a38 <usb_irq>:
10007a38:	b510      	push	{r4, lr}
10007a3a:	4b02      	ldr	r3, [pc, #8]	@ (10007a44 <usb_irq+0xc>)
10007a3c:	7818      	ldrb	r0, [r3, #0]
10007a3e:	f7fb f88b 	bl	10002b58 <irq_set_pending>
10007a42:	bd10      	pop	{r4, pc}
10007a44:	20002557 	.word	0x20002557

10007a48 <critical_section_enter_blocking>:
10007a48:	6802      	ldr	r2, [r0, #0]
10007a4a:	f3ef 8110 	mrs	r1, PRIMASK
10007a4e:	b672      	cpsid	i
10007a50:	6813      	ldr	r3, [r2, #0]
10007a52:	2b00      	cmp	r3, #0
10007a54:	d0fc      	beq.n	10007a50 <critical_section_enter_blocking+0x8>
10007a56:	f3bf 8f5f 	dmb	sy
10007a5a:	6041      	str	r1, [r0, #4]
10007a5c:	4770      	bx	lr
	...

10007a60 <timer_task>:
10007a60:	b570      	push	{r4, r5, r6, lr}
10007a62:	4b0f      	ldr	r3, [pc, #60]	@ (10007aa0 <timer_task+0x40>)
10007a64:	681b      	ldr	r3, [r3, #0]
10007a66:	2b00      	cmp	r3, #0
10007a68:	d016      	beq.n	10007a98 <timer_task+0x38>
10007a6a:	4c0d      	ldr	r4, [pc, #52]	@ (10007aa0 <timer_task+0x40>)
10007a6c:	0020      	movs	r0, r4
10007a6e:	f7ff ffeb 	bl	10007a48 <critical_section_enter_blocking>
10007a72:	4b0c      	ldr	r3, [pc, #48]	@ (10007aa4 <timer_task+0x44>)
10007a74:	2200      	movs	r2, #0
10007a76:	701a      	strb	r2, [r3, #0]
10007a78:	6821      	ldr	r1, [r4, #0]
10007a7a:	6863      	ldr	r3, [r4, #4]
10007a7c:	f3bf 8f5f 	dmb	sy
10007a80:	600a      	str	r2, [r1, #0]
10007a82:	f383 8810 	msr	PRIMASK, r3
10007a86:	2400      	movs	r4, #0
10007a88:	2500      	movs	r5, #0
10007a8a:	4b07      	ldr	r3, [pc, #28]	@ (10007aa8 <timer_task+0x48>)
10007a8c:	7818      	ldrb	r0, [r3, #0]
10007a8e:	f7fb f863 	bl	10002b58 <irq_set_pending>
10007a92:	0020      	movs	r0, r4
10007a94:	0029      	movs	r1, r5
10007a96:	bd70      	pop	{r4, r5, r6, pc}
10007a98:	24fa      	movs	r4, #250	@ 0xfa
10007a9a:	00a4      	lsls	r4, r4, #2
10007a9c:	2500      	movs	r5, #0
10007a9e:	e7f4      	b.n	10007a8a <timer_task+0x2a>
10007aa0:	200022e0 	.word	0x200022e0
10007aa4:	20002558 	.word	0x20002558
10007aa8:	20002557 	.word	0x20002557

10007aac <alarm_pool_add_alarm_in_us>:
10007aac:	b5f0      	push	{r4, r5, r6, r7, lr}
10007aae:	b087      	sub	sp, #28
10007ab0:	0004      	movs	r4, r0
10007ab2:	0016      	movs	r6, r2
10007ab4:	001d      	movs	r5, r3
10007ab6:	ab0e      	add	r3, sp, #56	@ 0x38
10007ab8:	781f      	ldrb	r7, [r3, #0]
10007aba:	a804      	add	r0, sp, #16
10007abc:	f7ff ff5e 	bl	1000797c <get_absolute_time>
10007ac0:	9a04      	ldr	r2, [sp, #16]
10007ac2:	9b05      	ldr	r3, [sp, #20]
10007ac4:	9600      	str	r6, [sp, #0]
10007ac6:	9501      	str	r5, [sp, #4]
10007ac8:	a804      	add	r0, sp, #16
10007aca:	f7ff ff9b 	bl	10007a04 <delayed_by_us>
10007ace:	9a04      	ldr	r2, [sp, #16]
10007ad0:	9b05      	ldr	r3, [sp, #20]
10007ad2:	9702      	str	r7, [sp, #8]
10007ad4:	990d      	ldr	r1, [sp, #52]	@ 0x34
10007ad6:	9101      	str	r1, [sp, #4]
10007ad8:	990c      	ldr	r1, [sp, #48]	@ 0x30
10007ada:	9100      	str	r1, [sp, #0]
10007adc:	0020      	movs	r0, r4
10007ade:	f7fb feb9 	bl	10003854 <alarm_pool_add_alarm_at>
10007ae2:	b007      	add	sp, #28
10007ae4:	bdf0      	pop	{r4, r5, r6, r7, pc}

10007ae6 <add_alarm_in_us>:
10007ae6:	b5f0      	push	{r4, r5, r6, r7, lr}
10007ae8:	46c6      	mov	lr, r8
10007aea:	b500      	push	{lr}
10007aec:	b084      	sub	sp, #16
10007aee:	0005      	movs	r5, r0
10007af0:	4688      	mov	r8, r1
10007af2:	0016      	movs	r6, r2
10007af4:	001f      	movs	r7, r3
10007af6:	ab0a      	add	r3, sp, #40	@ 0x28
10007af8:	781c      	ldrb	r4, [r3, #0]
10007afa:	f7fb fe95 	bl	10003828 <alarm_pool_get_default>
10007afe:	9402      	str	r4, [sp, #8]
10007b00:	9701      	str	r7, [sp, #4]
10007b02:	9600      	str	r6, [sp, #0]
10007b04:	002a      	movs	r2, r5
10007b06:	4643      	mov	r3, r8
10007b08:	f7ff ffd0 	bl	10007aac <alarm_pool_add_alarm_in_us>
10007b0c:	b004      	add	sp, #16
10007b0e:	bc80      	pop	{r7}
10007b10:	46b8      	mov	r8, r7
10007b12:	bdf0      	pop	{r4, r5, r6, r7, pc}

10007b14 <low_priority_worker_irq>:
10007b14:	b510      	push	{r4, lr}
10007b16:	b082      	sub	sp, #8
10007b18:	4819      	ldr	r0, [pc, #100]	@ (10007b80 <low_priority_worker_irq+0x6c>)
10007b1a:	2100      	movs	r1, #0
10007b1c:	f003 f928 	bl	1000ad70 <__mutex_try_enter_veneer>
10007b20:	2800      	cmp	r0, #0
10007b22:	d122      	bne.n	10007b6a <low_priority_worker_irq+0x56>
10007b24:	4b17      	ldr	r3, [pc, #92]	@ (10007b84 <low_priority_worker_irq+0x70>)
10007b26:	681b      	ldr	r3, [r3, #0]
10007b28:	2b00      	cmp	r3, #0
10007b2a:	d026      	beq.n	10007b7a <low_priority_worker_irq+0x66>
10007b2c:	4c15      	ldr	r4, [pc, #84]	@ (10007b84 <low_priority_worker_irq+0x70>)
10007b2e:	0020      	movs	r0, r4
10007b30:	f7ff ff8a 	bl	10007a48 <critical_section_enter_blocking>
10007b34:	4a14      	ldr	r2, [pc, #80]	@ (10007b88 <low_priority_worker_irq+0x74>)
10007b36:	7813      	ldrb	r3, [r2, #0]
10007b38:	2101      	movs	r1, #1
10007b3a:	404b      	eors	r3, r1
10007b3c:	b2db      	uxtb	r3, r3
10007b3e:	2101      	movs	r1, #1
10007b40:	7011      	strb	r1, [r2, #0]
10007b42:	6821      	ldr	r1, [r4, #0]
10007b44:	6862      	ldr	r2, [r4, #4]
10007b46:	f3bf 8f5f 	dmb	sy
10007b4a:	2000      	movs	r0, #0
10007b4c:	6008      	str	r0, [r1, #0]
10007b4e:	f382 8810 	msr	PRIMASK, r2
10007b52:	2b00      	cmp	r3, #0
10007b54:	d011      	beq.n	10007b7a <low_priority_worker_irq+0x66>
10007b56:	4a0d      	ldr	r2, [pc, #52]	@ (10007b8c <low_priority_worker_irq+0x78>)
10007b58:	2301      	movs	r3, #1
10007b5a:	9300      	str	r3, [sp, #0]
10007b5c:	2300      	movs	r3, #0
10007b5e:	20fa      	movs	r0, #250	@ 0xfa
10007b60:	0080      	lsls	r0, r0, #2
10007b62:	2100      	movs	r1, #0
10007b64:	f7ff ffbf 	bl	10007ae6 <add_alarm_in_us>
10007b68:	e007      	b.n	10007b7a <low_priority_worker_irq+0x66>
10007b6a:	2001      	movs	r0, #1
10007b6c:	2100      	movs	r1, #0
10007b6e:	4240      	negs	r0, r0
10007b70:	f001 f88c 	bl	10008c8c <tud_task_ext>
10007b74:	4802      	ldr	r0, [pc, #8]	@ (10007b80 <low_priority_worker_irq+0x6c>)
10007b76:	f003 f8db 	bl	1000ad30 <__mutex_exit_veneer>
10007b7a:	b002      	add	sp, #8
10007b7c:	bd10      	pop	{r4, pc}
10007b7e:	46c0      	nop			@ (mov r8, r8)
10007b80:	20002518 	.word	0x20002518
10007b84:	200022e0 	.word	0x200022e0
10007b88:	20002558 	.word	0x20002558
10007b8c:	10007a61 	.word	0x10007a61

10007b90 <tud_cdc_rx_cb>:
10007b90:	b510      	push	{r4, lr}
10007b92:	4b05      	ldr	r3, [pc, #20]	@ (10007ba8 <tud_cdc_rx_cb+0x18>)
10007b94:	6818      	ldr	r0, [r3, #0]
10007b96:	2800      	cmp	r0, #0
10007b98:	d004      	beq.n	10007ba4 <tud_cdc_rx_cb+0x14>
10007b9a:	4b04      	ldr	r3, [pc, #16]	@ (10007bac <tud_cdc_rx_cb+0x1c>)
10007b9c:	6819      	ldr	r1, [r3, #0]
10007b9e:	2200      	movs	r2, #0
10007ba0:	f000 fd9e 	bl	100086e0 <usbd_defer_func>
10007ba4:	bd10      	pop	{r4, pc}
10007ba6:	46c0      	nop			@ (mov r8, r8)
10007ba8:	20001de8 	.word	0x20001de8
10007bac:	20001dec 	.word	0x20001dec

10007bb0 <stdio_usb_init>:
10007bb0:	b510      	push	{r4, lr}
10007bb2:	b082      	sub	sp, #8
10007bb4:	23d0      	movs	r3, #208	@ 0xd0
10007bb6:	061b      	lsls	r3, r3, #24
10007bb8:	681c      	ldr	r4, [r3, #0]
10007bba:	f7fb fe35 	bl	10003828 <alarm_pool_get_default>
10007bbe:	f7fb ff43 	bl	10003a48 <alarm_pool_core_num>
10007bc2:	42a0      	cmp	r0, r4
10007bc4:	d12c      	bne.n	10007c20 <stdio_usb_init+0x70>
10007bc6:	4b23      	ldr	r3, [pc, #140]	@ (10007c54 <stdio_usb_init+0xa4>)
10007bc8:	781b      	ldrb	r3, [r3, #0]
10007bca:	f001 fd2d 	bl	10009628 <tusb_init>
10007bce:	4822      	ldr	r0, [pc, #136]	@ (10007c58 <stdio_usb_init+0xa8>)
10007bd0:	f7fb fad3 	bl	1000317a <mutex_init>
10007bd4:	2001      	movs	r0, #1
10007bd6:	f7fb fa5d 	bl	10003094 <user_irq_claim_unused>
10007bda:	4c20      	ldr	r4, [pc, #128]	@ (10007c5c <stdio_usb_init+0xac>)
10007bdc:	7020      	strb	r0, [r4, #0]
10007bde:	4920      	ldr	r1, [pc, #128]	@ (10007c60 <stdio_usb_init+0xb0>)
10007be0:	23ff      	movs	r3, #255	@ 0xff
10007be2:	4018      	ands	r0, r3
10007be4:	f7fa ffda 	bl	10002b9c <irq_set_exclusive_handler>
10007be8:	7820      	ldrb	r0, [r4, #0]
10007bea:	2101      	movs	r1, #1
10007bec:	f7fa ffac 	bl	10002b48 <irq_set_enabled>
10007bf0:	2005      	movs	r0, #5
10007bf2:	f7fa ffc1 	bl	10002b78 <irq_has_shared_handler>
10007bf6:	1e04      	subs	r4, r0, #0
10007bf8:	d018      	beq.n	10007c2c <stdio_usb_init+0x7c>
10007bfa:	491a      	ldr	r1, [pc, #104]	@ (10007c64 <stdio_usb_init+0xb4>)
10007bfc:	2200      	movs	r2, #0
10007bfe:	2005      	movs	r0, #5
10007c00:	f7fa fff6 	bl	10002bf0 <irq_add_shared_handler>
10007c04:	f7fa fef4 	bl	100029f0 <next_striped_spin_lock_num>
10007c08:	0001      	movs	r1, r0
10007c0a:	4b17      	ldr	r3, [pc, #92]	@ (10007c68 <stdio_usb_init+0xb8>)
10007c0c:	0018      	movs	r0, r3
10007c0e:	f7fb fad1 	bl	100031b4 <critical_section_init_with_lock_num>
10007c12:	4816      	ldr	r0, [pc, #88]	@ (10007c6c <stdio_usb_init+0xbc>)
10007c14:	2101      	movs	r1, #1
10007c16:	f7ff fd95 	bl	10007744 <stdio_set_driver_enabled>
10007c1a:	0020      	movs	r0, r4
10007c1c:	b002      	add	sp, #8
10007c1e:	bd10      	pop	{r4, pc}
10007c20:	4b13      	ldr	r3, [pc, #76]	@ (10007c70 <stdio_usb_init+0xc0>)
10007c22:	4a14      	ldr	r2, [pc, #80]	@ (10007c74 <stdio_usb_init+0xc4>)
10007c24:	4814      	ldr	r0, [pc, #80]	@ (10007c78 <stdio_usb_init+0xc8>)
10007c26:	21b2      	movs	r1, #178	@ 0xb2
10007c28:	f7fc fc92 	bl	10004550 <__assert_func>
10007c2c:	4a13      	ldr	r2, [pc, #76]	@ (10007c7c <stdio_usb_init+0xcc>)
10007c2e:	2301      	movs	r3, #1
10007c30:	9300      	str	r3, [sp, #0]
10007c32:	2300      	movs	r3, #0
10007c34:	20fa      	movs	r0, #250	@ 0xfa
10007c36:	0080      	lsls	r0, r0, #2
10007c38:	2100      	movs	r1, #0
10007c3a:	f7ff ff54 	bl	10007ae6 <add_alarm_in_us>
10007c3e:	43c4      	mvns	r4, r0
10007c40:	0fe4      	lsrs	r4, r4, #31
10007c42:	4809      	ldr	r0, [pc, #36]	@ (10007c68 <stdio_usb_init+0xb8>)
10007c44:	2208      	movs	r2, #8
10007c46:	2100      	movs	r1, #0
10007c48:	f7ff fbbc 	bl	100073c4 <__wrap_memset>
10007c4c:	2c00      	cmp	r4, #0
10007c4e:	d0e4      	beq.n	10007c1a <stdio_usb_init+0x6a>
10007c50:	e7df      	b.n	10007c12 <stdio_usb_init+0x62>
10007c52:	46c0      	nop			@ (mov r8, r8)
10007c54:	1000cb60 	.word	0x1000cb60
10007c58:	20002518 	.word	0x20002518
10007c5c:	20002557 	.word	0x20002557
10007c60:	10007b15 	.word	0x10007b15
10007c64:	10007a39 	.word	0x10007a39
10007c68:	200022e0 	.word	0x200022e0
10007c6c:	20000e60 	.word	0x20000e60
10007c70:	1000b68c 	.word	0x1000b68c
10007c74:	1000c91c 	.word	0x1000c91c
10007c78:	1000bf14 	.word	0x1000bf14
10007c7c:	10007a61 	.word	0x10007a61

10007c80 <stdio_usb_connected>:
10007c80:	b510      	push	{r4, lr}
10007c82:	2000      	movs	r0, #0
10007c84:	f001 f9fa 	bl	1000907c <tud_cdc_n_connected>
10007c88:	bd10      	pop	{r4, pc}
	...

10007c8c <stdio_usb_in_chars>:
10007c8c:	b530      	push	{r4, r5, lr}
10007c8e:	b083      	sub	sp, #12
10007c90:	0004      	movs	r4, r0
10007c92:	000d      	movs	r5, r1
10007c94:	f7ff fff4 	bl	10007c80 <stdio_usb_connected>
10007c98:	2800      	cmp	r0, #0
10007c9a:	d030      	beq.n	10007cfe <stdio_usb_in_chars+0x72>
10007c9c:	2000      	movs	r0, #0
10007c9e:	f001 fa09 	bl	100090b4 <tud_cdc_n_available>
10007ca2:	2800      	cmp	r0, #0
10007ca4:	d02e      	beq.n	10007d04 <stdio_usb_in_chars+0x78>
10007ca6:	21fa      	movs	r1, #250	@ 0xfa
10007ca8:	0089      	lsls	r1, r1, #2
10007caa:	4668      	mov	r0, sp
10007cac:	f7ff fe9a 	bl	100079e4 <make_timeout_time_ms>
10007cb0:	9a00      	ldr	r2, [sp, #0]
10007cb2:	9b01      	ldr	r3, [sp, #4]
10007cb4:	4816      	ldr	r0, [pc, #88]	@ (10007d10 <stdio_usb_in_chars+0x84>)
10007cb6:	f003 f873 	bl	1000ada0 <__mutex_try_enter_block_until_veneer>
10007cba:	2800      	cmp	r0, #0
10007cbc:	d025      	beq.n	10007d0a <stdio_usb_in_chars+0x7e>
10007cbe:	f7ff ffdf 	bl	10007c80 <stdio_usb_connected>
10007cc2:	2800      	cmp	r0, #0
10007cc4:	d004      	beq.n	10007cd0 <stdio_usb_in_chars+0x44>
10007cc6:	2000      	movs	r0, #0
10007cc8:	f001 f9f4 	bl	100090b4 <tud_cdc_n_available>
10007ccc:	2800      	cmp	r0, #0
10007cce:	d10c      	bne.n	10007cea <stdio_usb_in_chars+0x5e>
10007cd0:	2001      	movs	r0, #1
10007cd2:	2100      	movs	r1, #0
10007cd4:	4240      	negs	r0, r0
10007cd6:	f000 ffd9 	bl	10008c8c <tud_task_ext>
10007cda:	2403      	movs	r4, #3
10007cdc:	4264      	negs	r4, r4
10007cde:	480c      	ldr	r0, [pc, #48]	@ (10007d10 <stdio_usb_in_chars+0x84>)
10007ce0:	f003 f826 	bl	1000ad30 <__mutex_exit_veneer>
10007ce4:	0020      	movs	r0, r4
10007ce6:	b003      	add	sp, #12
10007ce8:	bd30      	pop	{r4, r5, pc}
10007cea:	002a      	movs	r2, r5
10007cec:	0021      	movs	r1, r4
10007cee:	2000      	movs	r0, #0
10007cf0:	f001 f9ec 	bl	100090cc <tud_cdc_n_read>
10007cf4:	1e04      	subs	r4, r0, #0
10007cf6:	d1f2      	bne.n	10007cde <stdio_usb_in_chars+0x52>
10007cf8:	2403      	movs	r4, #3
10007cfa:	4264      	negs	r4, r4
10007cfc:	e7ef      	b.n	10007cde <stdio_usb_in_chars+0x52>
10007cfe:	2403      	movs	r4, #3
10007d00:	4264      	negs	r4, r4
10007d02:	e7ef      	b.n	10007ce4 <stdio_usb_in_chars+0x58>
10007d04:	2403      	movs	r4, #3
10007d06:	4264      	negs	r4, r4
10007d08:	e7ec      	b.n	10007ce4 <stdio_usb_in_chars+0x58>
10007d0a:	2403      	movs	r4, #3
10007d0c:	4264      	negs	r4, r4
10007d0e:	e7e9      	b.n	10007ce4 <stdio_usb_in_chars+0x58>
10007d10:	20002518 	.word	0x20002518

10007d14 <stdio_usb_out_chars>:
10007d14:	b5f0      	push	{r4, r5, r6, r7, lr}
10007d16:	46c6      	mov	lr, r8
10007d18:	b500      	push	{lr}
10007d1a:	b082      	sub	sp, #8
10007d1c:	4680      	mov	r8, r0
10007d1e:	000d      	movs	r5, r1
10007d20:	21fa      	movs	r1, #250	@ 0xfa
10007d22:	0089      	lsls	r1, r1, #2
10007d24:	4668      	mov	r0, sp
10007d26:	f7ff fe5d 	bl	100079e4 <make_timeout_time_ms>
10007d2a:	9a00      	ldr	r2, [sp, #0]
10007d2c:	9b01      	ldr	r3, [sp, #4]
10007d2e:	482c      	ldr	r0, [pc, #176]	@ (10007de0 <stdio_usb_out_chars+0xcc>)
10007d30:	f003 f836 	bl	1000ada0 <__mutex_try_enter_block_until_veneer>
10007d34:	2800      	cmp	r0, #0
10007d36:	d103      	bne.n	10007d40 <stdio_usb_out_chars+0x2c>
10007d38:	b002      	add	sp, #8
10007d3a:	bc80      	pop	{r7}
10007d3c:	46b8      	mov	r8, r7
10007d3e:	bdf0      	pop	{r4, r5, r6, r7, pc}
10007d40:	f7ff ff9e 	bl	10007c80 <stdio_usb_connected>
10007d44:	2800      	cmp	r0, #0
10007d46:	d149      	bne.n	10007ddc <stdio_usb_out_chars+0xc8>
10007d48:	4b26      	ldr	r3, [pc, #152]	@ (10007de4 <stdio_usb_out_chars+0xd0>)
10007d4a:	2000      	movs	r0, #0
10007d4c:	2100      	movs	r1, #0
10007d4e:	6018      	str	r0, [r3, #0]
10007d50:	6059      	str	r1, [r3, #4]
10007d52:	4823      	ldr	r0, [pc, #140]	@ (10007de0 <stdio_usb_out_chars+0xcc>)
10007d54:	f002 ffec 	bl	1000ad30 <__mutex_exit_veneer>
10007d58:	e7ee      	b.n	10007d38 <stdio_usb_out_chars+0x24>
10007d5a:	2001      	movs	r0, #1
10007d5c:	2100      	movs	r1, #0
10007d5e:	4240      	negs	r0, r0
10007d60:	f000 ff94 	bl	10008c8c <tud_task_ext>
10007d64:	2000      	movs	r0, #0
10007d66:	f001 f9c5 	bl	100090f4 <tud_cdc_n_write_flush>
10007d6a:	f7ff ff89 	bl	10007c80 <stdio_usb_connected>
10007d6e:	2800      	cmp	r0, #0
10007d70:	d0ef      	beq.n	10007d52 <stdio_usb_out_chars+0x3e>
10007d72:	2000      	movs	r0, #0
10007d74:	f001 fa36 	bl	100091e4 <tud_cdc_n_write_available>
10007d78:	2800      	cmp	r0, #0
10007d7a:	d020      	beq.n	10007dbe <stdio_usb_out_chars+0xaa>
10007d7c:	42ac      	cmp	r4, r5
10007d7e:	dae8      	bge.n	10007d52 <stdio_usb_out_chars+0x3e>
10007d80:	1b2e      	subs	r6, r5, r4
10007d82:	2000      	movs	r0, #0
10007d84:	f001 fa2e 	bl	100091e4 <tud_cdc_n_write_available>
10007d88:	0002      	movs	r2, r0
10007d8a:	4286      	cmp	r6, r0
10007d8c:	dc00      	bgt.n	10007d90 <stdio_usb_out_chars+0x7c>
10007d8e:	0032      	movs	r2, r6
10007d90:	2a00      	cmp	r2, #0
10007d92:	d0e2      	beq.n	10007d5a <stdio_usb_out_chars+0x46>
10007d94:	4643      	mov	r3, r8
10007d96:	1919      	adds	r1, r3, r4
10007d98:	2000      	movs	r0, #0
10007d9a:	f001 fa07 	bl	100091ac <tud_cdc_n_write>
10007d9e:	0006      	movs	r6, r0
10007da0:	2001      	movs	r0, #1
10007da2:	2100      	movs	r1, #0
10007da4:	4240      	negs	r0, r0
10007da6:	f000 ff71 	bl	10008c8c <tud_task_ext>
10007daa:	2000      	movs	r0, #0
10007dac:	f001 f9a2 	bl	100090f4 <tud_cdc_n_write_flush>
10007db0:	19a4      	adds	r4, r4, r6
10007db2:	f7fb fed1 	bl	10003b58 <time_us_64>
10007db6:	4b0b      	ldr	r3, [pc, #44]	@ (10007de4 <stdio_usb_out_chars+0xd0>)
10007db8:	6018      	str	r0, [r3, #0]
10007dba:	6059      	str	r1, [r3, #4]
10007dbc:	e7de      	b.n	10007d7c <stdio_usb_out_chars+0x68>
10007dbe:	f7fb fecb 	bl	10003b58 <time_us_64>
10007dc2:	4b08      	ldr	r3, [pc, #32]	@ (10007de4 <stdio_usb_out_chars+0xd0>)
10007dc4:	681e      	ldr	r6, [r3, #0]
10007dc6:	685f      	ldr	r7, [r3, #4]
10007dc8:	4a07      	ldr	r2, [pc, #28]	@ (10007de8 <stdio_usb_out_chars+0xd4>)
10007dca:	2300      	movs	r3, #0
10007dcc:	1992      	adds	r2, r2, r6
10007dce:	417b      	adcs	r3, r7
10007dd0:	4299      	cmp	r1, r3
10007dd2:	d8be      	bhi.n	10007d52 <stdio_usb_out_chars+0x3e>
10007dd4:	d1d2      	bne.n	10007d7c <stdio_usb_out_chars+0x68>
10007dd6:	4290      	cmp	r0, r2
10007dd8:	d9d0      	bls.n	10007d7c <stdio_usb_out_chars+0x68>
10007dda:	e7ba      	b.n	10007d52 <stdio_usb_out_chars+0x3e>
10007ddc:	2400      	movs	r4, #0
10007dde:	e7cd      	b.n	10007d7c <stdio_usb_out_chars+0x68>
10007de0:	20002518 	.word	0x20002518
10007de4:	20001550 	.word	0x20001550
10007de8:	0007a120 	.word	0x0007a120

10007dec <tud_descriptor_device_cb>:
10007dec:	4800      	ldr	r0, [pc, #0]	@ (10007df0 <tud_descriptor_device_cb+0x4>)
10007dee:	4770      	bx	lr
10007df0:	1000c9b0 	.word	0x1000c9b0

10007df4 <tud_descriptor_configuration_cb>:
10007df4:	4800      	ldr	r0, [pc, #0]	@ (10007df8 <tud_descriptor_configuration_cb+0x4>)
10007df6:	4770      	bx	lr
10007df8:	1000c95c 	.word	0x1000c95c

10007dfc <tud_descriptor_string_cb>:
10007dfc:	b510      	push	{r4, lr}
10007dfe:	0004      	movs	r4, r0
10007e00:	4b15      	ldr	r3, [pc, #84]	@ (10007e58 <tud_descriptor_string_cb+0x5c>)
10007e02:	781b      	ldrb	r3, [r3, #0]
10007e04:	2b00      	cmp	r3, #0
10007e06:	d00e      	beq.n	10007e26 <tud_descriptor_string_cb+0x2a>
10007e08:	2c00      	cmp	r4, #0
10007e0a:	d111      	bne.n	10007e30 <tud_descriptor_string_cb+0x34>
10007e0c:	4b13      	ldr	r3, [pc, #76]	@ (10007e5c <tud_descriptor_string_cb+0x60>)
10007e0e:	4a14      	ldr	r2, [pc, #80]	@ (10007e60 <tud_descriptor_string_cb+0x64>)
10007e10:	805a      	strh	r2, [r3, #2]
10007e12:	2301      	movs	r3, #1
10007e14:	3301      	adds	r3, #1
10007e16:	005b      	lsls	r3, r3, #1
10007e18:	b29b      	uxth	r3, r3
10007e1a:	4810      	ldr	r0, [pc, #64]	@ (10007e5c <tud_descriptor_string_cb+0x60>)
10007e1c:	22c0      	movs	r2, #192	@ 0xc0
10007e1e:	0092      	lsls	r2, r2, #2
10007e20:	4313      	orrs	r3, r2
10007e22:	8003      	strh	r3, [r0, #0]
10007e24:	bd10      	pop	{r4, pc}
10007e26:	480c      	ldr	r0, [pc, #48]	@ (10007e58 <tud_descriptor_string_cb+0x5c>)
10007e28:	2111      	movs	r1, #17
10007e2a:	f000 f825 	bl	10007e78 <pico_get_unique_board_id_string>
10007e2e:	e7eb      	b.n	10007e08 <tud_descriptor_string_cb+0xc>
10007e30:	2c05      	cmp	r4, #5
10007e32:	d80e      	bhi.n	10007e52 <tud_descriptor_string_cb+0x56>
10007e34:	4b0b      	ldr	r3, [pc, #44]	@ (10007e64 <tud_descriptor_string_cb+0x68>)
10007e36:	00a4      	lsls	r4, r4, #2
10007e38:	58e4      	ldr	r4, [r4, r3]
10007e3a:	2300      	movs	r3, #0
10007e3c:	2b12      	cmp	r3, #18
10007e3e:	d8e9      	bhi.n	10007e14 <tud_descriptor_string_cb+0x18>
10007e40:	5ce1      	ldrb	r1, [r4, r3]
10007e42:	2900      	cmp	r1, #0
10007e44:	d0e6      	beq.n	10007e14 <tud_descriptor_string_cb+0x18>
10007e46:	3301      	adds	r3, #1
10007e48:	4a04      	ldr	r2, [pc, #16]	@ (10007e5c <tud_descriptor_string_cb+0x60>)
10007e4a:	0058      	lsls	r0, r3, #1
10007e4c:	5281      	strh	r1, [r0, r2]
10007e4e:	b2db      	uxtb	r3, r3
10007e50:	e7f4      	b.n	10007e3c <tud_descriptor_string_cb+0x40>
10007e52:	2000      	movs	r0, #0
10007e54:	e7e6      	b.n	10007e24 <tud_descriptor_string_cb+0x28>
10007e56:	46c0      	nop			@ (mov r8, r8)
10007e58:	20002530 	.word	0x20002530
10007e5c:	20001e84 	.word	0x20001e84
10007e60:	00000409 	.word	0x00000409
10007e64:	1000c944 	.word	0x1000c944

10007e68 <_retrieve_unique_id_on_boot>:
10007e68:	b510      	push	{r4, lr}
10007e6a:	4802      	ldr	r0, [pc, #8]	@ (10007e74 <_retrieve_unique_id_on_boot+0xc>)
10007e6c:	f000 f832 	bl	10007ed4 <flash_get_unique_id>
10007e70:	bd10      	pop	{r4, pc}
10007e72:	46c0      	nop			@ (mov r8, r8)
10007e74:	20002308 	.word	0x20002308

10007e78 <pico_get_unique_board_id_string>:
10007e78:	b510      	push	{r4, lr}
10007e7a:	2900      	cmp	r1, #0
10007e7c:	d001      	beq.n	10007e82 <pico_get_unique_board_id_string+0xa>
10007e7e:	2300      	movs	r3, #0
10007e80:	e00a      	b.n	10007e98 <pico_get_unique_board_id_string+0x20>
10007e82:	4b10      	ldr	r3, [pc, #64]	@ (10007ec4 <pico_get_unique_board_id_string+0x4c>)
10007e84:	4a10      	ldr	r2, [pc, #64]	@ (10007ec8 <pico_get_unique_board_id_string+0x50>)
10007e86:	4811      	ldr	r0, [pc, #68]	@ (10007ecc <pico_get_unique_board_id_string+0x54>)
10007e88:	311f      	adds	r1, #31
10007e8a:	f7fc fb61 	bl	10004550 <__assert_func>
10007e8e:	2200      	movs	r2, #0
10007e90:	e00d      	b.n	10007eae <pico_get_unique_board_id_string+0x36>
10007e92:	3237      	adds	r2, #55	@ 0x37
10007e94:	54c2      	strb	r2, [r0, r3]
10007e96:	3301      	adds	r3, #1
10007e98:	1e4a      	subs	r2, r1, #1
10007e9a:	429a      	cmp	r2, r3
10007e9c:	d90e      	bls.n	10007ebc <pico_get_unique_board_id_string+0x44>
10007e9e:	2b0f      	cmp	r3, #15
10007ea0:	d80c      	bhi.n	10007ebc <pico_get_unique_board_id_string+0x44>
10007ea2:	085a      	lsrs	r2, r3, #1
10007ea4:	4c0a      	ldr	r4, [pc, #40]	@ (10007ed0 <pico_get_unique_board_id_string+0x58>)
10007ea6:	5ca4      	ldrb	r4, [r4, r2]
10007ea8:	07da      	lsls	r2, r3, #31
10007eaa:	d4f0      	bmi.n	10007e8e <pico_get_unique_board_id_string+0x16>
10007eac:	2204      	movs	r2, #4
10007eae:	4114      	asrs	r4, r2
10007eb0:	220f      	movs	r2, #15
10007eb2:	4022      	ands	r2, r4
10007eb4:	2a09      	cmp	r2, #9
10007eb6:	dcec      	bgt.n	10007e92 <pico_get_unique_board_id_string+0x1a>
10007eb8:	3230      	adds	r2, #48	@ 0x30
10007eba:	e7eb      	b.n	10007e94 <pico_get_unique_board_id_string+0x1c>
10007ebc:	18c0      	adds	r0, r0, r3
10007ebe:	2300      	movs	r3, #0
10007ec0:	7003      	strb	r3, [r0, #0]
10007ec2:	bd10      	pop	{r4, pc}
10007ec4:	1000bf9c 	.word	0x1000bf9c
10007ec8:	1000c9c4 	.word	0x1000c9c4
10007ecc:	1000bfa4 	.word	0x1000bfa4
10007ed0:	20002308 	.word	0x20002308

10007ed4 <flash_get_unique_id>:
10007ed4:	b530      	push	{r4, r5, lr}
10007ed6:	b089      	sub	sp, #36	@ 0x24
10007ed8:	0004      	movs	r4, r0
10007eda:	ad04      	add	r5, sp, #16
10007edc:	220d      	movs	r2, #13
10007ede:	2100      	movs	r1, #0
10007ee0:	0028      	movs	r0, r5
10007ee2:	f7ff fa6f 	bl	100073c4 <__wrap_memset>
10007ee6:	220d      	movs	r2, #13
10007ee8:	2100      	movs	r1, #0
10007eea:	4668      	mov	r0, sp
10007eec:	f7ff fa6a 	bl	100073c4 <__wrap_memset>
10007ef0:	234b      	movs	r3, #75	@ 0x4b
10007ef2:	702b      	strb	r3, [r5, #0]
10007ef4:	220d      	movs	r2, #13
10007ef6:	4669      	mov	r1, sp
10007ef8:	0028      	movs	r0, r5
10007efa:	f002 ff11 	bl	1000ad20 <__flash_do_cmd_veneer>
10007efe:	2300      	movs	r3, #0
10007f00:	e004      	b.n	10007f0c <flash_get_unique_id+0x38>
10007f02:	1d5a      	adds	r2, r3, #5
10007f04:	4669      	mov	r1, sp
10007f06:	5c8a      	ldrb	r2, [r1, r2]
10007f08:	54e2      	strb	r2, [r4, r3]
10007f0a:	3301      	adds	r3, #1
10007f0c:	2b07      	cmp	r3, #7
10007f0e:	ddf8      	ble.n	10007f02 <flash_get_unique_id+0x2e>
10007f10:	b009      	add	sp, #36	@ 0x24
10007f12:	bd30      	pop	{r4, r5, pc}

10007f14 <hw_endpoint_get_by_addr>:
10007f14:	0002      	movs	r2, r0
10007f16:	207f      	movs	r0, #127	@ 0x7f
10007f18:	4010      	ands	r0, r2
10007f1a:	09d2      	lsrs	r2, r2, #7
10007f1c:	0040      	lsls	r0, r0, #1
10007f1e:	1880      	adds	r0, r0, r2
10007f20:	0140      	lsls	r0, r0, #5
10007f22:	4b01      	ldr	r3, [pc, #4]	@ (10007f28 <hw_endpoint_get_by_addr+0x14>)
10007f24:	18c0      	adds	r0, r0, r3
10007f26:	4770      	bx	lr
10007f28:	20001ebc 	.word	0x20001ebc

10007f2c <_hw_endpoint_alloc>:
10007f2c:	b510      	push	{r4, lr}
10007f2e:	8b03      	ldrh	r3, [r0, #24]
10007f30:	333f      	adds	r3, #63	@ 0x3f
10007f32:	223f      	movs	r2, #63	@ 0x3f
10007f34:	4393      	bics	r3, r2
10007f36:	2902      	cmp	r1, #2
10007f38:	d015      	beq.n	10007f66 <_hw_endpoint_alloc+0x3a>
10007f3a:	4c12      	ldr	r4, [pc, #72]	@ (10007f84 <_hw_endpoint_alloc+0x58>)
10007f3c:	6822      	ldr	r2, [r4, #0]
10007f3e:	60c2      	str	r2, [r0, #12]
10007f40:	18d3      	adds	r3, r2, r3
10007f42:	6023      	str	r3, [r4, #0]
10007f44:	069c      	lsls	r4, r3, #26
10007f46:	d110      	bne.n	10007f6a <_hw_endpoint_alloc+0x3e>
10007f48:	4c0f      	ldr	r4, [pc, #60]	@ (10007f88 <_hw_endpoint_alloc+0x5c>)
10007f4a:	4062      	eors	r2, r4
10007f4c:	4063      	eors	r3, r4
10007f4e:	2480      	movs	r4, #128	@ 0x80
10007f50:	0164      	lsls	r4, r4, #5
10007f52:	42a3      	cmp	r3, r4
10007f54:	d80f      	bhi.n	10007f76 <_hw_endpoint_alloc+0x4a>
10007f56:	0689      	lsls	r1, r1, #26
10007f58:	4311      	orrs	r1, r2
10007f5a:	2380      	movs	r3, #128	@ 0x80
10007f5c:	061b      	lsls	r3, r3, #24
10007f5e:	430b      	orrs	r3, r1
10007f60:	6842      	ldr	r2, [r0, #4]
10007f62:	6013      	str	r3, [r2, #0]
10007f64:	bd10      	pop	{r4, pc}
10007f66:	005b      	lsls	r3, r3, #1
10007f68:	e7e7      	b.n	10007f3a <_hw_endpoint_alloc+0xe>
10007f6a:	4b08      	ldr	r3, [pc, #32]	@ (10007f8c <_hw_endpoint_alloc+0x60>)
10007f6c:	4a08      	ldr	r2, [pc, #32]	@ (10007f90 <_hw_endpoint_alloc+0x64>)
10007f6e:	4809      	ldr	r0, [pc, #36]	@ (10007f94 <_hw_endpoint_alloc+0x68>)
10007f70:	2154      	movs	r1, #84	@ 0x54
10007f72:	f7fc faed 	bl	10004550 <__assert_func>
10007f76:	4b08      	ldr	r3, [pc, #32]	@ (10007f98 <_hw_endpoint_alloc+0x6c>)
10007f78:	4a05      	ldr	r2, [pc, #20]	@ (10007f90 <_hw_endpoint_alloc+0x64>)
10007f7a:	4806      	ldr	r0, [pc, #24]	@ (10007f94 <_hw_endpoint_alloc+0x68>)
10007f7c:	2156      	movs	r1, #86	@ 0x56
10007f7e:	f7fc fae7 	bl	10004550 <__assert_func>
10007f82:	46c0      	nop			@ (mov r8, r8)
10007f84:	200022dc 	.word	0x200022dc
10007f88:	50100000 	.word	0x50100000
10007f8c:	1000c148 	.word	0x1000c148
10007f90:	1000ca34 	.word	0x1000ca34
10007f94:	1000c178 	.word	0x1000c178
10007f98:	1000c1cc 	.word	0x1000c1cc

10007f9c <hw_endpoint_init>:
10007f9c:	b5f8      	push	{r3, r4, r5, r6, r7, lr}
10007f9e:	0005      	movs	r5, r0
10007fa0:	000e      	movs	r6, r1
10007fa2:	0014      	movs	r4, r2
10007fa4:	f7ff ffb6 	bl	10007f14 <hw_endpoint_get_by_addr>
10007fa8:	237f      	movs	r3, #127	@ 0x7f
10007faa:	402b      	ands	r3, r5
10007fac:	09ef      	lsrs	r7, r5, #7
10007fae:	7085      	strb	r5, [r0, #2]
10007fb0:	427a      	negs	r2, r7
10007fb2:	417a      	adcs	r2, r7
10007fb4:	7042      	strb	r2, [r0, #1]
10007fb6:	2200      	movs	r2, #0
10007fb8:	70c2      	strb	r2, [r0, #3]
10007fba:	8306      	strh	r6, [r0, #24]
10007fbc:	76c4      	strb	r4, [r0, #27]
10007fbe:	2f01      	cmp	r7, #1
10007fc0:	d00d      	beq.n	10007fde <hw_endpoint_init+0x42>
10007fc2:	00da      	lsls	r2, r3, #3
10007fc4:	4912      	ldr	r1, [pc, #72]	@ (10008010 <hw_endpoint_init+0x74>)
10007fc6:	468c      	mov	ip, r1
10007fc8:	4462      	add	r2, ip
10007fca:	6082      	str	r2, [r0, #8]
10007fcc:	6882      	ldr	r2, [r0, #8]
10007fce:	2100      	movs	r1, #0
10007fd0:	6011      	str	r1, [r2, #0]
10007fd2:	2b00      	cmp	r3, #0
10007fd4:	d109      	bne.n	10007fea <hw_endpoint_init+0x4e>
10007fd6:	6043      	str	r3, [r0, #4]
10007fd8:	4b0e      	ldr	r3, [pc, #56]	@ (10008014 <hw_endpoint_init+0x78>)
10007fda:	60c3      	str	r3, [r0, #12]
10007fdc:	bdf8      	pop	{r3, r4, r5, r6, r7, pc}
10007fde:	00da      	lsls	r2, r3, #3
10007fe0:	490d      	ldr	r1, [pc, #52]	@ (10008018 <hw_endpoint_init+0x7c>)
10007fe2:	468c      	mov	ip, r1
10007fe4:	4462      	add	r2, ip
10007fe6:	6082      	str	r2, [r0, #8]
10007fe8:	e7f0      	b.n	10007fcc <hw_endpoint_init+0x30>
10007fea:	2f01      	cmp	r7, #1
10007fec:	d009      	beq.n	10008002 <hw_endpoint_init+0x66>
10007fee:	3b01      	subs	r3, #1
10007ff0:	00db      	lsls	r3, r3, #3
10007ff2:	4a0a      	ldr	r2, [pc, #40]	@ (1000801c <hw_endpoint_init+0x80>)
10007ff4:	4694      	mov	ip, r2
10007ff6:	4463      	add	r3, ip
10007ff8:	6043      	str	r3, [r0, #4]
10007ffa:	0021      	movs	r1, r4
10007ffc:	f7ff ff96 	bl	10007f2c <_hw_endpoint_alloc>
10008000:	e7ec      	b.n	10007fdc <hw_endpoint_init+0x40>
10008002:	3b01      	subs	r3, #1
10008004:	00db      	lsls	r3, r3, #3
10008006:	4a06      	ldr	r2, [pc, #24]	@ (10008020 <hw_endpoint_init+0x84>)
10008008:	4694      	mov	ip, r2
1000800a:	4463      	add	r3, ip
1000800c:	6043      	str	r3, [r0, #4]
1000800e:	e7f4      	b.n	10007ffa <hw_endpoint_init+0x5e>
10008010:	50100084 	.word	0x50100084
10008014:	50100100 	.word	0x50100100
10008018:	50100080 	.word	0x50100080
1000801c:	5010000c 	.word	0x5010000c
10008020:	50100008 	.word	0x50100008

10008024 <dcd_event_sof>:
10008024:	b570      	push	{r4, r5, r6, lr}
10008026:	b084      	sub	sp, #16
10008028:	0006      	movs	r6, r0
1000802a:	000d      	movs	r5, r1
1000802c:	0014      	movs	r4, r2
1000802e:	220c      	movs	r2, #12
10008030:	2100      	movs	r1, #0
10008032:	a801      	add	r0, sp, #4
10008034:	f7ff f9c6 	bl	100073c4 <__wrap_memset>
10008038:	466b      	mov	r3, sp
1000803a:	711e      	strb	r6, [r3, #4]
1000803c:	2303      	movs	r3, #3
1000803e:	466a      	mov	r2, sp
10008040:	7153      	strb	r3, [r2, #5]
10008042:	9502      	str	r5, [sp, #8]
10008044:	0021      	movs	r1, r4
10008046:	a801      	add	r0, sp, #4
10008048:	f002 fea2 	bl	1000ad90 <__dcd_event_handler_veneer>
1000804c:	b004      	add	sp, #16
1000804e:	bd70      	pop	{r4, r5, r6, pc}

10008050 <hw_endpoint_xfer>:
10008050:	b570      	push	{r4, r5, r6, lr}
10008052:	000c      	movs	r4, r1
10008054:	0015      	movs	r5, r2
10008056:	f7ff ff5d 	bl	10007f14 <hw_endpoint_get_by_addr>
1000805a:	002a      	movs	r2, r5
1000805c:	0021      	movs	r1, r4
1000805e:	f000 f90d 	bl	1000827c <hw_endpoint_xfer_start>
10008062:	bd70      	pop	{r4, r5, r6, pc}

10008064 <dcd_int_enable>:
10008064:	b510      	push	{r4, lr}
10008066:	2800      	cmp	r0, #0
10008068:	d104      	bne.n	10008074 <dcd_int_enable+0x10>
1000806a:	2101      	movs	r1, #1
1000806c:	2005      	movs	r0, #5
1000806e:	f7fa fd6b 	bl	10002b48 <irq_set_enabled>
10008072:	bd10      	pop	{r4, pc}
10008074:	4b03      	ldr	r3, [pc, #12]	@ (10008084 <dcd_int_enable+0x20>)
10008076:	4a04      	ldr	r2, [pc, #16]	@ (10008088 <dcd_int_enable+0x24>)
10008078:	21d5      	movs	r1, #213	@ 0xd5
1000807a:	4804      	ldr	r0, [pc, #16]	@ (1000808c <dcd_int_enable+0x28>)
1000807c:	0049      	lsls	r1, r1, #1
1000807e:	f7fc fa67 	bl	10004550 <__assert_func>
10008082:	46c0      	nop			@ (mov r8, r8)
10008084:	1000c214 	.word	0x1000c214
10008088:	1000ca24 	.word	0x1000ca24
1000808c:	1000c178 	.word	0x1000c178

10008090 <dcd_set_address>:
10008090:	b510      	push	{r4, lr}
10008092:	2800      	cmp	r0, #0
10008094:	d105      	bne.n	100080a2 <dcd_set_address+0x12>
10008096:	2200      	movs	r2, #0
10008098:	2100      	movs	r1, #0
1000809a:	2080      	movs	r0, #128	@ 0x80
1000809c:	f7ff ffd8 	bl	10008050 <hw_endpoint_xfer>
100080a0:	bd10      	pop	{r4, pc}
100080a2:	4b03      	ldr	r3, [pc, #12]	@ (100080b0 <dcd_set_address+0x20>)
100080a4:	4a03      	ldr	r2, [pc, #12]	@ (100080b4 <dcd_set_address+0x24>)
100080a6:	21db      	movs	r1, #219	@ 0xdb
100080a8:	4803      	ldr	r0, [pc, #12]	@ (100080b8 <dcd_set_address+0x28>)
100080aa:	0049      	lsls	r1, r1, #1
100080ac:	f7fc fa50 	bl	10004550 <__assert_func>
100080b0:	1000c214 	.word	0x1000c214
100080b4:	1000ca14 	.word	0x1000ca14
100080b8:	1000c178 	.word	0x1000c178

100080bc <dcd_connect>:
100080bc:	4b02      	ldr	r3, [pc, #8]	@ (100080c8 <dcd_connect+0xc>)
100080be:	2280      	movs	r2, #128	@ 0x80
100080c0:	0252      	lsls	r2, r2, #9
100080c2:	64da      	str	r2, [r3, #76]	@ 0x4c
100080c4:	4770      	bx	lr
100080c6:	46c0      	nop			@ (mov r8, r8)
100080c8:	50112000 	.word	0x50112000

100080cc <dcd_init>:
100080cc:	b570      	push	{r4, r5, r6, lr}
100080ce:	1e04      	subs	r4, r0, #0
100080d0:	d126      	bne.n	10008120 <dcd_init+0x54>
100080d2:	f000 f8ad 	bl	10008230 <rp2040_usb_init>
100080d6:	4d16      	ldr	r5, [pc, #88]	@ (10008130 <dcd_init+0x64>)
100080d8:	230c      	movs	r3, #12
100080da:	67ab      	str	r3, [r5, #120]	@ 0x78
100080dc:	4915      	ldr	r1, [pc, #84]	@ (10008134 <dcd_init+0x68>)
100080de:	22ff      	movs	r2, #255	@ 0xff
100080e0:	2005      	movs	r0, #5
100080e2:	f7fa fd85 	bl	10002bf0 <irq_add_shared_handler>
100080e6:	4814      	ldr	r0, [pc, #80]	@ (10008138 <dcd_init+0x6c>)
100080e8:	2240      	movs	r2, #64	@ 0x40
100080ea:	2100      	movs	r1, #0
100080ec:	f7ff f96a 	bl	100073c4 <__wrap_memset>
100080f0:	2200      	movs	r2, #0
100080f2:	2140      	movs	r1, #64	@ 0x40
100080f4:	2000      	movs	r0, #0
100080f6:	f7ff ff51 	bl	10007f9c <hw_endpoint_init>
100080fa:	2200      	movs	r2, #0
100080fc:	2140      	movs	r1, #64	@ 0x40
100080fe:	2080      	movs	r0, #128	@ 0x80
10008100:	f7ff ff4c 	bl	10007f9c <hw_endpoint_init>
10008104:	f002 fe04 	bl	1000ad10 <__reset_non_control_endpoints_veneer>
10008108:	2301      	movs	r3, #1
1000810a:	642b      	str	r3, [r5, #64]	@ 0x40
1000810c:	2380      	movs	r3, #128	@ 0x80
1000810e:	059b      	lsls	r3, r3, #22
10008110:	64eb      	str	r3, [r5, #76]	@ 0x4c
10008112:	2390      	movs	r3, #144	@ 0x90
10008114:	4a09      	ldr	r2, [pc, #36]	@ (1000813c <dcd_init+0x70>)
10008116:	50ea      	str	r2, [r5, r3]
10008118:	0020      	movs	r0, r4
1000811a:	f7ff ffcf 	bl	100080bc <dcd_connect>
1000811e:	bd70      	pop	{r4, r5, r6, pc}
10008120:	4b07      	ldr	r3, [pc, #28]	@ (10008140 <dcd_init+0x74>)
10008122:	4a08      	ldr	r2, [pc, #32]	@ (10008144 <dcd_init+0x78>)
10008124:	2186      	movs	r1, #134	@ 0x86
10008126:	4808      	ldr	r0, [pc, #32]	@ (10008148 <dcd_init+0x7c>)
10008128:	31ff      	adds	r1, #255	@ 0xff
1000812a:	f7fc fa11 	bl	10004550 <__assert_func>
1000812e:	46c0      	nop			@ (mov r8, r8)
10008130:	50110000 	.word	0x50110000
10008134:	20000499 	.word	0x20000499
10008138:	20001ebc 	.word	0x20001ebc
1000813c:	0001d010 	.word	0x0001d010
10008140:	1000c214 	.word	0x1000c214
10008144:	1000ca48 	.word	0x1000ca48
10008148:	1000c178 	.word	0x1000c178

1000814c <dcd_edpt0_status_complete>:
1000814c:	780b      	ldrb	r3, [r1, #0]
1000814e:	065b      	lsls	r3, r3, #25
10008150:	d102      	bne.n	10008158 <dcd_edpt0_status_complete+0xc>
10008152:	784b      	ldrb	r3, [r1, #1]
10008154:	2b05      	cmp	r3, #5
10008156:	d000      	beq.n	1000815a <dcd_edpt0_status_complete+0xe>
10008158:	4770      	bx	lr
1000815a:	788a      	ldrb	r2, [r1, #2]
1000815c:	4b01      	ldr	r3, [pc, #4]	@ (10008164 <dcd_edpt0_status_complete+0x18>)
1000815e:	601a      	str	r2, [r3, #0]
10008160:	e7fa      	b.n	10008158 <dcd_edpt0_status_complete+0xc>
10008162:	46c0      	nop			@ (mov r8, r8)
10008164:	50110000 	.word	0x50110000

10008168 <dcd_edpt_open>:
10008168:	b510      	push	{r4, lr}
1000816a:	000a      	movs	r2, r1
1000816c:	2800      	cmp	r0, #0
1000816e:	d10d      	bne.n	1000818c <dcd_edpt_open+0x24>
10008170:	7888      	ldrb	r0, [r1, #2]
10008172:	7909      	ldrb	r1, [r1, #4]
10008174:	7953      	ldrb	r3, [r2, #5]
10008176:	021b      	lsls	r3, r3, #8
10008178:	430b      	orrs	r3, r1
1000817a:	055b      	lsls	r3, r3, #21
1000817c:	0d59      	lsrs	r1, r3, #21
1000817e:	78d2      	ldrb	r2, [r2, #3]
10008180:	0792      	lsls	r2, r2, #30
10008182:	0f92      	lsrs	r2, r2, #30
10008184:	f7ff ff0a 	bl	10007f9c <hw_endpoint_init>
10008188:	2001      	movs	r0, #1
1000818a:	bd10      	pop	{r4, pc}
1000818c:	4b03      	ldr	r3, [pc, #12]	@ (1000819c <dcd_edpt_open+0x34>)
1000818e:	4a04      	ldr	r2, [pc, #16]	@ (100081a0 <dcd_edpt_open+0x38>)
10008190:	21fc      	movs	r1, #252	@ 0xfc
10008192:	4804      	ldr	r0, [pc, #16]	@ (100081a4 <dcd_edpt_open+0x3c>)
10008194:	31ff      	adds	r1, #255	@ 0xff
10008196:	f7fc f9db 	bl	10004550 <__assert_func>
1000819a:	46c0      	nop			@ (mov r8, r8)
1000819c:	1000c214 	.word	0x1000c214
100081a0:	1000ca04 	.word	0x1000ca04
100081a4:	1000c178 	.word	0x1000c178

100081a8 <dcd_edpt_close_all>:
100081a8:	b510      	push	{r4, lr}
100081aa:	f002 fdb1 	bl	1000ad10 <__reset_non_control_endpoints_veneer>
100081ae:	bd10      	pop	{r4, pc}

100081b0 <dcd_edpt_xfer>:
100081b0:	b510      	push	{r4, lr}
100081b2:	0004      	movs	r4, r0
100081b4:	0008      	movs	r0, r1
100081b6:	0011      	movs	r1, r2
100081b8:	001a      	movs	r2, r3
100081ba:	2c00      	cmp	r4, #0
100081bc:	d103      	bne.n	100081c6 <dcd_edpt_xfer+0x16>
100081be:	f7ff ff47 	bl	10008050 <hw_endpoint_xfer>
100081c2:	2001      	movs	r0, #1
100081c4:	bd10      	pop	{r4, pc}
100081c6:	4b03      	ldr	r3, [pc, #12]	@ (100081d4 <dcd_edpt_xfer+0x24>)
100081c8:	4a03      	ldr	r2, [pc, #12]	@ (100081d8 <dcd_edpt_xfer+0x28>)
100081ca:	4804      	ldr	r0, [pc, #16]	@ (100081dc <dcd_edpt_xfer+0x2c>)
100081cc:	4904      	ldr	r1, [pc, #16]	@ (100081e0 <dcd_edpt_xfer+0x30>)
100081ce:	f7fc f9bf 	bl	10004550 <__assert_func>
100081d2:	46c0      	nop			@ (mov r8, r8)
100081d4:	1000c214 	.word	0x1000c214
100081d8:	1000c9f4 	.word	0x1000c9f4
100081dc:	1000c178 	.word	0x1000c178
100081e0:	0000020a 	.word	0x0000020a

100081e4 <dcd_edpt_stall>:
100081e4:	b510      	push	{r4, lr}
100081e6:	0008      	movs	r0, r1
100081e8:	064b      	lsls	r3, r1, #25
100081ea:	d105      	bne.n	100081f8 <dcd_edpt_stall+0x14>
100081ec:	09cb      	lsrs	r3, r1, #7
100081ee:	2b01      	cmp	r3, #1
100081f0:	d00a      	beq.n	10008208 <dcd_edpt_stall+0x24>
100081f2:	2202      	movs	r2, #2
100081f4:	4b05      	ldr	r3, [pc, #20]	@ (1000820c <dcd_edpt_stall+0x28>)
100081f6:	669a      	str	r2, [r3, #104]	@ 0x68
100081f8:	f7ff fe8c 	bl	10007f14 <hw_endpoint_get_by_addr>
100081fc:	2280      	movs	r2, #128	@ 0x80
100081fe:	0112      	lsls	r2, r2, #4
10008200:	2100      	movs	r1, #0
10008202:	f002 fde5 	bl	1000add0 <___hw_endpoint_buffer_control_update32_veneer>
10008206:	bd10      	pop	{r4, pc}
10008208:	2201      	movs	r2, #1
1000820a:	e7f3      	b.n	100081f4 <dcd_edpt_stall+0x10>
1000820c:	50112000 	.word	0x50112000

10008210 <dcd_edpt_clear_stall>:
10008210:	b510      	push	{r4, lr}
10008212:	0008      	movs	r0, r1
10008214:	064b      	lsls	r3, r1, #25
10008216:	d100      	bne.n	1000821a <dcd_edpt_clear_stall+0xa>
10008218:	bd10      	pop	{r4, pc}
1000821a:	f7ff fe7b 	bl	10007f14 <hw_endpoint_get_by_addr>
1000821e:	2300      	movs	r3, #0
10008220:	70c3      	strb	r3, [r0, #3]
10008222:	2200      	movs	r2, #0
10008224:	4901      	ldr	r1, [pc, #4]	@ (1000822c <dcd_edpt_clear_stall+0x1c>)
10008226:	f002 fdd3 	bl	1000add0 <___hw_endpoint_buffer_control_update32_veneer>
1000822a:	e7f5      	b.n	10008218 <dcd_edpt_clear_stall+0x8>
1000822c:	fffff7ff 	.word	0xfffff7ff

10008230 <rp2040_usb_init>:
10008230:	b510      	push	{r4, lr}
10008232:	2380      	movs	r3, #128	@ 0x80
10008234:	045b      	lsls	r3, r3, #17
10008236:	4a0c      	ldr	r2, [pc, #48]	@ (10008268 <rp2040_usb_init+0x38>)
10008238:	6013      	str	r3, [r2, #0]
1000823a:	4a0c      	ldr	r2, [pc, #48]	@ (1000826c <rp2040_usb_init+0x3c>)
1000823c:	6013      	str	r3, [r2, #0]
1000823e:	4b0c      	ldr	r3, [pc, #48]	@ (10008270 <rp2040_usb_init+0x40>)
10008240:	689a      	ldr	r2, [r3, #8]
10008242:	2380      	movs	r3, #128	@ 0x80
10008244:	045b      	lsls	r3, r3, #17
10008246:	4393      	bics	r3, r2
10008248:	d1f9      	bne.n	1000823e <rp2040_usb_init+0xe>
1000824a:	4c0a      	ldr	r4, [pc, #40]	@ (10008274 <rp2040_usb_init+0x44>)
1000824c:	229c      	movs	r2, #156	@ 0x9c
1000824e:	2100      	movs	r1, #0
10008250:	0020      	movs	r0, r4
10008252:	f7ff f8b7 	bl	100073c4 <__wrap_memset>
10008256:	2280      	movs	r2, #128	@ 0x80
10008258:	0152      	lsls	r2, r2, #5
1000825a:	2100      	movs	r1, #0
1000825c:	4806      	ldr	r0, [pc, #24]	@ (10008278 <rp2040_usb_init+0x48>)
1000825e:	f7ff f8b1 	bl	100073c4 <__wrap_memset>
10008262:	2309      	movs	r3, #9
10008264:	6763      	str	r3, [r4, #116]	@ 0x74
10008266:	bd10      	pop	{r4, pc}
10008268:	4000e000 	.word	0x4000e000
1000826c:	4000f000 	.word	0x4000f000
10008270:	4000c000 	.word	0x4000c000
10008274:	50110000 	.word	0x50110000
10008278:	50100000 	.word	0x50100000

1000827c <hw_endpoint_xfer_start>:
1000827c:	b570      	push	{r4, r5, r6, lr}
1000827e:	0004      	movs	r4, r0
10008280:	000d      	movs	r5, r1
10008282:	0016      	movs	r6, r2
10008284:	7e83      	ldrb	r3, [r0, #26]
10008286:	2b00      	cmp	r3, #0
10008288:	d117      	bne.n	100082ba <hw_endpoint_xfer_start+0x3e>
1000828a:	82a6      	strh	r6, [r4, #20]
1000828c:	2300      	movs	r3, #0
1000828e:	82e3      	strh	r3, [r4, #22]
10008290:	3301      	adds	r3, #1
10008292:	76a3      	strb	r3, [r4, #26]
10008294:	6125      	str	r5, [r4, #16]
10008296:	0020      	movs	r0, r4
10008298:	f002 fd5a 	bl	1000ad50 <__e15_is_bulkin_ep_veneer>
1000829c:	2800      	cmp	r0, #0
1000829e:	d004      	beq.n	100082aa <hw_endpoint_xfer_start+0x2e>
100082a0:	4a09      	ldr	r2, [pc, #36]	@ (100082c8 <hw_endpoint_xfer_start+0x4c>)
100082a2:	2390      	movs	r3, #144	@ 0x90
100082a4:	2180      	movs	r1, #128	@ 0x80
100082a6:	0289      	lsls	r1, r1, #10
100082a8:	50d1      	str	r1, [r2, r3]
100082aa:	0020      	movs	r0, r4
100082ac:	f002 fda0 	bl	1000adf0 <__e15_is_critical_frame_period_veneer>
100082b0:	2800      	cmp	r0, #0
100082b2:	d005      	beq.n	100082c0 <hw_endpoint_xfer_start+0x44>
100082b4:	2301      	movs	r3, #1
100082b6:	7723      	strb	r3, [r4, #28]
100082b8:	bd70      	pop	{r4, r5, r6, pc}
100082ba:	f002 fd81 	bl	1000adc0 <__hw_endpoint_reset_transfer_veneer>
100082be:	e7e4      	b.n	1000828a <hw_endpoint_xfer_start+0xe>
100082c0:	0020      	movs	r0, r4
100082c2:	f002 fd75 	bl	1000adb0 <__hw_endpoint_start_next_buffer_veneer>
100082c6:	e7f7      	b.n	100082b8 <hw_endpoint_xfer_start+0x3c>
100082c8:	50112000 	.word	0x50112000

100082cc <configuration_reset>:
100082cc:	b570      	push	{r4, r5, r6, lr}
100082ce:	0005      	movs	r5, r0
100082d0:	2400      	movs	r4, #0
100082d2:	e00c      	b.n	100082ee <configuration_reset+0x22>
100082d4:	0062      	lsls	r2, r4, #1
100082d6:	1912      	adds	r2, r2, r4
100082d8:	00d2      	lsls	r2, r2, #3
100082da:	4b18      	ldr	r3, [pc, #96]	@ (1000833c <configuration_reset+0x70>)
100082dc:	681b      	ldr	r3, [r3, #0]
100082de:	189b      	adds	r3, r3, r2
100082e0:	2b00      	cmp	r3, #0
100082e2:	d02a      	beq.n	1000833a <configuration_reset+0x6e>
100082e4:	685b      	ldr	r3, [r3, #4]
100082e6:	0028      	movs	r0, r5
100082e8:	4798      	blx	r3
100082ea:	3401      	adds	r4, #1
100082ec:	b2e4      	uxtb	r4, r4
100082ee:	4b14      	ldr	r3, [pc, #80]	@ (10008340 <configuration_reset+0x74>)
100082f0:	781b      	ldrb	r3, [r3, #0]
100082f2:	42a3      	cmp	r3, r4
100082f4:	d310      	bcc.n	10008318 <configuration_reset+0x4c>
100082f6:	4a13      	ldr	r2, [pc, #76]	@ (10008344 <configuration_reset+0x78>)
100082f8:	2a00      	cmp	r2, #0
100082fa:	d00b      	beq.n	10008314 <configuration_reset+0x48>
100082fc:	42a3      	cmp	r3, r4
100082fe:	d8e9      	bhi.n	100082d4 <configuration_reset+0x8>
10008300:	1ae3      	subs	r3, r4, r3
10008302:	b2db      	uxtb	r3, r3
10008304:	2b00      	cmp	r3, #0
10008306:	d118      	bne.n	1000833a <configuration_reset+0x6e>
10008308:	005a      	lsls	r2, r3, #1
1000830a:	18d3      	adds	r3, r2, r3
1000830c:	00db      	lsls	r3, r3, #3
1000830e:	4a0e      	ldr	r2, [pc, #56]	@ (10008348 <configuration_reset+0x7c>)
10008310:	189b      	adds	r3, r3, r2
10008312:	e7e7      	b.n	100082e4 <configuration_reset+0x18>
10008314:	0023      	movs	r3, r4
10008316:	e7f5      	b.n	10008304 <configuration_reset+0x38>
10008318:	4c0c      	ldr	r4, [pc, #48]	@ (1000834c <configuration_reset+0x80>)
1000831a:	2253      	movs	r2, #83	@ 0x53
1000831c:	2100      	movs	r1, #0
1000831e:	0020      	movs	r0, r4
10008320:	f7ff f850 	bl	100073c4 <__wrap_memset>
10008324:	1ce0      	adds	r0, r4, #3
10008326:	2210      	movs	r2, #16
10008328:	21ff      	movs	r1, #255	@ 0xff
1000832a:	f7ff f84b 	bl	100073c4 <__wrap_memset>
1000832e:	0020      	movs	r0, r4
10008330:	3013      	adds	r0, #19
10008332:	2220      	movs	r2, #32
10008334:	21ff      	movs	r1, #255	@ 0xff
10008336:	f7ff f845 	bl	100073c4 <__wrap_memset>
1000833a:	bd70      	pop	{r4, r5, r6, pc}
1000833c:	20001894 	.word	0x20001894
10008340:	2000254c 	.word	0x2000254c
10008344:	10007911 	.word	0x10007911
10008348:	1000caf0 	.word	0x1000caf0
1000834c:	20001bbc 	.word	0x20001bbc

10008350 <critical_section_enter_blocking>:
10008350:	6802      	ldr	r2, [r0, #0]
10008352:	f3ef 8110 	mrs	r1, PRIMASK
10008356:	b672      	cpsid	i
10008358:	6813      	ldr	r3, [r2, #0]
1000835a:	2b00      	cmp	r3, #0
1000835c:	d0fc      	beq.n	10008358 <critical_section_enter_blocking+0x8>
1000835e:	f3bf 8f5f 	dmb	sy
10008362:	6041      	str	r1, [r0, #4]
10008364:	4770      	bx	lr

10008366 <usbd_reset>:
10008366:	b510      	push	{r4, lr}
10008368:	f7ff ffb0 	bl	100082cc <configuration_reset>
1000836c:	f000 fde4 	bl	10008f38 <usbd_control_reset>
10008370:	bd10      	pop	{r4, pc}

10008372 <invoke_class_control>:
10008372:	b570      	push	{r4, r5, r6, lr}
10008374:	0005      	movs	r5, r0
10008376:	000c      	movs	r4, r1
10008378:	0016      	movs	r6, r2
1000837a:	68c8      	ldr	r0, [r1, #12]
1000837c:	f000 fde6 	bl	10008f4c <usbd_control_set_complete_callback>
10008380:	68e3      	ldr	r3, [r4, #12]
10008382:	0032      	movs	r2, r6
10008384:	2101      	movs	r1, #1
10008386:	0028      	movs	r0, r5
10008388:	4798      	blx	r3
1000838a:	bd70      	pop	{r4, r5, r6, pc}

1000838c <process_set_config>:
1000838c:	b5f0      	push	{r4, r5, r6, r7, lr}
1000838e:	46de      	mov	lr, fp
10008390:	4657      	mov	r7, sl
10008392:	464e      	mov	r6, r9
10008394:	b5c0      	push	{r6, r7, lr}
10008396:	b082      	sub	sp, #8
10008398:	9000      	str	r0, [sp, #0]
1000839a:	3901      	subs	r1, #1
1000839c:	b2c8      	uxtb	r0, r1
1000839e:	f7ff fd29 	bl	10007df4 <tud_descriptor_configuration_cb>
100083a2:	2800      	cmp	r0, #0
100083a4:	d100      	bne.n	100083a8 <process_set_config+0x1c>
100083a6:	e08e      	b.n	100084c6 <process_set_config+0x13a>
100083a8:	7843      	ldrb	r3, [r0, #1]
100083aa:	469a      	mov	sl, r3
100083ac:	2b02      	cmp	r3, #2
100083ae:	d000      	beq.n	100083b2 <process_set_config+0x26>
100083b0:	e08b      	b.n	100084ca <process_set_config+0x13e>
100083b2:	79c5      	ldrb	r5, [r0, #7]
100083b4:	116c      	asrs	r4, r5, #5
100083b6:	2201      	movs	r2, #1
100083b8:	4b4a      	ldr	r3, [pc, #296]	@ (100084e4 <process_set_config+0x158>)
100083ba:	4014      	ands	r4, r2
100083bc:	0124      	lsls	r4, r4, #4
100083be:	7819      	ldrb	r1, [r3, #0]
100083c0:	2610      	movs	r6, #16
100083c2:	43b1      	bics	r1, r6
100083c4:	4321      	orrs	r1, r4
100083c6:	7019      	strb	r1, [r3, #0]
100083c8:	11ad      	asrs	r5, r5, #6
100083ca:	402a      	ands	r2, r5
100083cc:	0152      	lsls	r2, r2, #5
100083ce:	b2c9      	uxtb	r1, r1
100083d0:	2420      	movs	r4, #32
100083d2:	43a1      	bics	r1, r4
100083d4:	430a      	orrs	r2, r1
100083d6:	701a      	strb	r2, [r3, #0]
100083d8:	0007      	movs	r7, r0
100083da:	3709      	adds	r7, #9
100083dc:	7882      	ldrb	r2, [r0, #2]
100083de:	78c3      	ldrb	r3, [r0, #3]
100083e0:	021b      	lsls	r3, r3, #8
100083e2:	4313      	orrs	r3, r2
100083e4:	18c4      	adds	r4, r0, r3
100083e6:	42a7      	cmp	r7, r4
100083e8:	d266      	bcs.n	100084b8 <process_set_config+0x12c>
100083ea:	787b      	ldrb	r3, [r7, #1]
100083ec:	2b0b      	cmp	r3, #11
100083ee:	d009      	beq.n	10008404 <process_set_config+0x78>
100083f0:	2301      	movs	r3, #1
100083f2:	469b      	mov	fp, r3
100083f4:	787b      	ldrb	r3, [r7, #1]
100083f6:	2b04      	cmp	r3, #4
100083f8:	d16e      	bne.n	100084d8 <process_set_config+0x14c>
100083fa:	1be3      	subs	r3, r4, r7
100083fc:	b29b      	uxth	r3, r3
100083fe:	4699      	mov	r9, r3
10008400:	2500      	movs	r5, #0
10008402:	e038      	b.n	10008476 <process_set_config+0xea>
10008404:	78fb      	ldrb	r3, [r7, #3]
10008406:	469b      	mov	fp, r3
10008408:	783b      	ldrb	r3, [r7, #0]
1000840a:	18ff      	adds	r7, r7, r3
1000840c:	e7f2      	b.n	100083f4 <process_set_config+0x68>
1000840e:	006b      	lsls	r3, r5, #1
10008410:	195b      	adds	r3, r3, r5
10008412:	00db      	lsls	r3, r3, #3
10008414:	4a34      	ldr	r2, [pc, #208]	@ (100084e8 <process_set_config+0x15c>)
10008416:	6816      	ldr	r6, [r2, #0]
10008418:	18f6      	adds	r6, r6, r3
1000841a:	2e00      	cmp	r6, #0
1000841c:	d13d      	bne.n	1000849a <process_set_config+0x10e>
1000841e:	2000      	movs	r0, #0
10008420:	e054      	b.n	100084cc <process_set_config+0x140>
10008422:	002b      	movs	r3, r5
10008424:	e032      	b.n	1000848c <process_set_config+0x100>
10008426:	68b2      	ldr	r2, [r6, #8]
10008428:	4b30      	ldr	r3, [pc, #192]	@ (100084ec <process_set_config+0x160>)
1000842a:	429a      	cmp	r2, r3
1000842c:	d142      	bne.n	100084b4 <process_set_config+0x128>
1000842e:	46d3      	mov	fp, sl
10008430:	e040      	b.n	100084b4 <process_set_config+0x128>
10008432:	492c      	ldr	r1, [pc, #176]	@ (100084e4 <process_set_config+0x158>)
10008434:	18cb      	adds	r3, r1, r3
10008436:	70dd      	strb	r5, [r3, #3]
10008438:	3201      	adds	r2, #1
1000843a:	b2d2      	uxtb	r2, r2
1000843c:	4593      	cmp	fp, r2
1000843e:	d909      	bls.n	10008454 <process_set_config+0xc8>
10008440:	78bb      	ldrb	r3, [r7, #2]
10008442:	189b      	adds	r3, r3, r2
10008444:	b2db      	uxtb	r3, r3
10008446:	4927      	ldr	r1, [pc, #156]	@ (100084e4 <process_set_config+0x158>)
10008448:	18c9      	adds	r1, r1, r3
1000844a:	78c9      	ldrb	r1, [r1, #3]
1000844c:	29ff      	cmp	r1, #255	@ 0xff
1000844e:	d0f0      	beq.n	10008432 <process_set_config+0xa6>
10008450:	2000      	movs	r0, #0
10008452:	e03b      	b.n	100084cc <process_set_config+0x140>
10008454:	4826      	ldr	r0, [pc, #152]	@ (100084f0 <process_set_config+0x164>)
10008456:	002b      	movs	r3, r5
10008458:	9e01      	ldr	r6, [sp, #4]
1000845a:	0032      	movs	r2, r6
1000845c:	0039      	movs	r1, r7
1000845e:	f001 f96f 	bl	10009740 <tu_edpt_bind_driver>
10008462:	46b4      	mov	ip, r6
10008464:	4467      	add	r7, ip
10008466:	4b23      	ldr	r3, [pc, #140]	@ (100084f4 <process_set_config+0x168>)
10008468:	781b      	ldrb	r3, [r3, #0]
1000846a:	42ab      	cmp	r3, r5
1000846c:	d2bb      	bcs.n	100083e6 <process_set_config+0x5a>
1000846e:	2000      	movs	r0, #0
10008470:	e02c      	b.n	100084cc <process_set_config+0x140>
10008472:	3501      	adds	r5, #1
10008474:	b2ed      	uxtb	r5, r5
10008476:	4b1f      	ldr	r3, [pc, #124]	@ (100084f4 <process_set_config+0x168>)
10008478:	781b      	ldrb	r3, [r3, #0]
1000847a:	42ab      	cmp	r3, r5
1000847c:	d3f3      	bcc.n	10008466 <process_set_config+0xda>
1000847e:	4a1e      	ldr	r2, [pc, #120]	@ (100084f8 <process_set_config+0x16c>)
10008480:	2a00      	cmp	r2, #0
10008482:	d0ce      	beq.n	10008422 <process_set_config+0x96>
10008484:	42ab      	cmp	r3, r5
10008486:	d8c2      	bhi.n	1000840e <process_set_config+0x82>
10008488:	1aeb      	subs	r3, r5, r3
1000848a:	b2db      	uxtb	r3, r3
1000848c:	2b00      	cmp	r3, #0
1000848e:	d125      	bne.n	100084dc <process_set_config+0x150>
10008490:	005e      	lsls	r6, r3, #1
10008492:	18f6      	adds	r6, r6, r3
10008494:	00f6      	lsls	r6, r6, #3
10008496:	4b19      	ldr	r3, [pc, #100]	@ (100084fc <process_set_config+0x170>)
10008498:	18f6      	adds	r6, r6, r3
1000849a:	68b3      	ldr	r3, [r6, #8]
1000849c:	464a      	mov	r2, r9
1000849e:	0039      	movs	r1, r7
100084a0:	9800      	ldr	r0, [sp, #0]
100084a2:	4798      	blx	r3
100084a4:	9001      	str	r0, [sp, #4]
100084a6:	2808      	cmp	r0, #8
100084a8:	d9e3      	bls.n	10008472 <process_set_config+0xe6>
100084aa:	4581      	cmp	r9, r0
100084ac:	d3e1      	bcc.n	10008472 <process_set_config+0xe6>
100084ae:	465b      	mov	r3, fp
100084b0:	2b01      	cmp	r3, #1
100084b2:	d0b8      	beq.n	10008426 <process_set_config+0x9a>
100084b4:	2200      	movs	r2, #0
100084b6:	e7c1      	b.n	1000843c <process_set_config+0xb0>
100084b8:	4b11      	ldr	r3, [pc, #68]	@ (10008500 <process_set_config+0x174>)
100084ba:	2b00      	cmp	r3, #0
100084bc:	d010      	beq.n	100084e0 <process_set_config+0x154>
100084be:	e000      	b.n	100084c2 <process_set_config+0x136>
100084c0:	bf00      	nop
100084c2:	2001      	movs	r0, #1
100084c4:	e002      	b.n	100084cc <process_set_config+0x140>
100084c6:	2000      	movs	r0, #0
100084c8:	e000      	b.n	100084cc <process_set_config+0x140>
100084ca:	2000      	movs	r0, #0
100084cc:	b002      	add	sp, #8
100084ce:	bce0      	pop	{r5, r6, r7}
100084d0:	46bb      	mov	fp, r7
100084d2:	46b2      	mov	sl, r6
100084d4:	46a9      	mov	r9, r5
100084d6:	bdf0      	pop	{r4, r5, r6, r7, pc}
100084d8:	2000      	movs	r0, #0
100084da:	e7f7      	b.n	100084cc <process_set_config+0x140>
100084dc:	2000      	movs	r0, #0
100084de:	e7f5      	b.n	100084cc <process_set_config+0x140>
100084e0:	2001      	movs	r0, #1
100084e2:	e7f3      	b.n	100084cc <process_set_config+0x140>
100084e4:	20001bbc 	.word	0x20001bbc
100084e8:	20001894 	.word	0x20001894
100084ec:	10009301 	.word	0x10009301
100084f0:	20001bcf 	.word	0x20001bcf
100084f4:	2000254c 	.word	0x2000254c
100084f8:	10007911 	.word	0x10007911
100084fc:	1000caf0 	.word	0x1000caf0
10008500:	00000000 	.word	0x00000000

10008504 <process_get_descriptor>:
10008504:	b570      	push	{r4, r5, r6, lr}
10008506:	0005      	movs	r5, r0
10008508:	000c      	movs	r4, r1
1000850a:	78cb      	ldrb	r3, [r1, #3]
1000850c:	7888      	ldrb	r0, [r1, #2]
1000850e:	2b0f      	cmp	r3, #15
10008510:	d850      	bhi.n	100085b4 <process_get_descriptor+0xb0>
10008512:	009a      	lsls	r2, r3, #2
10008514:	492e      	ldr	r1, [pc, #184]	@ (100085d0 <process_get_descriptor+0xcc>)
10008516:	588a      	ldr	r2, [r1, r2]
10008518:	4697      	mov	pc, r2
1000851a:	f7ff fc67 	bl	10007dec <tud_descriptor_device_cb>
1000851e:	0002      	movs	r2, r0
10008520:	2312      	movs	r3, #18
10008522:	0021      	movs	r1, r4
10008524:	0028      	movs	r0, r5
10008526:	f000 fcd3 	bl	10008ed0 <tud_control_xfer>
1000852a:	e044      	b.n	100085b6 <process_get_descriptor+0xb2>
1000852c:	4b29      	ldr	r3, [pc, #164]	@ (100085d4 <process_get_descriptor+0xd0>)
1000852e:	2b00      	cmp	r3, #0
10008530:	d042      	beq.n	100085b8 <process_get_descriptor+0xb4>
10008532:	e000      	b.n	10008536 <process_get_descriptor+0x32>
10008534:	bf00      	nop
10008536:	1e02      	subs	r2, r0, #0
10008538:	d040      	beq.n	100085bc <process_get_descriptor+0xb8>
1000853a:	7881      	ldrb	r1, [r0, #2]
1000853c:	78c3      	ldrb	r3, [r0, #3]
1000853e:	021b      	lsls	r3, r3, #8
10008540:	430b      	orrs	r3, r1
10008542:	0021      	movs	r1, r4
10008544:	0028      	movs	r0, r5
10008546:	f000 fcc3 	bl	10008ed0 <tud_control_xfer>
1000854a:	e034      	b.n	100085b6 <process_get_descriptor+0xb2>
1000854c:	2b02      	cmp	r3, #2
1000854e:	d009      	beq.n	10008564 <process_get_descriptor+0x60>
10008550:	4b21      	ldr	r3, [pc, #132]	@ (100085d8 <process_get_descriptor+0xd4>)
10008552:	2b00      	cmp	r3, #0
10008554:	d034      	beq.n	100085c0 <process_get_descriptor+0xbc>
10008556:	e000      	b.n	1000855a <process_get_descriptor+0x56>
10008558:	bf00      	nop
1000855a:	0002      	movs	r2, r0
1000855c:	2a00      	cmp	r2, #0
1000855e:	d105      	bne.n	1000856c <process_get_descriptor+0x68>
10008560:	2000      	movs	r0, #0
10008562:	e028      	b.n	100085b6 <process_get_descriptor+0xb2>
10008564:	f7ff fc46 	bl	10007df4 <tud_descriptor_configuration_cb>
10008568:	0002      	movs	r2, r0
1000856a:	e7f7      	b.n	1000855c <process_get_descriptor+0x58>
1000856c:	7891      	ldrb	r1, [r2, #2]
1000856e:	78d3      	ldrb	r3, [r2, #3]
10008570:	021b      	lsls	r3, r3, #8
10008572:	430b      	orrs	r3, r1
10008574:	0021      	movs	r1, r4
10008576:	0028      	movs	r0, r5
10008578:	f000 fcaa 	bl	10008ed0 <tud_control_xfer>
1000857c:	e01b      	b.n	100085b6 <process_get_descriptor+0xb2>
1000857e:	7923      	ldrb	r3, [r4, #4]
10008580:	7961      	ldrb	r1, [r4, #5]
10008582:	0209      	lsls	r1, r1, #8
10008584:	4319      	orrs	r1, r3
10008586:	f7ff fc39 	bl	10007dfc <tud_descriptor_string_cb>
1000858a:	1e02      	subs	r2, r0, #0
1000858c:	d01a      	beq.n	100085c4 <process_get_descriptor+0xc0>
1000858e:	7803      	ldrb	r3, [r0, #0]
10008590:	0021      	movs	r1, r4
10008592:	0028      	movs	r0, r5
10008594:	f000 fc9c 	bl	10008ed0 <tud_control_xfer>
10008598:	e00d      	b.n	100085b6 <process_get_descriptor+0xb2>
1000859a:	4b10      	ldr	r3, [pc, #64]	@ (100085dc <process_get_descriptor+0xd8>)
1000859c:	2b00      	cmp	r3, #0
1000859e:	d013      	beq.n	100085c8 <process_get_descriptor+0xc4>
100085a0:	e000      	b.n	100085a4 <process_get_descriptor+0xa0>
100085a2:	bf00      	nop
100085a4:	1e02      	subs	r2, r0, #0
100085a6:	d011      	beq.n	100085cc <process_get_descriptor+0xc8>
100085a8:	7803      	ldrb	r3, [r0, #0]
100085aa:	0021      	movs	r1, r4
100085ac:	0028      	movs	r0, r5
100085ae:	f000 fc8f 	bl	10008ed0 <tud_control_xfer>
100085b2:	e000      	b.n	100085b6 <process_get_descriptor+0xb2>
100085b4:	2000      	movs	r0, #0
100085b6:	bd70      	pop	{r4, r5, r6, pc}
100085b8:	2000      	movs	r0, #0
100085ba:	e7fc      	b.n	100085b6 <process_get_descriptor+0xb2>
100085bc:	2000      	movs	r0, #0
100085be:	e7fa      	b.n	100085b6 <process_get_descriptor+0xb2>
100085c0:	2000      	movs	r0, #0
100085c2:	e7f8      	b.n	100085b6 <process_get_descriptor+0xb2>
100085c4:	2000      	movs	r0, #0
100085c6:	e7f6      	b.n	100085b6 <process_get_descriptor+0xb2>
100085c8:	2000      	movs	r0, #0
100085ca:	e7f4      	b.n	100085b6 <process_get_descriptor+0xb2>
100085cc:	2000      	movs	r0, #0
100085ce:	e7f2      	b.n	100085b6 <process_get_descriptor+0xb2>
100085d0:	1000ca64 	.word	0x1000ca64
	...

100085e0 <tud_mounted>:
100085e0:	4b02      	ldr	r3, [pc, #8]	@ (100085ec <tud_mounted+0xc>)
100085e2:	7858      	ldrb	r0, [r3, #1]
100085e4:	1e43      	subs	r3, r0, #1
100085e6:	4198      	sbcs	r0, r3
100085e8:	b2c0      	uxtb	r0, r0
100085ea:	4770      	bx	lr
100085ec:	20001bbc 	.word	0x20001bbc

100085f0 <tud_suspended>:
100085f0:	4b02      	ldr	r3, [pc, #8]	@ (100085fc <tud_suspended+0xc>)
100085f2:	7818      	ldrb	r0, [r3, #0]
100085f4:	0740      	lsls	r0, r0, #29
100085f6:	0fc0      	lsrs	r0, r0, #31
100085f8:	4770      	bx	lr
100085fa:	46c0      	nop			@ (mov r8, r8)
100085fc:	20001bbc 	.word	0x20001bbc

10008600 <tud_inited>:
10008600:	4b03      	ldr	r3, [pc, #12]	@ (10008610 <tud_inited+0x10>)
10008602:	7818      	ldrb	r0, [r3, #0]
10008604:	38ff      	subs	r0, #255	@ 0xff
10008606:	1e43      	subs	r3, r0, #1
10008608:	4198      	sbcs	r0, r3
1000860a:	b2c0      	uxtb	r0, r0
1000860c:	4770      	bx	lr
1000860e:	46c0      	nop			@ (mov r8, r8)
10008610:	20000e9c 	.word	0x20000e9c

10008614 <tud_init>:
10008614:	b570      	push	{r4, r5, r6, lr}
10008616:	0004      	movs	r4, r0
10008618:	f7ff fff2 	bl	10008600 <tud_inited>
1000861c:	1e06      	subs	r6, r0, #0
1000861e:	d001      	beq.n	10008624 <tud_init+0x10>
10008620:	0030      	movs	r0, r6
10008622:	bd70      	pop	{r4, r5, r6, pc}
10008624:	4824      	ldr	r0, [pc, #144]	@ (100086b8 <tud_init+0xa4>)
10008626:	2253      	movs	r2, #83	@ 0x53
10008628:	2100      	movs	r1, #0
1000862a:	f7fe fecb 	bl	100073c4 <__wrap_memset>
1000862e:	4d23      	ldr	r5, [pc, #140]	@ (100086bc <tud_init+0xa8>)
10008630:	0028      	movs	r0, r5
10008632:	f7fa fda2 	bl	1000317a <mutex_init>
10008636:	4b22      	ldr	r3, [pc, #136]	@ (100086c0 <tud_init+0xac>)
10008638:	601d      	str	r5, [r3, #0]
1000863a:	4d22      	ldr	r5, [pc, #136]	@ (100086c4 <tud_init+0xb0>)
1000863c:	0028      	movs	r0, r5
1000863e:	f7fa fdc3 	bl	100031c8 <critical_section_init>
10008642:	3d14      	subs	r5, #20
10008644:	0028      	movs	r0, r5
10008646:	f001 fbcf 	bl	10009de8 <tu_fifo_clear>
1000864a:	4b1f      	ldr	r3, [pc, #124]	@ (100086c8 <tud_init+0xb4>)
1000864c:	601d      	str	r5, [r3, #0]
1000864e:	4b1f      	ldr	r3, [pc, #124]	@ (100086cc <tud_init+0xb8>)
10008650:	2b00      	cmp	r3, #0
10008652:	d004      	beq.n	1000865e <tud_init+0x4a>
10008654:	481e      	ldr	r0, [pc, #120]	@ (100086d0 <tud_init+0xbc>)
10008656:	f7ff f95b 	bl	10007910 <usbd_app_driver_get_cb>
1000865a:	4b1e      	ldr	r3, [pc, #120]	@ (100086d4 <tud_init+0xc0>)
1000865c:	6018      	str	r0, [r3, #0]
1000865e:	2500      	movs	r5, #0
10008660:	e00b      	b.n	1000867a <tud_init+0x66>
10008662:	006a      	lsls	r2, r5, #1
10008664:	1952      	adds	r2, r2, r5
10008666:	00d2      	lsls	r2, r2, #3
10008668:	4b1a      	ldr	r3, [pc, #104]	@ (100086d4 <tud_init+0xc0>)
1000866a:	681b      	ldr	r3, [r3, #0]
1000866c:	189b      	adds	r3, r3, r2
1000866e:	2b00      	cmp	r3, #0
10008670:	d0d6      	beq.n	10008620 <tud_init+0xc>
10008672:	681b      	ldr	r3, [r3, #0]
10008674:	4798      	blx	r3
10008676:	3501      	adds	r5, #1
10008678:	b2ed      	uxtb	r5, r5
1000867a:	4b15      	ldr	r3, [pc, #84]	@ (100086d0 <tud_init+0xbc>)
1000867c:	781b      	ldrb	r3, [r3, #0]
1000867e:	42ab      	cmp	r3, r5
10008680:	d310      	bcc.n	100086a4 <tud_init+0x90>
10008682:	4a12      	ldr	r2, [pc, #72]	@ (100086cc <tud_init+0xb8>)
10008684:	2a00      	cmp	r2, #0
10008686:	d00b      	beq.n	100086a0 <tud_init+0x8c>
10008688:	42ab      	cmp	r3, r5
1000868a:	d8ea      	bhi.n	10008662 <tud_init+0x4e>
1000868c:	1aeb      	subs	r3, r5, r3
1000868e:	b2db      	uxtb	r3, r3
10008690:	2b00      	cmp	r3, #0
10008692:	d1c5      	bne.n	10008620 <tud_init+0xc>
10008694:	005a      	lsls	r2, r3, #1
10008696:	18d3      	adds	r3, r2, r3
10008698:	00db      	lsls	r3, r3, #3
1000869a:	4a0f      	ldr	r2, [pc, #60]	@ (100086d8 <tud_init+0xc4>)
1000869c:	189b      	adds	r3, r3, r2
1000869e:	e7e8      	b.n	10008672 <tud_init+0x5e>
100086a0:	002b      	movs	r3, r5
100086a2:	e7f5      	b.n	10008690 <tud_init+0x7c>
100086a4:	4b0d      	ldr	r3, [pc, #52]	@ (100086dc <tud_init+0xc8>)
100086a6:	701c      	strb	r4, [r3, #0]
100086a8:	0020      	movs	r0, r4
100086aa:	f7ff fd0f 	bl	100080cc <dcd_init>
100086ae:	0020      	movs	r0, r4
100086b0:	f7ff fcd8 	bl	10008064 <dcd_int_enable>
100086b4:	2601      	movs	r6, #1
100086b6:	e7b3      	b.n	10008620 <tud_init+0xc>
100086b8:	20001bbc 	.word	0x20001bbc
100086bc:	20001b74 	.word	0x20001b74
100086c0:	20001c10 	.word	0x20001c10
100086c4:	20000e94 	.word	0x20000e94
100086c8:	20001c14 	.word	0x20001c14
100086cc:	10007911 	.word	0x10007911
100086d0:	2000254c 	.word	0x2000254c
100086d4:	20001894 	.word	0x20001894
100086d8:	1000caf0 	.word	0x1000caf0
100086dc:	20000e9c 	.word	0x20000e9c

100086e0 <usbd_defer_func>:
100086e0:	b5f0      	push	{r4, r5, r6, r7, lr}
100086e2:	b085      	sub	sp, #20
100086e4:	0007      	movs	r7, r0
100086e6:	000e      	movs	r6, r1
100086e8:	0015      	movs	r5, r2
100086ea:	ac01      	add	r4, sp, #4
100086ec:	220c      	movs	r2, #12
100086ee:	2100      	movs	r1, #0
100086f0:	0020      	movs	r0, r4
100086f2:	f7fe fe67 	bl	100073c4 <__wrap_memset>
100086f6:	2308      	movs	r3, #8
100086f8:	7063      	strb	r3, [r4, #1]
100086fa:	9702      	str	r7, [sp, #8]
100086fc:	9603      	str	r6, [sp, #12]
100086fe:	0029      	movs	r1, r5
10008700:	0020      	movs	r0, r4
10008702:	f002 fb45 	bl	1000ad90 <__dcd_event_handler_veneer>
10008706:	b005      	add	sp, #20
10008708:	bdf0      	pop	{r4, r5, r6, r7, pc}
	...

1000870c <usbd_edpt_open>:
1000870c:	b570      	push	{r4, r5, r6, lr}
1000870e:	000c      	movs	r4, r1
10008710:	4b09      	ldr	r3, [pc, #36]	@ (10008738 <usbd_edpt_open+0x2c>)
10008712:	781d      	ldrb	r5, [r3, #0]
10008714:	788b      	ldrb	r3, [r1, #2]
10008716:	2270      	movs	r2, #112	@ 0x70
10008718:	421a      	tst	r2, r3
1000871a:	d001      	beq.n	10008720 <usbd_edpt_open+0x14>
1000871c:	2000      	movs	r0, #0
1000871e:	bd70      	pop	{r4, r5, r6, pc}
10008720:	4b06      	ldr	r3, [pc, #24]	@ (1000873c <usbd_edpt_open+0x30>)
10008722:	7899      	ldrb	r1, [r3, #2]
10008724:	0020      	movs	r0, r4
10008726:	f000 ffcf 	bl	100096c8 <tu_edpt_validate>
1000872a:	2800      	cmp	r0, #0
1000872c:	d0f7      	beq.n	1000871e <usbd_edpt_open+0x12>
1000872e:	0021      	movs	r1, r4
10008730:	0028      	movs	r0, r5
10008732:	f7ff fd19 	bl	10008168 <dcd_edpt_open>
10008736:	e7f2      	b.n	1000871e <usbd_edpt_open+0x12>
10008738:	20000e9c 	.word	0x20000e9c
1000873c:	20001bbc 	.word	0x20001bbc

10008740 <usbd_open_edpt_pair>:
10008740:	b5f8      	push	{r3, r4, r5, r6, r7, lr}
10008742:	46ce      	mov	lr, r9
10008744:	4647      	mov	r7, r8
10008746:	b580      	push	{r7, lr}
10008748:	4681      	mov	r9, r0
1000874a:	000c      	movs	r4, r1
1000874c:	0017      	movs	r7, r2
1000874e:	001e      	movs	r6, r3
10008750:	9b08      	ldr	r3, [sp, #32]
10008752:	4698      	mov	r8, r3
10008754:	2500      	movs	r5, #0
10008756:	e004      	b.n	10008762 <usbd_open_edpt_pair+0x22>
10008758:	9a09      	ldr	r2, [sp, #36]	@ 0x24
1000875a:	7013      	strb	r3, [r2, #0]
1000875c:	7823      	ldrb	r3, [r4, #0]
1000875e:	18e4      	adds	r4, r4, r3
10008760:	3501      	adds	r5, #1
10008762:	42af      	cmp	r7, r5
10008764:	dd14      	ble.n	10008790 <usbd_open_edpt_pair+0x50>
10008766:	7863      	ldrb	r3, [r4, #1]
10008768:	2b05      	cmp	r3, #5
1000876a:	d116      	bne.n	1000879a <usbd_open_edpt_pair+0x5a>
1000876c:	78e1      	ldrb	r1, [r4, #3]
1000876e:	0789      	lsls	r1, r1, #30
10008770:	0f89      	lsrs	r1, r1, #30
10008772:	42b1      	cmp	r1, r6
10008774:	d113      	bne.n	1000879e <usbd_open_edpt_pair+0x5e>
10008776:	0021      	movs	r1, r4
10008778:	4648      	mov	r0, r9
1000877a:	f7ff ffc7 	bl	1000870c <usbd_edpt_open>
1000877e:	2800      	cmp	r0, #0
10008780:	d007      	beq.n	10008792 <usbd_open_edpt_pair+0x52>
10008782:	78a3      	ldrb	r3, [r4, #2]
10008784:	09da      	lsrs	r2, r3, #7
10008786:	2a01      	cmp	r2, #1
10008788:	d0e6      	beq.n	10008758 <usbd_open_edpt_pair+0x18>
1000878a:	4642      	mov	r2, r8
1000878c:	7013      	strb	r3, [r2, #0]
1000878e:	e7e5      	b.n	1000875c <usbd_open_edpt_pair+0x1c>
10008790:	2001      	movs	r0, #1
10008792:	bcc0      	pop	{r6, r7}
10008794:	46b9      	mov	r9, r7
10008796:	46b0      	mov	r8, r6
10008798:	bdf8      	pop	{r3, r4, r5, r6, r7, pc}
1000879a:	2000      	movs	r0, #0
1000879c:	e7f9      	b.n	10008792 <usbd_open_edpt_pair+0x52>
1000879e:	2000      	movs	r0, #0
100087a0:	e7f7      	b.n	10008792 <usbd_open_edpt_pair+0x52>
	...

100087a4 <usbd_edpt_claim>:
100087a4:	b510      	push	{r4, lr}
100087a6:	207f      	movs	r0, #127	@ 0x7f
100087a8:	4008      	ands	r0, r1
100087aa:	09c9      	lsrs	r1, r1, #7
100087ac:	0040      	lsls	r0, r0, #1
100087ae:	1840      	adds	r0, r0, r1
100087b0:	3030      	adds	r0, #48	@ 0x30
100087b2:	4b04      	ldr	r3, [pc, #16]	@ (100087c4 <usbd_edpt_claim+0x20>)
100087b4:	18c0      	adds	r0, r0, r3
100087b6:	3003      	adds	r0, #3
100087b8:	4b03      	ldr	r3, [pc, #12]	@ (100087c8 <usbd_edpt_claim+0x24>)
100087ba:	6819      	ldr	r1, [r3, #0]
100087bc:	f000 ff40 	bl	10009640 <tu_edpt_claim>
100087c0:	bd10      	pop	{r4, pc}
100087c2:	46c0      	nop			@ (mov r8, r8)
100087c4:	20001bbc 	.word	0x20001bbc
100087c8:	20001c10 	.word	0x20001c10

100087cc <usbd_edpt_release>:
100087cc:	b510      	push	{r4, lr}
100087ce:	207f      	movs	r0, #127	@ 0x7f
100087d0:	4008      	ands	r0, r1
100087d2:	09c9      	lsrs	r1, r1, #7
100087d4:	0040      	lsls	r0, r0, #1
100087d6:	1840      	adds	r0, r0, r1
100087d8:	3030      	adds	r0, #48	@ 0x30
100087da:	4b04      	ldr	r3, [pc, #16]	@ (100087ec <usbd_edpt_release+0x20>)
100087dc:	18c0      	adds	r0, r0, r3
100087de:	3003      	adds	r0, #3
100087e0:	4b03      	ldr	r3, [pc, #12]	@ (100087f0 <usbd_edpt_release+0x24>)
100087e2:	6819      	ldr	r1, [r3, #0]
100087e4:	f000 ff54 	bl	10009690 <tu_edpt_release>
100087e8:	bd10      	pop	{r4, pc}
100087ea:	46c0      	nop			@ (mov r8, r8)
100087ec:	20001bbc 	.word	0x20001bbc
100087f0:	20001c10 	.word	0x20001c10

100087f4 <usbd_edpt_xfer>:
100087f4:	b5f8      	push	{r3, r4, r5, r6, r7, lr}
100087f6:	46ce      	mov	lr, r9
100087f8:	4647      	mov	r7, r8
100087fa:	b580      	push	{r7, lr}
100087fc:	4819      	ldr	r0, [pc, #100]	@ (10008864 <usbd_edpt_xfer+0x70>)
100087fe:	7800      	ldrb	r0, [r0, #0]
10008800:	257f      	movs	r5, #127	@ 0x7f
10008802:	400d      	ands	r5, r1
10008804:	09ce      	lsrs	r6, r1, #7
10008806:	4c18      	ldr	r4, [pc, #96]	@ (10008868 <usbd_edpt_xfer+0x74>)
10008808:	006f      	lsls	r7, r5, #1
1000880a:	19e4      	adds	r4, r4, r7
1000880c:	19a4      	adds	r4, r4, r6
1000880e:	3430      	adds	r4, #48	@ 0x30
10008810:	78e4      	ldrb	r4, [r4, #3]
10008812:	07e4      	lsls	r4, r4, #31
10008814:	d504      	bpl.n	10008820 <usbd_edpt_xfer+0x2c>
10008816:	2000      	movs	r0, #0
10008818:	bcc0      	pop	{r6, r7}
1000881a:	46b9      	mov	r9, r7
1000881c:	46b0      	mov	r8, r6
1000881e:	bdf8      	pop	{r3, r4, r5, r6, r7, pc}
10008820:	4c11      	ldr	r4, [pc, #68]	@ (10008868 <usbd_edpt_xfer+0x74>)
10008822:	19e4      	adds	r4, r4, r7
10008824:	19a4      	adds	r4, r4, r6
10008826:	2730      	movs	r7, #48	@ 0x30
10008828:	46b9      	mov	r9, r7
1000882a:	44a1      	add	r9, r4
1000882c:	464c      	mov	r4, r9
1000882e:	78e4      	ldrb	r4, [r4, #3]
10008830:	2701      	movs	r7, #1
10008832:	46bc      	mov	ip, r7
10008834:	4667      	mov	r7, ip
10008836:	433c      	orrs	r4, r7
10008838:	0027      	movs	r7, r4
1000883a:	464c      	mov	r4, r9
1000883c:	70e7      	strb	r7, [r4, #3]
1000883e:	f7ff fcb7 	bl	100081b0 <dcd_edpt_xfer>
10008842:	2800      	cmp	r0, #0
10008844:	d1e8      	bne.n	10008818 <usbd_edpt_xfer+0x24>
10008846:	4b08      	ldr	r3, [pc, #32]	@ (10008868 <usbd_edpt_xfer+0x74>)
10008848:	006d      	lsls	r5, r5, #1
1000884a:	195b      	adds	r3, r3, r5
1000884c:	199b      	adds	r3, r3, r6
1000884e:	3330      	adds	r3, #48	@ 0x30
10008850:	78da      	ldrb	r2, [r3, #3]
10008852:	2101      	movs	r1, #1
10008854:	438a      	bics	r2, r1
10008856:	70da      	strb	r2, [r3, #3]
10008858:	78da      	ldrb	r2, [r3, #3]
1000885a:	3103      	adds	r1, #3
1000885c:	438a      	bics	r2, r1
1000885e:	70da      	strb	r2, [r3, #3]
10008860:	e7da      	b.n	10008818 <usbd_edpt_xfer+0x24>
10008862:	46c0      	nop			@ (mov r8, r8)
10008864:	20000e9c 	.word	0x20000e9c
10008868:	20001bbc 	.word	0x20001bbc

1000886c <usbd_edpt_stall>:
1000886c:	b570      	push	{r4, r5, r6, lr}
1000886e:	4b0f      	ldr	r3, [pc, #60]	@ (100088ac <usbd_edpt_stall+0x40>)
10008870:	7818      	ldrb	r0, [r3, #0]
10008872:	247f      	movs	r4, #127	@ 0x7f
10008874:	400c      	ands	r4, r1
10008876:	09cd      	lsrs	r5, r1, #7
10008878:	4b0d      	ldr	r3, [pc, #52]	@ (100088b0 <usbd_edpt_stall+0x44>)
1000887a:	0062      	lsls	r2, r4, #1
1000887c:	189b      	adds	r3, r3, r2
1000887e:	195b      	adds	r3, r3, r5
10008880:	3330      	adds	r3, #48	@ 0x30
10008882:	78db      	ldrb	r3, [r3, #3]
10008884:	079b      	lsls	r3, r3, #30
10008886:	d500      	bpl.n	1000888a <usbd_edpt_stall+0x1e>
10008888:	bd70      	pop	{r4, r5, r6, pc}
1000888a:	f7ff fcab 	bl	100081e4 <dcd_edpt_stall>
1000888e:	4b08      	ldr	r3, [pc, #32]	@ (100088b0 <usbd_edpt_stall+0x44>)
10008890:	0064      	lsls	r4, r4, #1
10008892:	191b      	adds	r3, r3, r4
10008894:	195b      	adds	r3, r3, r5
10008896:	3330      	adds	r3, #48	@ 0x30
10008898:	78da      	ldrb	r2, [r3, #3]
1000889a:	2102      	movs	r1, #2
1000889c:	430a      	orrs	r2, r1
1000889e:	70da      	strb	r2, [r3, #3]
100088a0:	78da      	ldrb	r2, [r3, #3]
100088a2:	2101      	movs	r1, #1
100088a4:	430a      	orrs	r2, r1
100088a6:	70da      	strb	r2, [r3, #3]
100088a8:	e7ee      	b.n	10008888 <usbd_edpt_stall+0x1c>
100088aa:	46c0      	nop			@ (mov r8, r8)
100088ac:	20000e9c 	.word	0x20000e9c
100088b0:	20001bbc 	.word	0x20001bbc

100088b4 <usbd_edpt_clear_stall>:
100088b4:	b570      	push	{r4, r5, r6, lr}
100088b6:	4b0f      	ldr	r3, [pc, #60]	@ (100088f4 <usbd_edpt_clear_stall+0x40>)
100088b8:	7818      	ldrb	r0, [r3, #0]
100088ba:	247f      	movs	r4, #127	@ 0x7f
100088bc:	400c      	ands	r4, r1
100088be:	09cd      	lsrs	r5, r1, #7
100088c0:	4b0d      	ldr	r3, [pc, #52]	@ (100088f8 <usbd_edpt_clear_stall+0x44>)
100088c2:	0062      	lsls	r2, r4, #1
100088c4:	189b      	adds	r3, r3, r2
100088c6:	195b      	adds	r3, r3, r5
100088c8:	3330      	adds	r3, #48	@ 0x30
100088ca:	78db      	ldrb	r3, [r3, #3]
100088cc:	079b      	lsls	r3, r3, #30
100088ce:	d400      	bmi.n	100088d2 <usbd_edpt_clear_stall+0x1e>
100088d0:	bd70      	pop	{r4, r5, r6, pc}
100088d2:	f7ff fc9d 	bl	10008210 <dcd_edpt_clear_stall>
100088d6:	4b08      	ldr	r3, [pc, #32]	@ (100088f8 <usbd_edpt_clear_stall+0x44>)
100088d8:	0064      	lsls	r4, r4, #1
100088da:	191b      	adds	r3, r3, r4
100088dc:	195b      	adds	r3, r3, r5
100088de:	3330      	adds	r3, #48	@ 0x30
100088e0:	78da      	ldrb	r2, [r3, #3]
100088e2:	2102      	movs	r1, #2
100088e4:	438a      	bics	r2, r1
100088e6:	70da      	strb	r2, [r3, #3]
100088e8:	78da      	ldrb	r2, [r3, #3]
100088ea:	3901      	subs	r1, #1
100088ec:	438a      	bics	r2, r1
100088ee:	70da      	strb	r2, [r3, #3]
100088f0:	e7ee      	b.n	100088d0 <usbd_edpt_clear_stall+0x1c>
100088f2:	46c0      	nop			@ (mov r8, r8)
100088f4:	20000e9c 	.word	0x20000e9c
100088f8:	20001bbc 	.word	0x20001bbc

100088fc <usbd_edpt_stalled>:
100088fc:	227f      	movs	r2, #127	@ 0x7f
100088fe:	400a      	ands	r2, r1
10008900:	09c9      	lsrs	r1, r1, #7
10008902:	4b04      	ldr	r3, [pc, #16]	@ (10008914 <usbd_edpt_stalled+0x18>)
10008904:	0052      	lsls	r2, r2, #1
10008906:	189b      	adds	r3, r3, r2
10008908:	185b      	adds	r3, r3, r1
1000890a:	3330      	adds	r3, #48	@ 0x30
1000890c:	78d8      	ldrb	r0, [r3, #3]
1000890e:	0780      	lsls	r0, r0, #30
10008910:	0fc0      	lsrs	r0, r0, #31
10008912:	4770      	bx	lr
10008914:	20001bbc 	.word	0x20001bbc

10008918 <process_control_request>:
10008918:	b5f0      	push	{r4, r5, r6, r7, lr}
1000891a:	46c6      	mov	lr, r8
1000891c:	b500      	push	{lr}
1000891e:	b082      	sub	sp, #8
10008920:	0005      	movs	r5, r0
10008922:	000c      	movs	r4, r1
10008924:	2000      	movs	r0, #0
10008926:	f000 fb11 	bl	10008f4c <usbd_control_set_complete_callback>
1000892a:	7822      	ldrb	r2, [r4, #0]
1000892c:	2360      	movs	r3, #96	@ 0x60
1000892e:	4013      	ands	r3, r2
10008930:	2b60      	cmp	r3, #96	@ 0x60
10008932:	d100      	bne.n	10008936 <process_control_request+0x1e>
10008934:	e17f      	b.n	10008c36 <process_control_request+0x31e>
10008936:	2b40      	cmp	r3, #64	@ 0x40
10008938:	d018      	beq.n	1000896c <process_control_request+0x54>
1000893a:	7822      	ldrb	r2, [r4, #0]
1000893c:	06d2      	lsls	r2, r2, #27
1000893e:	0ed2      	lsrs	r2, r2, #27
10008940:	2a01      	cmp	r2, #1
10008942:	d100      	bne.n	10008946 <process_control_request+0x2e>
10008944:	e0c5      	b.n	10008ad2 <process_control_request+0x1ba>
10008946:	2a02      	cmp	r2, #2
10008948:	d100      	bne.n	1000894c <process_control_request+0x34>
1000894a:	e10b      	b.n	10008b64 <process_control_request+0x24c>
1000894c:	2a00      	cmp	r2, #0
1000894e:	d000      	beq.n	10008952 <process_control_request+0x3a>
10008950:	e178      	b.n	10008c44 <process_control_request+0x32c>
10008952:	2b20      	cmp	r3, #32
10008954:	d017      	beq.n	10008986 <process_control_request+0x6e>
10008956:	2b00      	cmp	r3, #0
10008958:	d000      	beq.n	1000895c <process_control_request+0x44>
1000895a:	e179      	b.n	10008c50 <process_control_request+0x338>
1000895c:	7863      	ldrb	r3, [r4, #1]
1000895e:	2b09      	cmp	r3, #9
10008960:	d900      	bls.n	10008964 <process_control_request+0x4c>
10008962:	e177      	b.n	10008c54 <process_control_request+0x33c>
10008964:	009b      	lsls	r3, r3, #2
10008966:	4ac2      	ldr	r2, [pc, #776]	@ (10008c70 <process_control_request+0x358>)
10008968:	58d3      	ldr	r3, [r2, r3]
1000896a:	469f      	mov	pc, r3
1000896c:	4bc1      	ldr	r3, [pc, #772]	@ (10008c74 <process_control_request+0x35c>)
1000896e:	2b00      	cmp	r3, #0
10008970:	d100      	bne.n	10008974 <process_control_request+0x5c>
10008972:	e165      	b.n	10008c40 <process_control_request+0x328>
10008974:	0018      	movs	r0, r3
10008976:	f000 fae9 	bl	10008f4c <usbd_control_set_complete_callback>
1000897a:	0022      	movs	r2, r4
1000897c:	2101      	movs	r1, #1
1000897e:	0028      	movs	r0, r5
10008980:	e000      	b.n	10008984 <process_control_request+0x6c>
10008982:	bf00      	nop
10008984:	e158      	b.n	10008c38 <process_control_request+0x320>
10008986:	7923      	ldrb	r3, [r4, #4]
10008988:	2b0f      	cmp	r3, #15
1000898a:	d900      	bls.n	1000898e <process_control_request+0x76>
1000898c:	e15c      	b.n	10008c48 <process_control_request+0x330>
1000898e:	4aba      	ldr	r2, [pc, #744]	@ (10008c78 <process_control_request+0x360>)
10008990:	18d3      	adds	r3, r2, r3
10008992:	78db      	ldrb	r3, [r3, #3]
10008994:	4ab9      	ldr	r2, [pc, #740]	@ (10008c7c <process_control_request+0x364>)
10008996:	2a00      	cmp	r2, #0
10008998:	d005      	beq.n	100089a6 <process_control_request+0x8e>
1000899a:	4ab9      	ldr	r2, [pc, #740]	@ (10008c80 <process_control_request+0x368>)
1000899c:	7812      	ldrb	r2, [r2, #0]
1000899e:	4293      	cmp	r3, r2
100089a0:	d30e      	bcc.n	100089c0 <process_control_request+0xa8>
100089a2:	1a9b      	subs	r3, r3, r2
100089a4:	b2db      	uxtb	r3, r3
100089a6:	2b00      	cmp	r3, #0
100089a8:	d000      	beq.n	100089ac <process_control_request+0x94>
100089aa:	e14f      	b.n	10008c4c <process_control_request+0x334>
100089ac:	0059      	lsls	r1, r3, #1
100089ae:	18c9      	adds	r1, r1, r3
100089b0:	00c9      	lsls	r1, r1, #3
100089b2:	4bb4      	ldr	r3, [pc, #720]	@ (10008c84 <process_control_request+0x36c>)
100089b4:	18c9      	adds	r1, r1, r3
100089b6:	0022      	movs	r2, r4
100089b8:	0028      	movs	r0, r5
100089ba:	f7ff fcda 	bl	10008372 <invoke_class_control>
100089be:	e13b      	b.n	10008c38 <process_control_request+0x320>
100089c0:	005a      	lsls	r2, r3, #1
100089c2:	18d3      	adds	r3, r2, r3
100089c4:	00db      	lsls	r3, r3, #3
100089c6:	4ab0      	ldr	r2, [pc, #704]	@ (10008c88 <process_control_request+0x370>)
100089c8:	6811      	ldr	r1, [r2, #0]
100089ca:	18c9      	adds	r1, r1, r3
100089cc:	2900      	cmp	r1, #0
100089ce:	d1f2      	bne.n	100089b6 <process_control_request+0x9e>
100089d0:	2000      	movs	r0, #0
100089d2:	e131      	b.n	10008c38 <process_control_request+0x320>
100089d4:	0020      	movs	r0, r4
100089d6:	f000 fabf 	bl	10008f58 <usbd_control_set_request>
100089da:	78a1      	ldrb	r1, [r4, #2]
100089dc:	0028      	movs	r0, r5
100089de:	f7ff fb57 	bl	10008090 <dcd_set_address>
100089e2:	4aa5      	ldr	r2, [pc, #660]	@ (10008c78 <process_control_request+0x360>)
100089e4:	7813      	ldrb	r3, [r2, #0]
100089e6:	2102      	movs	r1, #2
100089e8:	430b      	orrs	r3, r1
100089ea:	7013      	strb	r3, [r2, #0]
100089ec:	2001      	movs	r0, #1
100089ee:	e123      	b.n	10008c38 <process_control_request+0x320>
100089f0:	4ba1      	ldr	r3, [pc, #644]	@ (10008c78 <process_control_request+0x360>)
100089f2:	785b      	ldrb	r3, [r3, #1]
100089f4:	466a      	mov	r2, sp
100089f6:	3206      	adds	r2, #6
100089f8:	7013      	strb	r3, [r2, #0]
100089fa:	2301      	movs	r3, #1
100089fc:	0021      	movs	r1, r4
100089fe:	0028      	movs	r0, r5
10008a00:	f000 fa66 	bl	10008ed0 <tud_control_xfer>
10008a04:	2001      	movs	r0, #1
10008a06:	e117      	b.n	10008c38 <process_control_request+0x320>
10008a08:	78a6      	ldrb	r6, [r4, #2]
10008a0a:	4b9b      	ldr	r3, [pc, #620]	@ (10008c78 <process_control_request+0x360>)
10008a0c:	785b      	ldrb	r3, [r3, #1]
10008a0e:	b2db      	uxtb	r3, r3
10008a10:	42b3      	cmp	r3, r6
10008a12:	d005      	beq.n	10008a20 <process_control_request+0x108>
10008a14:	4b98      	ldr	r3, [pc, #608]	@ (10008c78 <process_control_request+0x360>)
10008a16:	785b      	ldrb	r3, [r3, #1]
10008a18:	2b00      	cmp	r3, #0
10008a1a:	d109      	bne.n	10008a30 <process_control_request+0x118>
10008a1c:	2e00      	cmp	r6, #0
10008a1e:	d113      	bne.n	10008a48 <process_control_request+0x130>
10008a20:	4b95      	ldr	r3, [pc, #596]	@ (10008c78 <process_control_request+0x360>)
10008a22:	705e      	strb	r6, [r3, #1]
10008a24:	0021      	movs	r1, r4
10008a26:	0028      	movs	r0, r5
10008a28:	f000 fa3e 	bl	10008ea8 <tud_control_status>
10008a2c:	2001      	movs	r0, #1
10008a2e:	e103      	b.n	10008c38 <process_control_request+0x320>
10008a30:	0028      	movs	r0, r5
10008a32:	f7ff fbb9 	bl	100081a8 <dcd_edpt_close_all>
10008a36:	4f90      	ldr	r7, [pc, #576]	@ (10008c78 <process_control_request+0x360>)
10008a38:	78bb      	ldrb	r3, [r7, #2]
10008a3a:	4698      	mov	r8, r3
10008a3c:	0028      	movs	r0, r5
10008a3e:	f7ff fc45 	bl	100082cc <configuration_reset>
10008a42:	4643      	mov	r3, r8
10008a44:	70bb      	strb	r3, [r7, #2]
10008a46:	e7e9      	b.n	10008a1c <process_control_request+0x104>
10008a48:	0031      	movs	r1, r6
10008a4a:	0028      	movs	r0, r5
10008a4c:	f7ff fc9e 	bl	1000838c <process_set_config>
10008a50:	2800      	cmp	r0, #0
10008a52:	d1e5      	bne.n	10008a20 <process_control_request+0x108>
10008a54:	e0f0      	b.n	10008c38 <process_control_request+0x320>
10008a56:	0021      	movs	r1, r4
10008a58:	0028      	movs	r0, r5
10008a5a:	f7ff fd53 	bl	10008504 <process_get_descriptor>
10008a5e:	e0eb      	b.n	10008c38 <process_control_request+0x320>
10008a60:	78a2      	ldrb	r2, [r4, #2]
10008a62:	78e3      	ldrb	r3, [r4, #3]
10008a64:	021b      	lsls	r3, r3, #8
10008a66:	4313      	orrs	r3, r2
10008a68:	2b01      	cmp	r3, #1
10008a6a:	d001      	beq.n	10008a70 <process_control_request+0x158>
10008a6c:	2000      	movs	r0, #0
10008a6e:	e0e3      	b.n	10008c38 <process_control_request+0x320>
10008a70:	4a81      	ldr	r2, [pc, #516]	@ (10008c78 <process_control_request+0x360>)
10008a72:	7813      	ldrb	r3, [r2, #0]
10008a74:	2108      	movs	r1, #8
10008a76:	430b      	orrs	r3, r1
10008a78:	7013      	strb	r3, [r2, #0]
10008a7a:	0021      	movs	r1, r4
10008a7c:	0028      	movs	r0, r5
10008a7e:	f000 fa13 	bl	10008ea8 <tud_control_status>
10008a82:	2001      	movs	r0, #1
10008a84:	e0d8      	b.n	10008c38 <process_control_request+0x320>
10008a86:	78a2      	ldrb	r2, [r4, #2]
10008a88:	78e3      	ldrb	r3, [r4, #3]
10008a8a:	021b      	lsls	r3, r3, #8
10008a8c:	4313      	orrs	r3, r2
10008a8e:	2b01      	cmp	r3, #1
10008a90:	d001      	beq.n	10008a96 <process_control_request+0x17e>
10008a92:	2000      	movs	r0, #0
10008a94:	e0d0      	b.n	10008c38 <process_control_request+0x320>
10008a96:	4a78      	ldr	r2, [pc, #480]	@ (10008c78 <process_control_request+0x360>)
10008a98:	7813      	ldrb	r3, [r2, #0]
10008a9a:	2108      	movs	r1, #8
10008a9c:	438b      	bics	r3, r1
10008a9e:	7013      	strb	r3, [r2, #0]
10008aa0:	0021      	movs	r1, r4
10008aa2:	0028      	movs	r0, r5
10008aa4:	f000 fa00 	bl	10008ea8 <tud_control_status>
10008aa8:	2001      	movs	r0, #1
10008aaa:	e0c5      	b.n	10008c38 <process_control_request+0x320>
10008aac:	4b72      	ldr	r3, [pc, #456]	@ (10008c78 <process_control_request+0x360>)
10008aae:	781a      	ldrb	r2, [r3, #0]
10008ab0:	0951      	lsrs	r1, r2, #5
10008ab2:	0892      	lsrs	r2, r2, #2
10008ab4:	2301      	movs	r3, #1
10008ab6:	400b      	ands	r3, r1
10008ab8:	2102      	movs	r1, #2
10008aba:	400a      	ands	r2, r1
10008abc:	4313      	orrs	r3, r2
10008abe:	466a      	mov	r2, sp
10008ac0:	3206      	adds	r2, #6
10008ac2:	8013      	strh	r3, [r2, #0]
10008ac4:	2302      	movs	r3, #2
10008ac6:	0021      	movs	r1, r4
10008ac8:	0028      	movs	r0, r5
10008aca:	f000 fa01 	bl	10008ed0 <tud_control_xfer>
10008ace:	2001      	movs	r0, #1
10008ad0:	e0b2      	b.n	10008c38 <process_control_request+0x320>
10008ad2:	7923      	ldrb	r3, [r4, #4]
10008ad4:	2b0f      	cmp	r3, #15
10008ad6:	d900      	bls.n	10008ada <process_control_request+0x1c2>
10008ad8:	e0be      	b.n	10008c58 <process_control_request+0x340>
10008ada:	4a67      	ldr	r2, [pc, #412]	@ (10008c78 <process_control_request+0x360>)
10008adc:	18d3      	adds	r3, r2, r3
10008ade:	78db      	ldrb	r3, [r3, #3]
10008ae0:	4a66      	ldr	r2, [pc, #408]	@ (10008c7c <process_control_request+0x364>)
10008ae2:	2a00      	cmp	r2, #0
10008ae4:	d005      	beq.n	10008af2 <process_control_request+0x1da>
10008ae6:	4a66      	ldr	r2, [pc, #408]	@ (10008c80 <process_control_request+0x368>)
10008ae8:	7812      	ldrb	r2, [r2, #0]
10008aea:	4293      	cmp	r3, r2
10008aec:	d325      	bcc.n	10008b3a <process_control_request+0x222>
10008aee:	1a9b      	subs	r3, r3, r2
10008af0:	b2db      	uxtb	r3, r3
10008af2:	2b00      	cmp	r3, #0
10008af4:	d000      	beq.n	10008af8 <process_control_request+0x1e0>
10008af6:	e0b1      	b.n	10008c5c <process_control_request+0x344>
10008af8:	0059      	lsls	r1, r3, #1
10008afa:	18c9      	adds	r1, r1, r3
10008afc:	00c9      	lsls	r1, r1, #3
10008afe:	4b61      	ldr	r3, [pc, #388]	@ (10008c84 <process_control_request+0x36c>)
10008b00:	18c9      	adds	r1, r1, r3
10008b02:	0022      	movs	r2, r4
10008b04:	0028      	movs	r0, r5
10008b06:	f7ff fc34 	bl	10008372 <invoke_class_control>
10008b0a:	2800      	cmp	r0, #0
10008b0c:	d000      	beq.n	10008b10 <process_control_request+0x1f8>
10008b0e:	e093      	b.n	10008c38 <process_control_request+0x320>
10008b10:	7823      	ldrb	r3, [r4, #0]
10008b12:	2260      	movs	r2, #96	@ 0x60
10008b14:	421a      	tst	r2, r3
10008b16:	d000      	beq.n	10008b1a <process_control_request+0x202>
10008b18:	e08e      	b.n	10008c38 <process_control_request+0x320>
10008b1a:	7863      	ldrb	r3, [r4, #1]
10008b1c:	3b0a      	subs	r3, #10
10008b1e:	2b01      	cmp	r3, #1
10008b20:	d900      	bls.n	10008b24 <process_control_request+0x20c>
10008b22:	e089      	b.n	10008c38 <process_control_request+0x320>
10008b24:	f000 fa12 	bl	10008f4c <usbd_control_set_complete_callback>
10008b28:	7863      	ldrb	r3, [r4, #1]
10008b2a:	2b0a      	cmp	r3, #10
10008b2c:	d00f      	beq.n	10008b4e <process_control_request+0x236>
10008b2e:	0021      	movs	r1, r4
10008b30:	0028      	movs	r0, r5
10008b32:	f000 f9b9 	bl	10008ea8 <tud_control_status>
10008b36:	2001      	movs	r0, #1
10008b38:	e07e      	b.n	10008c38 <process_control_request+0x320>
10008b3a:	005a      	lsls	r2, r3, #1
10008b3c:	18d3      	adds	r3, r2, r3
10008b3e:	00db      	lsls	r3, r3, #3
10008b40:	4a51      	ldr	r2, [pc, #324]	@ (10008c88 <process_control_request+0x370>)
10008b42:	6811      	ldr	r1, [r2, #0]
10008b44:	18c9      	adds	r1, r1, r3
10008b46:	2900      	cmp	r1, #0
10008b48:	d1db      	bne.n	10008b02 <process_control_request+0x1ea>
10008b4a:	2000      	movs	r0, #0
10008b4c:	e074      	b.n	10008c38 <process_control_request+0x320>
10008b4e:	466b      	mov	r3, sp
10008b50:	1d9a      	adds	r2, r3, #6
10008b52:	2300      	movs	r3, #0
10008b54:	7013      	strb	r3, [r2, #0]
10008b56:	3301      	adds	r3, #1
10008b58:	0021      	movs	r1, r4
10008b5a:	0028      	movs	r0, r5
10008b5c:	f000 f9b8 	bl	10008ed0 <tud_control_xfer>
10008b60:	2001      	movs	r0, #1
10008b62:	e069      	b.n	10008c38 <process_control_request+0x320>
10008b64:	7921      	ldrb	r1, [r4, #4]
10008b66:	207f      	movs	r0, #127	@ 0x7f
10008b68:	4008      	ands	r0, r1
10008b6a:	09ce      	lsrs	r6, r1, #7
10008b6c:	2270      	movs	r2, #112	@ 0x70
10008b6e:	420a      	tst	r2, r1
10008b70:	d000      	beq.n	10008b74 <process_control_request+0x25c>
10008b72:	e075      	b.n	10008c60 <process_control_request+0x348>
10008b74:	4a40      	ldr	r2, [pc, #256]	@ (10008c78 <process_control_request+0x360>)
10008b76:	0040      	lsls	r0, r0, #1
10008b78:	1812      	adds	r2, r2, r0
10008b7a:	1992      	adds	r2, r2, r6
10008b7c:	7cd2      	ldrb	r2, [r2, #19]
10008b7e:	483f      	ldr	r0, [pc, #252]	@ (10008c7c <process_control_request+0x364>)
10008b80:	2800      	cmp	r0, #0
10008b82:	d005      	beq.n	10008b90 <process_control_request+0x278>
10008b84:	483e      	ldr	r0, [pc, #248]	@ (10008c80 <process_control_request+0x368>)
10008b86:	7800      	ldrb	r0, [r0, #0]
10008b88:	4282      	cmp	r2, r0
10008b8a:	d312      	bcc.n	10008bb2 <process_control_request+0x29a>
10008b8c:	1a12      	subs	r2, r2, r0
10008b8e:	b2d2      	uxtb	r2, r2
10008b90:	2a00      	cmp	r2, #0
10008b92:	d115      	bne.n	10008bc0 <process_control_request+0x2a8>
10008b94:	0056      	lsls	r6, r2, #1
10008b96:	18b6      	adds	r6, r6, r2
10008b98:	00f6      	lsls	r6, r6, #3
10008b9a:	4a3a      	ldr	r2, [pc, #232]	@ (10008c84 <process_control_request+0x36c>)
10008b9c:	18b6      	adds	r6, r6, r2
10008b9e:	2b00      	cmp	r3, #0
10008ba0:	d010      	beq.n	10008bc4 <process_control_request+0x2ac>
10008ba2:	2e00      	cmp	r6, #0
10008ba4:	d05e      	beq.n	10008c64 <process_control_request+0x34c>
10008ba6:	0022      	movs	r2, r4
10008ba8:	0031      	movs	r1, r6
10008baa:	0028      	movs	r0, r5
10008bac:	f7ff fbe1 	bl	10008372 <invoke_class_control>
10008bb0:	e042      	b.n	10008c38 <process_control_request+0x320>
10008bb2:	0050      	lsls	r0, r2, #1
10008bb4:	1882      	adds	r2, r0, r2
10008bb6:	00d2      	lsls	r2, r2, #3
10008bb8:	4833      	ldr	r0, [pc, #204]	@ (10008c88 <process_control_request+0x370>)
10008bba:	6806      	ldr	r6, [r0, #0]
10008bbc:	18b6      	adds	r6, r6, r2
10008bbe:	e7ee      	b.n	10008b9e <process_control_request+0x286>
10008bc0:	2600      	movs	r6, #0
10008bc2:	e7ec      	b.n	10008b9e <process_control_request+0x286>
10008bc4:	7863      	ldrb	r3, [r4, #1]
10008bc6:	2b01      	cmp	r3, #1
10008bc8:	d010      	beq.n	10008bec <process_control_request+0x2d4>
10008bca:	2b03      	cmp	r3, #3
10008bcc:	d00e      	beq.n	10008bec <process_control_request+0x2d4>
10008bce:	2b00      	cmp	r3, #0
10008bd0:	d14a      	bne.n	10008c68 <process_control_request+0x350>
10008bd2:	0028      	movs	r0, r5
10008bd4:	f7ff fe92 	bl	100088fc <usbd_edpt_stalled>
10008bd8:	466b      	mov	r3, sp
10008bda:	1d9a      	adds	r2, r3, #6
10008bdc:	8010      	strh	r0, [r2, #0]
10008bde:	2302      	movs	r3, #2
10008be0:	0021      	movs	r1, r4
10008be2:	0028      	movs	r0, r5
10008be4:	f000 f974 	bl	10008ed0 <tud_control_xfer>
10008be8:	2001      	movs	r0, #1
10008bea:	e025      	b.n	10008c38 <process_control_request+0x320>
10008bec:	78a0      	ldrb	r0, [r4, #2]
10008bee:	78e2      	ldrb	r2, [r4, #3]
10008bf0:	0212      	lsls	r2, r2, #8
10008bf2:	4302      	orrs	r2, r0
10008bf4:	d104      	bne.n	10008c00 <process_control_request+0x2e8>
10008bf6:	2b01      	cmp	r3, #1
10008bf8:	d019      	beq.n	10008c2e <process_control_request+0x316>
10008bfa:	0028      	movs	r0, r5
10008bfc:	f7ff fe36 	bl	1000886c <usbd_edpt_stall>
10008c00:	2e00      	cmp	r6, #0
10008c02:	d033      	beq.n	10008c6c <process_control_request+0x354>
10008c04:	0022      	movs	r2, r4
10008c06:	0031      	movs	r1, r6
10008c08:	0028      	movs	r0, r5
10008c0a:	f7ff fbb2 	bl	10008372 <invoke_class_control>
10008c0e:	2000      	movs	r0, #0
10008c10:	f000 f99c 	bl	10008f4c <usbd_control_set_complete_callback>
10008c14:	4b18      	ldr	r3, [pc, #96]	@ (10008c78 <process_control_request+0x360>)
10008c16:	2234      	movs	r2, #52	@ 0x34
10008c18:	5c9b      	ldrb	r3, [r3, r2]
10008c1a:	07db      	lsls	r3, r3, #31
10008c1c:	0fd8      	lsrs	r0, r3, #31
10008c1e:	2b00      	cmp	r3, #0
10008c20:	d10a      	bne.n	10008c38 <process_control_request+0x320>
10008c22:	0021      	movs	r1, r4
10008c24:	0028      	movs	r0, r5
10008c26:	f000 f93f 	bl	10008ea8 <tud_control_status>
10008c2a:	2001      	movs	r0, #1
10008c2c:	e004      	b.n	10008c38 <process_control_request+0x320>
10008c2e:	0028      	movs	r0, r5
10008c30:	f7ff fe40 	bl	100088b4 <usbd_edpt_clear_stall>
10008c34:	e7e4      	b.n	10008c00 <process_control_request+0x2e8>
10008c36:	2000      	movs	r0, #0
10008c38:	b002      	add	sp, #8
10008c3a:	bc80      	pop	{r7}
10008c3c:	46b8      	mov	r8, r7
10008c3e:	bdf0      	pop	{r4, r5, r6, r7, pc}
10008c40:	2000      	movs	r0, #0
10008c42:	e7f9      	b.n	10008c38 <process_control_request+0x320>
10008c44:	2000      	movs	r0, #0
10008c46:	e7f7      	b.n	10008c38 <process_control_request+0x320>
10008c48:	2000      	movs	r0, #0
10008c4a:	e7f5      	b.n	10008c38 <process_control_request+0x320>
10008c4c:	2000      	movs	r0, #0
10008c4e:	e7f3      	b.n	10008c38 <process_control_request+0x320>
10008c50:	2000      	movs	r0, #0
10008c52:	e7f1      	b.n	10008c38 <process_control_request+0x320>
10008c54:	2000      	movs	r0, #0
10008c56:	e7ef      	b.n	10008c38 <process_control_request+0x320>
10008c58:	2000      	movs	r0, #0
10008c5a:	e7ed      	b.n	10008c38 <process_control_request+0x320>
10008c5c:	2000      	movs	r0, #0
10008c5e:	e7eb      	b.n	10008c38 <process_control_request+0x320>
10008c60:	2000      	movs	r0, #0
10008c62:	e7e9      	b.n	10008c38 <process_control_request+0x320>
10008c64:	2000      	movs	r0, #0
10008c66:	e7e7      	b.n	10008c38 <process_control_request+0x320>
10008c68:	2000      	movs	r0, #0
10008c6a:	e7e5      	b.n	10008c38 <process_control_request+0x320>
10008c6c:	2001      	movs	r0, #1
10008c6e:	e7e3      	b.n	10008c38 <process_control_request+0x320>
10008c70:	1000caa4 	.word	0x1000caa4
10008c74:	00000000 	.word	0x00000000
10008c78:	20001bbc 	.word	0x20001bbc
10008c7c:	10007911 	.word	0x10007911
10008c80:	2000254c 	.word	0x2000254c
10008c84:	1000caf0 	.word	0x1000caf0
10008c88:	20001894 	.word	0x20001894

10008c8c <tud_task_ext>:
10008c8c:	b530      	push	{r4, r5, lr}
10008c8e:	b085      	sub	sp, #20
10008c90:	f000 fccf 	bl	10009632 <tusb_inited>
10008c94:	2800      	cmp	r0, #0
10008c96:	d108      	bne.n	10008caa <tud_task_ext+0x1e>
10008c98:	b005      	add	sp, #20
10008c9a:	bd30      	pop	{r4, r5, pc}
10008c9c:	ac01      	add	r4, sp, #4
10008c9e:	7820      	ldrb	r0, [r4, #0]
10008ca0:	f7ff fb61 	bl	10008366 <usbd_reset>
10008ca4:	7922      	ldrb	r2, [r4, #4]
10008ca6:	4b59      	ldr	r3, [pc, #356]	@ (10008e0c <tud_task_ext+0x180>)
10008ca8:	709a      	strb	r2, [r3, #2]
10008caa:	4b59      	ldr	r3, [pc, #356]	@ (10008e10 <tud_task_ext+0x184>)
10008cac:	681c      	ldr	r4, [r3, #0]
10008cae:	0020      	movs	r0, r4
10008cb0:	3014      	adds	r0, #20
10008cb2:	f7ff fb4d 	bl	10008350 <critical_section_enter_blocking>
10008cb6:	a901      	add	r1, sp, #4
10008cb8:	0020      	movs	r0, r4
10008cba:	f001 f838 	bl	10009d2e <tu_fifo_read>
10008cbe:	6962      	ldr	r2, [r4, #20]
10008cc0:	69a3      	ldr	r3, [r4, #24]
10008cc2:	f3bf 8f5f 	dmb	sy
10008cc6:	2100      	movs	r1, #0
10008cc8:	6011      	str	r1, [r2, #0]
10008cca:	f383 8810 	msr	PRIMASK, r3
10008cce:	2800      	cmp	r0, #0
10008cd0:	d0e2      	beq.n	10008c98 <tud_task_ext+0xc>
10008cd2:	ab01      	add	r3, sp, #4
10008cd4:	785b      	ldrb	r3, [r3, #1]
10008cd6:	2b08      	cmp	r3, #8
10008cd8:	d8e7      	bhi.n	10008caa <tud_task_ext+0x1e>
10008cda:	009b      	lsls	r3, r3, #2
10008cdc:	4a4d      	ldr	r2, [pc, #308]	@ (10008e14 <tud_task_ext+0x188>)
10008cde:	58d3      	ldr	r3, [r2, r3]
10008ce0:	469f      	mov	pc, r3
10008ce2:	ab01      	add	r3, sp, #4
10008ce4:	7818      	ldrb	r0, [r3, #0]
10008ce6:	f7ff fb3e 	bl	10008366 <usbd_reset>
10008cea:	4b4b      	ldr	r3, [pc, #300]	@ (10008e18 <tud_task_ext+0x18c>)
10008cec:	2b00      	cmp	r3, #0
10008cee:	d0dc      	beq.n	10008caa <tud_task_ext+0x1e>
10008cf0:	e000      	b.n	10008cf4 <tud_task_ext+0x68>
10008cf2:	bf00      	nop
10008cf4:	e7d9      	b.n	10008caa <tud_task_ext+0x1e>
10008cf6:	4b45      	ldr	r3, [pc, #276]	@ (10008e0c <tud_task_ext+0x180>)
10008cf8:	781a      	ldrb	r2, [r3, #0]
10008cfa:	2401      	movs	r4, #1
10008cfc:	2101      	movs	r1, #1
10008cfe:	430a      	orrs	r2, r1
10008d00:	701a      	strb	r2, [r3, #0]
10008d02:	2233      	movs	r2, #51	@ 0x33
10008d04:	5c99      	ldrb	r1, [r3, r2]
10008d06:	43a1      	bics	r1, r4
10008d08:	5499      	strb	r1, [r3, r2]
10008d0a:	5c99      	ldrb	r1, [r3, r2]
10008d0c:	2004      	movs	r0, #4
10008d0e:	4381      	bics	r1, r0
10008d10:	5499      	strb	r1, [r3, r2]
10008d12:	3201      	adds	r2, #1
10008d14:	5c99      	ldrb	r1, [r3, r2]
10008d16:	43a1      	bics	r1, r4
10008d18:	5499      	strb	r1, [r3, r2]
10008d1a:	5c99      	ldrb	r1, [r3, r2]
10008d1c:	4381      	bics	r1, r0
10008d1e:	5499      	strb	r1, [r3, r2]
10008d20:	ab01      	add	r3, sp, #4
10008d22:	7818      	ldrb	r0, [r3, #0]
10008d24:	a902      	add	r1, sp, #8
10008d26:	f7ff fdf7 	bl	10008918 <process_control_request>
10008d2a:	2800      	cmp	r0, #0
10008d2c:	d1bd      	bne.n	10008caa <tud_task_ext+0x1e>
10008d2e:	ac01      	add	r4, sp, #4
10008d30:	7820      	ldrb	r0, [r4, #0]
10008d32:	2100      	movs	r1, #0
10008d34:	f7ff fa56 	bl	100081e4 <dcd_edpt_stall>
10008d38:	7820      	ldrb	r0, [r4, #0]
10008d3a:	2180      	movs	r1, #128	@ 0x80
10008d3c:	f7ff fa52 	bl	100081e4 <dcd_edpt_stall>
10008d40:	e7b3      	b.n	10008caa <tud_task_ext+0x1e>
10008d42:	ab01      	add	r3, sp, #4
10008d44:	7919      	ldrb	r1, [r3, #4]
10008d46:	227f      	movs	r2, #127	@ 0x7f
10008d48:	400a      	ands	r2, r1
10008d4a:	09cc      	lsrs	r4, r1, #7
10008d4c:	4b2f      	ldr	r3, [pc, #188]	@ (10008e0c <tud_task_ext+0x180>)
10008d4e:	0050      	lsls	r0, r2, #1
10008d50:	181b      	adds	r3, r3, r0
10008d52:	191b      	adds	r3, r3, r4
10008d54:	3330      	adds	r3, #48	@ 0x30
10008d56:	78d8      	ldrb	r0, [r3, #3]
10008d58:	2501      	movs	r5, #1
10008d5a:	43a8      	bics	r0, r5
10008d5c:	70d8      	strb	r0, [r3, #3]
10008d5e:	78d8      	ldrb	r0, [r3, #3]
10008d60:	3503      	adds	r5, #3
10008d62:	43a8      	bics	r0, r5
10008d64:	70d8      	strb	r0, [r3, #3]
10008d66:	2a00      	cmp	r2, #0
10008d68:	d01c      	beq.n	10008da4 <tud_task_ext+0x118>
10008d6a:	4b28      	ldr	r3, [pc, #160]	@ (10008e0c <tud_task_ext+0x180>)
10008d6c:	0052      	lsls	r2, r2, #1
10008d6e:	189b      	adds	r3, r3, r2
10008d70:	191b      	adds	r3, r3, r4
10008d72:	7cdb      	ldrb	r3, [r3, #19]
10008d74:	4a29      	ldr	r2, [pc, #164]	@ (10008e1c <tud_task_ext+0x190>)
10008d76:	2a00      	cmp	r2, #0
10008d78:	d005      	beq.n	10008d86 <tud_task_ext+0xfa>
10008d7a:	4a29      	ldr	r2, [pc, #164]	@ (10008e20 <tud_task_ext+0x194>)
10008d7c:	7812      	ldrb	r2, [r2, #0]
10008d7e:	4293      	cmp	r3, r2
10008d80:	d317      	bcc.n	10008db2 <tud_task_ext+0x126>
10008d82:	1a9b      	subs	r3, r3, r2
10008d84:	b2db      	uxtb	r3, r3
10008d86:	2b00      	cmp	r3, #0
10008d88:	d000      	beq.n	10008d8c <tud_task_ext+0x100>
10008d8a:	e785      	b.n	10008c98 <tud_task_ext+0xc>
10008d8c:	005a      	lsls	r2, r3, #1
10008d8e:	18d3      	adds	r3, r2, r3
10008d90:	00db      	lsls	r3, r3, #3
10008d92:	4a24      	ldr	r2, [pc, #144]	@ (10008e24 <tud_task_ext+0x198>)
10008d94:	189b      	adds	r3, r3, r2
10008d96:	691c      	ldr	r4, [r3, #16]
10008d98:	a801      	add	r0, sp, #4
10008d9a:	7942      	ldrb	r2, [r0, #5]
10008d9c:	9b03      	ldr	r3, [sp, #12]
10008d9e:	7800      	ldrb	r0, [r0, #0]
10008da0:	47a0      	blx	r4
10008da2:	e782      	b.n	10008caa <tud_task_ext+0x1e>
10008da4:	a801      	add	r0, sp, #4
10008da6:	7942      	ldrb	r2, [r0, #5]
10008da8:	9b03      	ldr	r3, [sp, #12]
10008daa:	7800      	ldrb	r0, [r0, #0]
10008dac:	f000 f8e2 	bl	10008f74 <usbd_control_xfer_cb>
10008db0:	e77b      	b.n	10008caa <tud_task_ext+0x1e>
10008db2:	005a      	lsls	r2, r3, #1
10008db4:	18d2      	adds	r2, r2, r3
10008db6:	00d2      	lsls	r2, r2, #3
10008db8:	4b1b      	ldr	r3, [pc, #108]	@ (10008e28 <tud_task_ext+0x19c>)
10008dba:	681b      	ldr	r3, [r3, #0]
10008dbc:	189b      	adds	r3, r3, r2
10008dbe:	2b00      	cmp	r3, #0
10008dc0:	d1e9      	bne.n	10008d96 <tud_task_ext+0x10a>
10008dc2:	e769      	b.n	10008c98 <tud_task_ext+0xc>
10008dc4:	4b11      	ldr	r3, [pc, #68]	@ (10008e0c <tud_task_ext+0x180>)
10008dc6:	781b      	ldrb	r3, [r3, #0]
10008dc8:	07db      	lsls	r3, r3, #31
10008dca:	d400      	bmi.n	10008dce <tud_task_ext+0x142>
10008dcc:	e76d      	b.n	10008caa <tud_task_ext+0x1e>
10008dce:	4b17      	ldr	r3, [pc, #92]	@ (10008e2c <tud_task_ext+0x1a0>)
10008dd0:	2b00      	cmp	r3, #0
10008dd2:	d100      	bne.n	10008dd6 <tud_task_ext+0x14a>
10008dd4:	e769      	b.n	10008caa <tud_task_ext+0x1e>
10008dd6:	4b0d      	ldr	r3, [pc, #52]	@ (10008e0c <tud_task_ext+0x180>)
10008dd8:	7818      	ldrb	r0, [r3, #0]
10008dda:	0700      	lsls	r0, r0, #28
10008ddc:	0fc0      	lsrs	r0, r0, #31
10008dde:	e000      	b.n	10008de2 <tud_task_ext+0x156>
10008de0:	bf00      	nop
10008de2:	e762      	b.n	10008caa <tud_task_ext+0x1e>
10008de4:	4b09      	ldr	r3, [pc, #36]	@ (10008e0c <tud_task_ext+0x180>)
10008de6:	781b      	ldrb	r3, [r3, #0]
10008de8:	07db      	lsls	r3, r3, #31
10008dea:	d400      	bmi.n	10008dee <tud_task_ext+0x162>
10008dec:	e75d      	b.n	10008caa <tud_task_ext+0x1e>
10008dee:	4b10      	ldr	r3, [pc, #64]	@ (10008e30 <tud_task_ext+0x1a4>)
10008df0:	2b00      	cmp	r3, #0
10008df2:	d100      	bne.n	10008df6 <tud_task_ext+0x16a>
10008df4:	e759      	b.n	10008caa <tud_task_ext+0x1e>
10008df6:	e000      	b.n	10008dfa <tud_task_ext+0x16e>
10008df8:	bf00      	nop
10008dfa:	e756      	b.n	10008caa <tud_task_ext+0x1e>
10008dfc:	9b02      	ldr	r3, [sp, #8]
10008dfe:	2b00      	cmp	r3, #0
10008e00:	d100      	bne.n	10008e04 <tud_task_ext+0x178>
10008e02:	e752      	b.n	10008caa <tud_task_ext+0x1e>
10008e04:	9803      	ldr	r0, [sp, #12]
10008e06:	4798      	blx	r3
10008e08:	e74f      	b.n	10008caa <tud_task_ext+0x1e>
10008e0a:	46c0      	nop			@ (mov r8, r8)
10008e0c:	20001bbc 	.word	0x20001bbc
10008e10:	20001c14 	.word	0x20001c14
10008e14:	1000cacc 	.word	0x1000cacc
10008e18:	00000000 	.word	0x00000000
10008e1c:	10007911 	.word	0x10007911
10008e20:	2000254c 	.word	0x2000254c
10008e24:	1000caf0 	.word	0x1000caf0
10008e28:	20001894 	.word	0x20001894
	...

10008e34 <_status_stage_xact>:
10008e34:	b510      	push	{r4, lr}
10008e36:	2300      	movs	r3, #0
10008e38:	56cb      	ldrsb	r3, [r1, r3]
10008e3a:	2b00      	cmp	r3, #0
10008e3c:	db05      	blt.n	10008e4a <_status_stage_xact+0x16>
10008e3e:	2180      	movs	r1, #128	@ 0x80
10008e40:	2300      	movs	r3, #0
10008e42:	2200      	movs	r2, #0
10008e44:	f7ff fcd6 	bl	100087f4 <usbd_edpt_xfer>
10008e48:	bd10      	pop	{r4, pc}
10008e4a:	2100      	movs	r1, #0
10008e4c:	e7f8      	b.n	10008e40 <_status_stage_xact+0xc>
	...

10008e50 <_data_stage_xact>:
10008e50:	b5f8      	push	{r3, r4, r5, r6, r7, lr}
10008e52:	0005      	movs	r5, r0
10008e54:	4b12      	ldr	r3, [pc, #72]	@ (10008ea0 <_data_stage_xact+0x50>)
10008e56:	899f      	ldrh	r7, [r3, #12]
10008e58:	89de      	ldrh	r6, [r3, #14]
10008e5a:	1bb9      	subs	r1, r7, r6
10008e5c:	b289      	uxth	r1, r1
10008e5e:	1c0b      	adds	r3, r1, #0
10008e60:	2940      	cmp	r1, #64	@ 0x40
10008e62:	d900      	bls.n	10008e66 <_data_stage_xact+0x16>
10008e64:	2340      	movs	r3, #64	@ 0x40
10008e66:	b29c      	uxth	r4, r3
10008e68:	4b0d      	ldr	r3, [pc, #52]	@ (10008ea0 <_data_stage_xact+0x50>)
10008e6a:	781b      	ldrb	r3, [r3, #0]
10008e6c:	b25b      	sxtb	r3, r3
10008e6e:	2b00      	cmp	r3, #0
10008e70:	db08      	blt.n	10008e84 <_data_stage_xact+0x34>
10008e72:	2100      	movs	r1, #0
10008e74:	42b7      	cmp	r7, r6
10008e76:	d011      	beq.n	10008e9c <_data_stage_xact+0x4c>
10008e78:	4a0a      	ldr	r2, [pc, #40]	@ (10008ea4 <_data_stage_xact+0x54>)
10008e7a:	0023      	movs	r3, r4
10008e7c:	0028      	movs	r0, r5
10008e7e:	f7ff fcb9 	bl	100087f4 <usbd_edpt_xfer>
10008e82:	bdf8      	pop	{r3, r4, r5, r6, r7, pc}
10008e84:	42b7      	cmp	r7, r6
10008e86:	d101      	bne.n	10008e8c <_data_stage_xact+0x3c>
10008e88:	2180      	movs	r1, #128	@ 0x80
10008e8a:	e7f3      	b.n	10008e74 <_data_stage_xact+0x24>
10008e8c:	4b04      	ldr	r3, [pc, #16]	@ (10008ea0 <_data_stage_xact+0x50>)
10008e8e:	6899      	ldr	r1, [r3, #8]
10008e90:	4804      	ldr	r0, [pc, #16]	@ (10008ea4 <_data_stage_xact+0x54>)
10008e92:	0022      	movs	r2, r4
10008e94:	f7fe fa9c 	bl	100073d0 <__wrap___aeabi_memcpy>
10008e98:	2180      	movs	r1, #128	@ 0x80
10008e9a:	e7eb      	b.n	10008e74 <_data_stage_xact+0x24>
10008e9c:	2200      	movs	r2, #0
10008e9e:	e7ec      	b.n	10008e7a <_data_stage_xact+0x2a>
10008ea0:	20001b60 	.word	0x20001b60
10008ea4:	20001b7c 	.word	0x20001b7c

10008ea8 <tud_control_status>:
10008ea8:	b570      	push	{r4, r5, r6, lr}
10008eaa:	0006      	movs	r6, r0
10008eac:	000d      	movs	r5, r1
10008eae:	4c07      	ldr	r4, [pc, #28]	@ (10008ecc <tud_control_status+0x24>)
10008eb0:	2208      	movs	r2, #8
10008eb2:	0020      	movs	r0, r4
10008eb4:	f7fe fa8c 	bl	100073d0 <__wrap___aeabi_memcpy>
10008eb8:	2300      	movs	r3, #0
10008eba:	60a3      	str	r3, [r4, #8]
10008ebc:	81e3      	strh	r3, [r4, #14]
10008ebe:	81a3      	strh	r3, [r4, #12]
10008ec0:	0029      	movs	r1, r5
10008ec2:	0030      	movs	r0, r6
10008ec4:	f7ff ffb6 	bl	10008e34 <_status_stage_xact>
10008ec8:	bd70      	pop	{r4, r5, r6, pc}
10008eca:	46c0      	nop			@ (mov r8, r8)
10008ecc:	20001b60 	.word	0x20001b60

10008ed0 <tud_control_xfer>:
10008ed0:	b5f0      	push	{r4, r5, r6, r7, lr}
10008ed2:	46c6      	mov	lr, r8
10008ed4:	b500      	push	{lr}
10008ed6:	4680      	mov	r8, r0
10008ed8:	000c      	movs	r4, r1
10008eda:	0016      	movs	r6, r2
10008edc:	001d      	movs	r5, r3
10008ede:	4b15      	ldr	r3, [pc, #84]	@ (10008f34 <tud_control_xfer+0x64>)
10008ee0:	2208      	movs	r2, #8
10008ee2:	001f      	movs	r7, r3
10008ee4:	0018      	movs	r0, r3
10008ee6:	f7fe fa73 	bl	100073d0 <__wrap___aeabi_memcpy>
10008eea:	60be      	str	r6, [r7, #8]
10008eec:	2300      	movs	r3, #0
10008eee:	81fb      	strh	r3, [r7, #14]
10008ef0:	79a3      	ldrb	r3, [r4, #6]
10008ef2:	79e1      	ldrb	r1, [r4, #7]
10008ef4:	0209      	lsls	r1, r1, #8
10008ef6:	4319      	orrs	r1, r3
10008ef8:	1c0b      	adds	r3, r1, #0
10008efa:	42a9      	cmp	r1, r5
10008efc:	d900      	bls.n	10008f00 <tud_control_xfer+0x30>
10008efe:	1c2b      	adds	r3, r5, #0
10008f00:	b299      	uxth	r1, r3
10008f02:	4a0c      	ldr	r2, [pc, #48]	@ (10008f34 <tud_control_xfer+0x64>)
10008f04:	8193      	strh	r3, [r2, #12]
10008f06:	79a2      	ldrb	r2, [r4, #6]
10008f08:	79e3      	ldrb	r3, [r4, #7]
10008f0a:	021b      	lsls	r3, r3, #8
10008f0c:	4313      	orrs	r3, r2
10008f0e:	d009      	beq.n	10008f24 <tud_control_xfer+0x54>
10008f10:	2900      	cmp	r1, #0
10008f12:	d001      	beq.n	10008f18 <tud_control_xfer+0x48>
10008f14:	2e00      	cmp	r6, #0
10008f16:	d00a      	beq.n	10008f2e <tud_control_xfer+0x5e>
10008f18:	4640      	mov	r0, r8
10008f1a:	f7ff ff99 	bl	10008e50 <_data_stage_xact>
10008f1e:	bc80      	pop	{r7}
10008f20:	46b8      	mov	r8, r7
10008f22:	bdf0      	pop	{r4, r5, r6, r7, pc}
10008f24:	0021      	movs	r1, r4
10008f26:	4640      	mov	r0, r8
10008f28:	f7ff ff84 	bl	10008e34 <_status_stage_xact>
10008f2c:	e7f7      	b.n	10008f1e <tud_control_xfer+0x4e>
10008f2e:	2000      	movs	r0, #0
10008f30:	e7f5      	b.n	10008f1e <tud_control_xfer+0x4e>
10008f32:	46c0      	nop			@ (mov r8, r8)
10008f34:	20001b60 	.word	0x20001b60

10008f38 <usbd_control_reset>:
10008f38:	b510      	push	{r4, lr}
10008f3a:	4803      	ldr	r0, [pc, #12]	@ (10008f48 <usbd_control_reset+0x10>)
10008f3c:	2214      	movs	r2, #20
10008f3e:	2100      	movs	r1, #0
10008f40:	f7fe fa40 	bl	100073c4 <__wrap_memset>
10008f44:	bd10      	pop	{r4, pc}
10008f46:	46c0      	nop			@ (mov r8, r8)
10008f48:	20001b60 	.word	0x20001b60

10008f4c <usbd_control_set_complete_callback>:
10008f4c:	4b01      	ldr	r3, [pc, #4]	@ (10008f54 <usbd_control_set_complete_callback+0x8>)
10008f4e:	6118      	str	r0, [r3, #16]
10008f50:	4770      	bx	lr
10008f52:	46c0      	nop			@ (mov r8, r8)
10008f54:	20001b60 	.word	0x20001b60

10008f58 <usbd_control_set_request>:
10008f58:	b510      	push	{r4, lr}
10008f5a:	0001      	movs	r1, r0
10008f5c:	4c04      	ldr	r4, [pc, #16]	@ (10008f70 <usbd_control_set_request+0x18>)
10008f5e:	2208      	movs	r2, #8
10008f60:	0020      	movs	r0, r4
10008f62:	f7fe fa35 	bl	100073d0 <__wrap___aeabi_memcpy>
10008f66:	2300      	movs	r3, #0
10008f68:	60a3      	str	r3, [r4, #8]
10008f6a:	81e3      	strh	r3, [r4, #14]
10008f6c:	81a3      	strh	r3, [r4, #12]
10008f6e:	bd10      	pop	{r4, pc}
10008f70:	20001b60 	.word	0x20001b60

10008f74 <usbd_control_xfer_cb>:
10008f74:	b570      	push	{r4, r5, r6, lr}
10008f76:	0005      	movs	r5, r0
10008f78:	001c      	movs	r4, r3
10008f7a:	09c9      	lsrs	r1, r1, #7
10008f7c:	4b29      	ldr	r3, [pc, #164]	@ (10009024 <usbd_control_xfer_cb+0xb0>)
10008f7e:	781b      	ldrb	r3, [r3, #0]
10008f80:	09db      	lsrs	r3, r3, #7
10008f82:	428b      	cmp	r3, r1
10008f84:	d011      	beq.n	10008faa <usbd_control_xfer_cb+0x36>
10008f86:	2c00      	cmp	r4, #0
10008f88:	d147      	bne.n	1000901a <usbd_control_xfer_cb+0xa6>
10008f8a:	4b27      	ldr	r3, [pc, #156]	@ (10009028 <usbd_control_xfer_cb+0xb4>)
10008f8c:	2b00      	cmp	r3, #0
10008f8e:	d002      	beq.n	10008f96 <usbd_control_xfer_cb+0x22>
10008f90:	4924      	ldr	r1, [pc, #144]	@ (10009024 <usbd_control_xfer_cb+0xb0>)
10008f92:	f7ff f8db 	bl	1000814c <dcd_edpt0_status_complete>
10008f96:	4b23      	ldr	r3, [pc, #140]	@ (10009024 <usbd_control_xfer_cb+0xb0>)
10008f98:	691b      	ldr	r3, [r3, #16]
10008f9a:	2b00      	cmp	r3, #0
10008f9c:	d003      	beq.n	10008fa6 <usbd_control_xfer_cb+0x32>
10008f9e:	4a21      	ldr	r2, [pc, #132]	@ (10009024 <usbd_control_xfer_cb+0xb0>)
10008fa0:	2103      	movs	r1, #3
10008fa2:	0028      	movs	r0, r5
10008fa4:	4798      	blx	r3
10008fa6:	2001      	movs	r0, #1
10008fa8:	bd70      	pop	{r4, r5, r6, pc}
10008faa:	4b1e      	ldr	r3, [pc, #120]	@ (10009024 <usbd_control_xfer_cb+0xb0>)
10008fac:	781b      	ldrb	r3, [r3, #0]
10008fae:	b25b      	sxtb	r3, r3
10008fb0:	2b00      	cmp	r3, #0
10008fb2:	db07      	blt.n	10008fc4 <usbd_control_xfer_cb+0x50>
10008fb4:	4b1b      	ldr	r3, [pc, #108]	@ (10009024 <usbd_control_xfer_cb+0xb0>)
10008fb6:	6898      	ldr	r0, [r3, #8]
10008fb8:	2800      	cmp	r0, #0
10008fba:	d030      	beq.n	1000901e <usbd_control_xfer_cb+0xaa>
10008fbc:	491b      	ldr	r1, [pc, #108]	@ (1000902c <usbd_control_xfer_cb+0xb8>)
10008fbe:	0022      	movs	r2, r4
10008fc0:	f7fe fa06 	bl	100073d0 <__wrap___aeabi_memcpy>
10008fc4:	4a17      	ldr	r2, [pc, #92]	@ (10009024 <usbd_control_xfer_cb+0xb0>)
10008fc6:	89d3      	ldrh	r3, [r2, #14]
10008fc8:	b2a1      	uxth	r1, r4
10008fca:	185b      	adds	r3, r3, r1
10008fcc:	b29b      	uxth	r3, r3
10008fce:	81d3      	strh	r3, [r2, #14]
10008fd0:	6891      	ldr	r1, [r2, #8]
10008fd2:	1909      	adds	r1, r1, r4
10008fd4:	6091      	str	r1, [r2, #8]
10008fd6:	88d2      	ldrh	r2, [r2, #6]
10008fd8:	4293      	cmp	r3, r2
10008fda:	d001      	beq.n	10008fe0 <usbd_control_xfer_cb+0x6c>
10008fdc:	2c3f      	cmp	r4, #63	@ 0x3f
10008fde:	d818      	bhi.n	10009012 <usbd_control_xfer_cb+0x9e>
10008fe0:	4b10      	ldr	r3, [pc, #64]	@ (10009024 <usbd_control_xfer_cb+0xb0>)
10008fe2:	691b      	ldr	r3, [r3, #16]
10008fe4:	2b00      	cmp	r3, #0
10008fe6:	d005      	beq.n	10008ff4 <usbd_control_xfer_cb+0x80>
10008fe8:	4a0e      	ldr	r2, [pc, #56]	@ (10009024 <usbd_control_xfer_cb+0xb0>)
10008fea:	2102      	movs	r1, #2
10008fec:	0028      	movs	r0, r5
10008fee:	4798      	blx	r3
10008ff0:	2800      	cmp	r0, #0
10008ff2:	d004      	beq.n	10008ffe <usbd_control_xfer_cb+0x8a>
10008ff4:	490b      	ldr	r1, [pc, #44]	@ (10009024 <usbd_control_xfer_cb+0xb0>)
10008ff6:	0028      	movs	r0, r5
10008ff8:	f7ff ff1c 	bl	10008e34 <_status_stage_xact>
10008ffc:	e7d4      	b.n	10008fa8 <usbd_control_xfer_cb+0x34>
10008ffe:	2100      	movs	r1, #0
10009000:	0028      	movs	r0, r5
10009002:	f7ff f8ef 	bl	100081e4 <dcd_edpt_stall>
10009006:	2180      	movs	r1, #128	@ 0x80
10009008:	0028      	movs	r0, r5
1000900a:	f7ff f8eb 	bl	100081e4 <dcd_edpt_stall>
1000900e:	2001      	movs	r0, #1
10009010:	e7ca      	b.n	10008fa8 <usbd_control_xfer_cb+0x34>
10009012:	0028      	movs	r0, r5
10009014:	f7ff ff1c 	bl	10008e50 <_data_stage_xact>
10009018:	e7c6      	b.n	10008fa8 <usbd_control_xfer_cb+0x34>
1000901a:	2000      	movs	r0, #0
1000901c:	e7c4      	b.n	10008fa8 <usbd_control_xfer_cb+0x34>
1000901e:	2000      	movs	r0, #0
10009020:	e7c2      	b.n	10008fa8 <usbd_control_xfer_cb+0x34>
10009022:	46c0      	nop			@ (mov r8, r8)
10009024:	20001b60 	.word	0x20001b60
10009028:	1000814d 	.word	0x1000814d
1000902c:	20001b7c 	.word	0x20001b7c

10009030 <_prep_out_transaction>:
10009030:	b570      	push	{r4, r5, r6, lr}
10009032:	0004      	movs	r4, r0
10009034:	0005      	movs	r5, r0
10009036:	3510      	adds	r5, #16
10009038:	0028      	movs	r0, r5
1000903a:	f000 fe62 	bl	10009d02 <tu_fifo_remaining>
1000903e:	283f      	cmp	r0, #63	@ 0x3f
10009040:	d801      	bhi.n	10009046 <_prep_out_transaction+0x16>
10009042:	2000      	movs	r0, #0
10009044:	bd70      	pop	{r4, r5, r6, pc}
10009046:	78e1      	ldrb	r1, [r4, #3]
10009048:	2000      	movs	r0, #0
1000904a:	f7ff fbab 	bl	100087a4 <usbd_edpt_claim>
1000904e:	2800      	cmp	r0, #0
10009050:	d0f8      	beq.n	10009044 <_prep_out_transaction+0x14>
10009052:	0028      	movs	r0, r5
10009054:	f000 fe55 	bl	10009d02 <tu_fifo_remaining>
10009058:	283f      	cmp	r0, #63	@ 0x3f
1000905a:	d908      	bls.n	1000906e <_prep_out_transaction+0x3e>
1000905c:	2392      	movs	r3, #146	@ 0x92
1000905e:	009b      	lsls	r3, r3, #2
10009060:	18e2      	adds	r2, r4, r3
10009062:	78e1      	ldrb	r1, [r4, #3]
10009064:	2340      	movs	r3, #64	@ 0x40
10009066:	2000      	movs	r0, #0
10009068:	f7ff fbc4 	bl	100087f4 <usbd_edpt_xfer>
1000906c:	e7ea      	b.n	10009044 <_prep_out_transaction+0x14>
1000906e:	78e1      	ldrb	r1, [r4, #3]
10009070:	2000      	movs	r0, #0
10009072:	f7ff fbab 	bl	100087cc <usbd_edpt_release>
10009076:	2000      	movs	r0, #0
10009078:	e7e4      	b.n	10009044 <_prep_out_transaction+0x14>
	...

1000907c <tud_cdc_n_connected>:
1000907c:	b510      	push	{r4, lr}
1000907e:	0004      	movs	r4, r0
10009080:	f7ff faae 	bl	100085e0 <tud_mounted>
10009084:	2800      	cmp	r0, #0
10009086:	d101      	bne.n	1000908c <tud_cdc_n_connected+0x10>
10009088:	2000      	movs	r0, #0
1000908a:	bd10      	pop	{r4, pc}
1000908c:	f7ff fab0 	bl	100085f0 <tud_suspended>
10009090:	2800      	cmp	r0, #0
10009092:	d109      	bne.n	100090a8 <tud_cdc_n_connected+0x2c>
10009094:	4b06      	ldr	r3, [pc, #24]	@ (100090b0 <tud_cdc_n_connected+0x34>)
10009096:	22b2      	movs	r2, #178	@ 0xb2
10009098:	0092      	lsls	r2, r2, #2
1000909a:	4362      	muls	r2, r4
1000909c:	189b      	adds	r3, r3, r2
1000909e:	791b      	ldrb	r3, [r3, #4]
100090a0:	07db      	lsls	r3, r3, #31
100090a2:	d503      	bpl.n	100090ac <tud_cdc_n_connected+0x30>
100090a4:	3001      	adds	r0, #1
100090a6:	e7f0      	b.n	1000908a <tud_cdc_n_connected+0xe>
100090a8:	2000      	movs	r0, #0
100090aa:	e7ee      	b.n	1000908a <tud_cdc_n_connected+0xe>
100090ac:	2000      	movs	r0, #0
100090ae:	e7ec      	b.n	1000908a <tud_cdc_n_connected+0xe>
100090b0:	20001898 	.word	0x20001898

100090b4 <tud_cdc_n_available>:
100090b4:	b510      	push	{r4, lr}
100090b6:	23b2      	movs	r3, #178	@ 0xb2
100090b8:	009b      	lsls	r3, r3, #2
100090ba:	4343      	muls	r3, r0
100090bc:	3310      	adds	r3, #16
100090be:	4802      	ldr	r0, [pc, #8]	@ (100090c8 <tud_cdc_n_available+0x14>)
100090c0:	1818      	adds	r0, r3, r0
100090c2:	f000 fdee 	bl	10009ca2 <tu_fifo_count>
100090c6:	bd10      	pop	{r4, pc}
100090c8:	20001898 	.word	0x20001898

100090cc <tud_cdc_n_read>:
100090cc:	b570      	push	{r4, r5, r6, lr}
100090ce:	23b2      	movs	r3, #178	@ 0xb2
100090d0:	009b      	lsls	r3, r3, #2
100090d2:	4358      	muls	r0, r3
100090d4:	4b06      	ldr	r3, [pc, #24]	@ (100090f0 <tud_cdc_n_read+0x24>)
100090d6:	18c5      	adds	r5, r0, r3
100090d8:	b292      	uxth	r2, r2
100090da:	3010      	adds	r0, #16
100090dc:	18c0      	adds	r0, r0, r3
100090de:	f000 fe47 	bl	10009d70 <tu_fifo_read_n>
100090e2:	0004      	movs	r4, r0
100090e4:	0028      	movs	r0, r5
100090e6:	f7ff ffa3 	bl	10009030 <_prep_out_transaction>
100090ea:	0020      	movs	r0, r4
100090ec:	bd70      	pop	{r4, r5, r6, pc}
100090ee:	46c0      	nop			@ (mov r8, r8)
100090f0:	20001898 	.word	0x20001898

100090f4 <tud_cdc_n_write_flush>:
100090f4:	b570      	push	{r4, r5, r6, lr}
100090f6:	0005      	movs	r5, r0
100090f8:	f7ff fa72 	bl	100085e0 <tud_mounted>
100090fc:	2800      	cmp	r0, #0
100090fe:	d104      	bne.n	1000910a <tud_cdc_n_write_flush+0x16>
10009100:	2300      	movs	r3, #0
10009102:	2b00      	cmp	r3, #0
10009104:	d109      	bne.n	1000911a <tud_cdc_n_write_flush+0x26>
10009106:	2000      	movs	r0, #0
10009108:	bd70      	pop	{r4, r5, r6, pc}
1000910a:	f7ff fa71 	bl	100085f0 <tud_suspended>
1000910e:	2800      	cmp	r0, #0
10009110:	d101      	bne.n	10009116 <tud_cdc_n_write_flush+0x22>
10009112:	2301      	movs	r3, #1
10009114:	e7f5      	b.n	10009102 <tud_cdc_n_write_flush+0xe>
10009116:	2300      	movs	r3, #0
10009118:	e7f3      	b.n	10009102 <tud_cdc_n_write_flush+0xe>
1000911a:	24b2      	movs	r4, #178	@ 0xb2
1000911c:	00a4      	lsls	r4, r4, #2
1000911e:	436c      	muls	r4, r5
10009120:	3420      	adds	r4, #32
10009122:	4b21      	ldr	r3, [pc, #132]	@ (100091a8 <tud_cdc_n_write_flush+0xb4>)
10009124:	18e4      	adds	r4, r4, r3
10009126:	3404      	adds	r4, #4
10009128:	0020      	movs	r0, r4
1000912a:	f000 fdba 	bl	10009ca2 <tu_fifo_count>
1000912e:	2800      	cmp	r0, #0
10009130:	d101      	bne.n	10009136 <tud_cdc_n_write_flush+0x42>
10009132:	2000      	movs	r0, #0
10009134:	e7e8      	b.n	10009108 <tud_cdc_n_write_flush+0x14>
10009136:	4b1c      	ldr	r3, [pc, #112]	@ (100091a8 <tud_cdc_n_write_flush+0xb4>)
10009138:	22b2      	movs	r2, #178	@ 0xb2
1000913a:	0092      	lsls	r2, r2, #2
1000913c:	436a      	muls	r2, r5
1000913e:	189b      	adds	r3, r3, r2
10009140:	7899      	ldrb	r1, [r3, #2]
10009142:	2000      	movs	r0, #0
10009144:	f7ff fb2e 	bl	100087a4 <usbd_edpt_claim>
10009148:	2800      	cmp	r0, #0
1000914a:	d101      	bne.n	10009150 <tud_cdc_n_write_flush+0x5c>
1000914c:	2000      	movs	r0, #0
1000914e:	e7db      	b.n	10009108 <tud_cdc_n_write_flush+0x14>
10009150:	26b2      	movs	r6, #178	@ 0xb2
10009152:	00b6      	lsls	r6, r6, #2
10009154:	436e      	muls	r6, r5
10009156:	23a2      	movs	r3, #162	@ 0xa2
10009158:	009b      	lsls	r3, r3, #2
1000915a:	469c      	mov	ip, r3
1000915c:	4466      	add	r6, ip
1000915e:	4b12      	ldr	r3, [pc, #72]	@ (100091a8 <tud_cdc_n_write_flush+0xb4>)
10009160:	18f6      	adds	r6, r6, r3
10009162:	2240      	movs	r2, #64	@ 0x40
10009164:	0031      	movs	r1, r6
10009166:	0020      	movs	r0, r4
10009168:	f000 fe02 	bl	10009d70 <tu_fifo_read_n>
1000916c:	1e04      	subs	r4, r0, #0
1000916e:	d00e      	beq.n	1000918e <tud_cdc_n_write_flush+0x9a>
10009170:	4b0d      	ldr	r3, [pc, #52]	@ (100091a8 <tud_cdc_n_write_flush+0xb4>)
10009172:	22b2      	movs	r2, #178	@ 0xb2
10009174:	0092      	lsls	r2, r2, #2
10009176:	436a      	muls	r2, r5
10009178:	189b      	adds	r3, r3, r2
1000917a:	7899      	ldrb	r1, [r3, #2]
1000917c:	0003      	movs	r3, r0
1000917e:	0032      	movs	r2, r6
10009180:	2000      	movs	r0, #0
10009182:	f7ff fb37 	bl	100087f4 <usbd_edpt_xfer>
10009186:	2800      	cmp	r0, #0
10009188:	d00c      	beq.n	100091a4 <tud_cdc_n_write_flush+0xb0>
1000918a:	0020      	movs	r0, r4
1000918c:	e7bc      	b.n	10009108 <tud_cdc_n_write_flush+0x14>
1000918e:	4b06      	ldr	r3, [pc, #24]	@ (100091a8 <tud_cdc_n_write_flush+0xb4>)
10009190:	22b2      	movs	r2, #178	@ 0xb2
10009192:	0092      	lsls	r2, r2, #2
10009194:	436a      	muls	r2, r5
10009196:	189b      	adds	r3, r3, r2
10009198:	7899      	ldrb	r1, [r3, #2]
1000919a:	2000      	movs	r0, #0
1000919c:	f7ff fb16 	bl	100087cc <usbd_edpt_release>
100091a0:	2000      	movs	r0, #0
100091a2:	e7b1      	b.n	10009108 <tud_cdc_n_write_flush+0x14>
100091a4:	2000      	movs	r0, #0
100091a6:	e7af      	b.n	10009108 <tud_cdc_n_write_flush+0x14>
100091a8:	20001898 	.word	0x20001898

100091ac <tud_cdc_n_write>:
100091ac:	b570      	push	{r4, r5, r6, lr}
100091ae:	0005      	movs	r5, r0
100091b0:	24b2      	movs	r4, #178	@ 0xb2
100091b2:	00a4      	lsls	r4, r4, #2
100091b4:	4344      	muls	r4, r0
100091b6:	3420      	adds	r4, #32
100091b8:	4b09      	ldr	r3, [pc, #36]	@ (100091e0 <tud_cdc_n_write+0x34>)
100091ba:	18e4      	adds	r4, r4, r3
100091bc:	3404      	adds	r4, #4
100091be:	b292      	uxth	r2, r2
100091c0:	0020      	movs	r0, r4
100091c2:	f000 fe0c 	bl	10009dde <tu_fifo_write_n>
100091c6:	0006      	movs	r6, r0
100091c8:	0020      	movs	r0, r4
100091ca:	f000 fd6a 	bl	10009ca2 <tu_fifo_count>
100091ce:	283f      	cmp	r0, #63	@ 0x3f
100091d0:	d801      	bhi.n	100091d6 <tud_cdc_n_write+0x2a>
100091d2:	0030      	movs	r0, r6
100091d4:	bd70      	pop	{r4, r5, r6, pc}
100091d6:	0028      	movs	r0, r5
100091d8:	f7ff ff8c 	bl	100090f4 <tud_cdc_n_write_flush>
100091dc:	e7f9      	b.n	100091d2 <tud_cdc_n_write+0x26>
100091de:	46c0      	nop			@ (mov r8, r8)
100091e0:	20001898 	.word	0x20001898

100091e4 <tud_cdc_n_write_available>:
100091e4:	b510      	push	{r4, lr}
100091e6:	23b2      	movs	r3, #178	@ 0xb2
100091e8:	009b      	lsls	r3, r3, #2
100091ea:	4358      	muls	r0, r3
100091ec:	3020      	adds	r0, #32
100091ee:	4b03      	ldr	r3, [pc, #12]	@ (100091fc <tud_cdc_n_write_available+0x18>)
100091f0:	18c0      	adds	r0, r0, r3
100091f2:	3004      	adds	r0, #4
100091f4:	f000 fd85 	bl	10009d02 <tu_fifo_remaining>
100091f8:	bd10      	pop	{r4, pc}
100091fa:	46c0      	nop			@ (mov r8, r8)
100091fc:	20001898 	.word	0x20001898

10009200 <cdcd_init>:
10009200:	b5f0      	push	{r4, r5, r6, r7, lr}
10009202:	46ce      	mov	lr, r9
10009204:	4647      	mov	r7, r8
10009206:	b580      	push	{r7, lr}
10009208:	b083      	sub	sp, #12
1000920a:	482a      	ldr	r0, [pc, #168]	@ (100092b4 <cdcd_init+0xb4>)
1000920c:	22b2      	movs	r2, #178	@ 0xb2
1000920e:	0092      	lsls	r2, r2, #2
10009210:	2100      	movs	r1, #0
10009212:	f7fe f8d7 	bl	100073c4 <__wrap_memset>
10009216:	2700      	movs	r7, #0
10009218:	2f00      	cmp	r7, #0
1000921a:	d004      	beq.n	10009226 <cdcd_init+0x26>
1000921c:	b003      	add	sp, #12
1000921e:	bcc0      	pop	{r6, r7}
10009220:	46b9      	mov	r9, r7
10009222:	46b0      	mov	r8, r6
10009224:	bdf0      	pop	{r4, r5, r6, r7, pc}
10009226:	4e23      	ldr	r6, [pc, #140]	@ (100092b4 <cdcd_init+0xb4>)
10009228:	24b2      	movs	r4, #178	@ 0xb2
1000922a:	00a4      	lsls	r4, r4, #2
1000922c:	437c      	muls	r4, r7
1000922e:	1935      	adds	r5, r6, r4
10009230:	23ff      	movs	r3, #255	@ 0xff
10009232:	716b      	strb	r3, [r5, #5]
10009234:	2300      	movs	r3, #0
10009236:	4698      	mov	r8, r3
10009238:	4a1f      	ldr	r2, [pc, #124]	@ (100092b8 <cdcd_init+0xb8>)
1000923a:	80ea      	strh	r2, [r5, #6]
1000923c:	2201      	movs	r2, #1
1000923e:	812a      	strh	r2, [r5, #8]
10009240:	72ab      	strb	r3, [r5, #10]
10009242:	72eb      	strb	r3, [r5, #11]
10009244:	2308      	movs	r3, #8
10009246:	732b      	strb	r3, [r5, #12]
10009248:	0021      	movs	r1, r4
1000924a:	3138      	adds	r1, #56	@ 0x38
1000924c:	1989      	adds	r1, r1, r6
1000924e:	33f8      	adds	r3, #248	@ 0xf8
10009250:	4699      	mov	r9, r3
10009252:	0020      	movs	r0, r4
10009254:	3010      	adds	r0, #16
10009256:	1980      	adds	r0, r0, r6
10009258:	4643      	mov	r3, r8
1000925a:	9300      	str	r3, [sp, #0]
1000925c:	3301      	adds	r3, #1
1000925e:	464a      	mov	r2, r9
10009260:	f000 fce1 	bl	10009c26 <tu_fifo_config>
10009264:	0021      	movs	r1, r4
10009266:	3139      	adds	r1, #57	@ 0x39
10009268:	31ff      	adds	r1, #255	@ 0xff
1000926a:	1989      	adds	r1, r1, r6
1000926c:	0020      	movs	r0, r4
1000926e:	3020      	adds	r0, #32
10009270:	1980      	adds	r0, r0, r6
10009272:	3004      	adds	r0, #4
10009274:	2301      	movs	r3, #1
10009276:	9300      	str	r3, [sp, #0]
10009278:	464a      	mov	r2, r9
1000927a:	f000 fcd4 	bl	10009c26 <tu_fifo_config>
1000927e:	238e      	movs	r3, #142	@ 0x8e
10009280:	009b      	lsls	r3, r3, #2
10009282:	18e3      	adds	r3, r4, r3
10009284:	4699      	mov	r9, r3
10009286:	44b1      	add	r9, r6
10009288:	4648      	mov	r0, r9
1000928a:	f7f9 ff76 	bl	1000317a <mutex_init>
1000928e:	4643      	mov	r3, r8
10009290:	61eb      	str	r3, [r5, #28]
10009292:	464b      	mov	r3, r9
10009294:	622b      	str	r3, [r5, #32]
10009296:	2390      	movs	r3, #144	@ 0x90
10009298:	009b      	lsls	r3, r3, #2
1000929a:	469c      	mov	ip, r3
1000929c:	4464      	add	r4, ip
1000929e:	19a4      	adds	r4, r4, r6
100092a0:	0020      	movs	r0, r4
100092a2:	f7f9 ff6a 	bl	1000317a <mutex_init>
100092a6:	632c      	str	r4, [r5, #48]	@ 0x30
100092a8:	4643      	mov	r3, r8
100092aa:	636b      	str	r3, [r5, #52]	@ 0x34
100092ac:	3701      	adds	r7, #1
100092ae:	b2ff      	uxtb	r7, r7
100092b0:	e7b2      	b.n	10009218 <cdcd_init+0x18>
100092b2:	46c0      	nop			@ (mov r8, r8)
100092b4:	20001898 	.word	0x20001898
100092b8:	ffffc200 	.word	0xffffc200

100092bc <cdcd_reset>:
100092bc:	b570      	push	{r4, r5, r6, lr}
100092be:	2500      	movs	r5, #0
100092c0:	2d00      	cmp	r5, #0
100092c2:	d000      	beq.n	100092c6 <cdcd_reset+0xa>
100092c4:	bd70      	pop	{r4, r5, r6, pc}
100092c6:	24b2      	movs	r4, #178	@ 0xb2
100092c8:	00a4      	lsls	r4, r4, #2
100092ca:	436c      	muls	r4, r5
100092cc:	4e0b      	ldr	r6, [pc, #44]	@ (100092fc <cdcd_reset+0x40>)
100092ce:	19a0      	adds	r0, r4, r6
100092d0:	2205      	movs	r2, #5
100092d2:	2100      	movs	r1, #0
100092d4:	f7fe f876 	bl	100073c4 <__wrap_memset>
100092d8:	0020      	movs	r0, r4
100092da:	3010      	adds	r0, #16
100092dc:	1980      	adds	r0, r0, r6
100092de:	f000 fd83 	bl	10009de8 <tu_fifo_clear>
100092e2:	3420      	adds	r4, #32
100092e4:	19a4      	adds	r4, r4, r6
100092e6:	3404      	adds	r4, #4
100092e8:	0020      	movs	r0, r4
100092ea:	f000 fd7d 	bl	10009de8 <tu_fifo_clear>
100092ee:	2101      	movs	r1, #1
100092f0:	0020      	movs	r0, r4
100092f2:	f000 fd98 	bl	10009e26 <tu_fifo_set_overwritable>
100092f6:	3501      	adds	r5, #1
100092f8:	b2ed      	uxtb	r5, r5
100092fa:	e7e1      	b.n	100092c0 <cdcd_reset+0x4>
100092fc:	20001898 	.word	0x20001898

10009300 <cdcd_open>:
10009300:	b5f0      	push	{r4, r5, r6, r7, lr}
10009302:	b083      	sub	sp, #12
10009304:	0004      	movs	r4, r0
10009306:	794b      	ldrb	r3, [r1, #5]
10009308:	2b02      	cmp	r3, #2
1000930a:	d14e      	bne.n	100093aa <cdcd_open+0xaa>
1000930c:	798b      	ldrb	r3, [r1, #6]
1000930e:	2b02      	cmp	r3, #2
10009310:	d14f      	bne.n	100093b2 <cdcd_open+0xb2>
10009312:	2300      	movs	r3, #0
10009314:	2b00      	cmp	r3, #0
10009316:	d001      	beq.n	1000931c <cdcd_open+0x1c>
10009318:	2500      	movs	r5, #0
1000931a:	e047      	b.n	100093ac <cdcd_open+0xac>
1000931c:	4828      	ldr	r0, [pc, #160]	@ (100093c0 <cdcd_open+0xc0>)
1000931e:	25b2      	movs	r5, #178	@ 0xb2
10009320:	00ad      	lsls	r5, r5, #2
10009322:	435d      	muls	r5, r3
10009324:	1940      	adds	r0, r0, r5
10009326:	7880      	ldrb	r0, [r0, #2]
10009328:	2800      	cmp	r0, #0
1000932a:	d002      	beq.n	10009332 <cdcd_open+0x32>
1000932c:	3301      	adds	r3, #1
1000932e:	b2db      	uxtb	r3, r3
10009330:	e7f0      	b.n	10009314 <cdcd_open+0x14>
10009332:	4b23      	ldr	r3, [pc, #140]	@ (100093c0 <cdcd_open+0xc0>)
10009334:	18ee      	adds	r6, r5, r3
10009336:	788b      	ldrb	r3, [r1, #2]
10009338:	7033      	strb	r3, [r6, #0]
1000933a:	780f      	ldrb	r7, [r1, #0]
1000933c:	19cf      	adds	r7, r1, r7
1000933e:	2509      	movs	r5, #9
10009340:	e003      	b.n	1000934a <cdcd_open+0x4a>
10009342:	783b      	ldrb	r3, [r7, #0]
10009344:	195d      	adds	r5, r3, r5
10009346:	b2ad      	uxth	r5, r5
10009348:	18ff      	adds	r7, r7, r3
1000934a:	787b      	ldrb	r3, [r7, #1]
1000934c:	2b24      	cmp	r3, #36	@ 0x24
1000934e:	d101      	bne.n	10009354 <cdcd_open+0x54>
10009350:	4295      	cmp	r5, r2
10009352:	d9f6      	bls.n	10009342 <cdcd_open+0x42>
10009354:	2b05      	cmp	r3, #5
10009356:	d009      	beq.n	1000936c <cdcd_open+0x6c>
10009358:	787b      	ldrb	r3, [r7, #1]
1000935a:	2b04      	cmp	r3, #4
1000935c:	d102      	bne.n	10009364 <cdcd_open+0x64>
1000935e:	797b      	ldrb	r3, [r7, #5]
10009360:	2b0a      	cmp	r3, #10
10009362:	d010      	beq.n	10009386 <cdcd_open+0x86>
10009364:	0030      	movs	r0, r6
10009366:	f7ff fe63 	bl	10009030 <_prep_out_transaction>
1000936a:	e01f      	b.n	100093ac <cdcd_open+0xac>
1000936c:	0039      	movs	r1, r7
1000936e:	0020      	movs	r0, r4
10009370:	f7ff f9cc 	bl	1000870c <usbd_edpt_open>
10009374:	2800      	cmp	r0, #0
10009376:	d01e      	beq.n	100093b6 <cdcd_open+0xb6>
10009378:	78bb      	ldrb	r3, [r7, #2]
1000937a:	7073      	strb	r3, [r6, #1]
1000937c:	783b      	ldrb	r3, [r7, #0]
1000937e:	195d      	adds	r5, r3, r5
10009380:	b2ad      	uxth	r5, r5
10009382:	18ff      	adds	r7, r7, r3
10009384:	e7e8      	b.n	10009358 <cdcd_open+0x58>
10009386:	7839      	ldrb	r1, [r7, #0]
10009388:	194d      	adds	r5, r1, r5
1000938a:	b2ad      	uxth	r5, r5
1000938c:	1879      	adds	r1, r7, r1
1000938e:	1cb3      	adds	r3, r6, #2
10009390:	9301      	str	r3, [sp, #4]
10009392:	1cf3      	adds	r3, r6, #3
10009394:	9300      	str	r3, [sp, #0]
10009396:	2302      	movs	r3, #2
10009398:	2202      	movs	r2, #2
1000939a:	0020      	movs	r0, r4
1000939c:	f7ff f9d0 	bl	10008740 <usbd_open_edpt_pair>
100093a0:	2800      	cmp	r0, #0
100093a2:	d00a      	beq.n	100093ba <cdcd_open+0xba>
100093a4:	350e      	adds	r5, #14
100093a6:	b2ad      	uxth	r5, r5
100093a8:	e7dc      	b.n	10009364 <cdcd_open+0x64>
100093aa:	2500      	movs	r5, #0
100093ac:	0028      	movs	r0, r5
100093ae:	b003      	add	sp, #12
100093b0:	bdf0      	pop	{r4, r5, r6, r7, pc}
100093b2:	2500      	movs	r5, #0
100093b4:	e7fa      	b.n	100093ac <cdcd_open+0xac>
100093b6:	2500      	movs	r5, #0
100093b8:	e7f8      	b.n	100093ac <cdcd_open+0xac>
100093ba:	2500      	movs	r5, #0
100093bc:	e7f6      	b.n	100093ac <cdcd_open+0xac>
100093be:	46c0      	nop			@ (mov r8, r8)
100093c0:	20001898 	.word	0x20001898

100093c4 <cdcd_control_xfer_cb>:
100093c4:	b5f8      	push	{r3, r4, r5, r6, r7, lr}
100093c6:	0014      	movs	r4, r2
100093c8:	7812      	ldrb	r2, [r2, #0]
100093ca:	2360      	movs	r3, #96	@ 0x60
100093cc:	4013      	ands	r3, r2
100093ce:	2b20      	cmp	r3, #32
100093d0:	d000      	beq.n	100093d4 <cdcd_control_xfer_cb+0x10>
100093d2:	e07f      	b.n	100094d4 <cdcd_control_xfer_cb+0x110>
100093d4:	4a44      	ldr	r2, [pc, #272]	@ (100094e8 <cdcd_control_xfer_cb+0x124>)
100093d6:	2500      	movs	r5, #0
100093d8:	2d00      	cmp	r5, #0
100093da:	d000      	beq.n	100093de <cdcd_control_xfer_cb+0x1a>
100093dc:	e07c      	b.n	100094d8 <cdcd_control_xfer_cb+0x114>
100093de:	7816      	ldrb	r6, [r2, #0]
100093e0:	7927      	ldrb	r7, [r4, #4]
100093e2:	7963      	ldrb	r3, [r4, #5]
100093e4:	021b      	lsls	r3, r3, #8
100093e6:	433b      	orrs	r3, r7
100093e8:	429e      	cmp	r6, r3
100093ea:	d006      	beq.n	100093fa <cdcd_control_xfer_cb+0x36>
100093ec:	3501      	adds	r5, #1
100093ee:	b2ed      	uxtb	r5, r5
100093f0:	23b2      	movs	r3, #178	@ 0xb2
100093f2:	009b      	lsls	r3, r3, #2
100093f4:	469c      	mov	ip, r3
100093f6:	4462      	add	r2, ip
100093f8:	e7ee      	b.n	100093d8 <cdcd_control_xfer_cb+0x14>
100093fa:	7863      	ldrb	r3, [r4, #1]
100093fc:	2b22      	cmp	r3, #34	@ 0x22
100093fe:	d031      	beq.n	10009464 <cdcd_control_xfer_cb+0xa0>
10009400:	d809      	bhi.n	10009416 <cdcd_control_xfer_cb+0x52>
10009402:	2b20      	cmp	r3, #32
10009404:	d011      	beq.n	1000942a <cdcd_control_xfer_cb+0x66>
10009406:	2b21      	cmp	r3, #33	@ 0x21
10009408:	d103      	bne.n	10009412 <cdcd_control_xfer_cb+0x4e>
1000940a:	2901      	cmp	r1, #1
1000940c:	d023      	beq.n	10009456 <cdcd_control_xfer_cb+0x92>
1000940e:	2001      	movs	r0, #1
10009410:	e061      	b.n	100094d6 <cdcd_control_xfer_cb+0x112>
10009412:	2000      	movs	r0, #0
10009414:	e05f      	b.n	100094d6 <cdcd_control_xfer_cb+0x112>
10009416:	2b23      	cmp	r3, #35	@ 0x23
10009418:	d105      	bne.n	10009426 <cdcd_control_xfer_cb+0x62>
1000941a:	2901      	cmp	r1, #1
1000941c:	d049      	beq.n	100094b2 <cdcd_control_xfer_cb+0xee>
1000941e:	2903      	cmp	r1, #3
10009420:	d04c      	beq.n	100094bc <cdcd_control_xfer_cb+0xf8>
10009422:	2001      	movs	r0, #1
10009424:	e057      	b.n	100094d6 <cdcd_control_xfer_cb+0x112>
10009426:	2000      	movs	r0, #0
10009428:	e055      	b.n	100094d6 <cdcd_control_xfer_cb+0x112>
1000942a:	2901      	cmp	r1, #1
1000942c:	d003      	beq.n	10009436 <cdcd_control_xfer_cb+0x72>
1000942e:	2903      	cmp	r1, #3
10009430:	d008      	beq.n	10009444 <cdcd_control_xfer_cb+0x80>
10009432:	2001      	movs	r0, #1
10009434:	e04f      	b.n	100094d6 <cdcd_control_xfer_cb+0x112>
10009436:	3206      	adds	r2, #6
10009438:	2307      	movs	r3, #7
1000943a:	0021      	movs	r1, r4
1000943c:	f7ff fd48 	bl	10008ed0 <tud_control_xfer>
10009440:	2001      	movs	r0, #1
10009442:	e048      	b.n	100094d6 <cdcd_control_xfer_cb+0x112>
10009444:	4b29      	ldr	r3, [pc, #164]	@ (100094ec <cdcd_control_xfer_cb+0x128>)
10009446:	2b00      	cmp	r3, #0
10009448:	d048      	beq.n	100094dc <cdcd_control_xfer_cb+0x118>
1000944a:	1d91      	adds	r1, r2, #6
1000944c:	0028      	movs	r0, r5
1000944e:	f7fe fa65 	bl	1000791c <tud_cdc_line_coding_cb>
10009452:	2001      	movs	r0, #1
10009454:	e03f      	b.n	100094d6 <cdcd_control_xfer_cb+0x112>
10009456:	3206      	adds	r2, #6
10009458:	2307      	movs	r3, #7
1000945a:	0021      	movs	r1, r4
1000945c:	f7ff fd38 	bl	10008ed0 <tud_control_xfer>
10009460:	2001      	movs	r0, #1
10009462:	e038      	b.n	100094d6 <cdcd_control_xfer_cb+0x112>
10009464:	2901      	cmp	r1, #1
10009466:	d003      	beq.n	10009470 <cdcd_control_xfer_cb+0xac>
10009468:	2903      	cmp	r1, #3
1000946a:	d006      	beq.n	1000947a <cdcd_control_xfer_cb+0xb6>
1000946c:	2001      	movs	r0, #1
1000946e:	e032      	b.n	100094d6 <cdcd_control_xfer_cb+0x112>
10009470:	0021      	movs	r1, r4
10009472:	f7ff fd19 	bl	10008ea8 <tud_control_status>
10009476:	2001      	movs	r0, #1
10009478:	e02d      	b.n	100094d6 <cdcd_control_xfer_cb+0x112>
1000947a:	78a1      	ldrb	r1, [r4, #2]
1000947c:	78e3      	ldrb	r3, [r4, #3]
1000947e:	021b      	lsls	r3, r3, #8
10009480:	430b      	orrs	r3, r1
10009482:	2001      	movs	r0, #1
10009484:	0019      	movs	r1, r3
10009486:	4001      	ands	r1, r0
10009488:	000e      	movs	r6, r1
1000948a:	085c      	lsrs	r4, r3, #1
1000948c:	4004      	ands	r4, r0
1000948e:	7113      	strb	r3, [r2, #4]
10009490:	424b      	negs	r3, r1
10009492:	4159      	adcs	r1, r3
10009494:	b2c9      	uxtb	r1, r1
10009496:	3224      	adds	r2, #36	@ 0x24
10009498:	0010      	movs	r0, r2
1000949a:	f000 fcc4 	bl	10009e26 <tu_fifo_set_overwritable>
1000949e:	4b14      	ldr	r3, [pc, #80]	@ (100094f0 <cdcd_control_xfer_cb+0x12c>)
100094a0:	2b00      	cmp	r3, #0
100094a2:	d01d      	beq.n	100094e0 <cdcd_control_xfer_cb+0x11c>
100094a4:	0022      	movs	r2, r4
100094a6:	0031      	movs	r1, r6
100094a8:	0028      	movs	r0, r5
100094aa:	e000      	b.n	100094ae <cdcd_control_xfer_cb+0xea>
100094ac:	bf00      	nop
100094ae:	2001      	movs	r0, #1
100094b0:	e011      	b.n	100094d6 <cdcd_control_xfer_cb+0x112>
100094b2:	0021      	movs	r1, r4
100094b4:	f7ff fcf8 	bl	10008ea8 <tud_control_status>
100094b8:	2001      	movs	r0, #1
100094ba:	e00c      	b.n	100094d6 <cdcd_control_xfer_cb+0x112>
100094bc:	4b0d      	ldr	r3, [pc, #52]	@ (100094f4 <cdcd_control_xfer_cb+0x130>)
100094be:	2b00      	cmp	r3, #0
100094c0:	d010      	beq.n	100094e4 <cdcd_control_xfer_cb+0x120>
100094c2:	78a3      	ldrb	r3, [r4, #2]
100094c4:	78e1      	ldrb	r1, [r4, #3]
100094c6:	0209      	lsls	r1, r1, #8
100094c8:	4319      	orrs	r1, r3
100094ca:	0028      	movs	r0, r5
100094cc:	e000      	b.n	100094d0 <cdcd_control_xfer_cb+0x10c>
100094ce:	bf00      	nop
100094d0:	2001      	movs	r0, #1
100094d2:	e000      	b.n	100094d6 <cdcd_control_xfer_cb+0x112>
100094d4:	2000      	movs	r0, #0
100094d6:	bdf8      	pop	{r3, r4, r5, r6, r7, pc}
100094d8:	2000      	movs	r0, #0
100094da:	e7fc      	b.n	100094d6 <cdcd_control_xfer_cb+0x112>
100094dc:	2001      	movs	r0, #1
100094de:	e7fa      	b.n	100094d6 <cdcd_control_xfer_cb+0x112>
100094e0:	2001      	movs	r0, #1
100094e2:	e7f8      	b.n	100094d6 <cdcd_control_xfer_cb+0x112>
100094e4:	2001      	movs	r0, #1
100094e6:	e7f6      	b.n	100094d6 <cdcd_control_xfer_cb+0x112>
100094e8:	20001898 	.word	0x20001898
100094ec:	1000791d 	.word	0x1000791d
	...

100094f8 <cdcd_xfer_cb>:
100094f8:	b5f0      	push	{r4, r5, r6, r7, lr}
100094fa:	46d6      	mov	lr, sl
100094fc:	b500      	push	{lr}
100094fe:	b082      	sub	sp, #8
10009500:	9001      	str	r0, [sp, #4]
10009502:	000f      	movs	r7, r1
10009504:	9300      	str	r3, [sp, #0]
10009506:	2400      	movs	r4, #0
10009508:	2c00      	cmp	r4, #0
1000950a:	d00e      	beq.n	1000952a <cdcd_xfer_cb+0x32>
1000950c:	2c00      	cmp	r4, #0
1000950e:	d000      	beq.n	10009512 <cdcd_xfer_cb+0x1a>
10009510:	e07c      	b.n	1000960c <cdcd_xfer_cb+0x114>
10009512:	78eb      	ldrb	r3, [r5, #3]
10009514:	42bb      	cmp	r3, r7
10009516:	d016      	beq.n	10009546 <cdcd_xfer_cb+0x4e>
10009518:	78ab      	ldrb	r3, [r5, #2]
1000951a:	42bb      	cmp	r3, r7
1000951c:	d04d      	beq.n	100095ba <cdcd_xfer_cb+0xc2>
1000951e:	2401      	movs	r4, #1
10009520:	0020      	movs	r0, r4
10009522:	b002      	add	sp, #8
10009524:	bc80      	pop	{r7}
10009526:	46ba      	mov	sl, r7
10009528:	bdf0      	pop	{r4, r5, r6, r7, pc}
1000952a:	25b2      	movs	r5, #178	@ 0xb2
1000952c:	00ad      	lsls	r5, r5, #2
1000952e:	4365      	muls	r5, r4
10009530:	4b39      	ldr	r3, [pc, #228]	@ (10009618 <cdcd_xfer_cb+0x120>)
10009532:	18ed      	adds	r5, r5, r3
10009534:	78eb      	ldrb	r3, [r5, #3]
10009536:	42bb      	cmp	r3, r7
10009538:	d0e8      	beq.n	1000950c <cdcd_xfer_cb+0x14>
1000953a:	78ab      	ldrb	r3, [r5, #2]
1000953c:	42bb      	cmp	r3, r7
1000953e:	d0e5      	beq.n	1000950c <cdcd_xfer_cb+0x14>
10009540:	3401      	adds	r4, #1
10009542:	b2e4      	uxtb	r4, r4
10009544:	e7e0      	b.n	10009508 <cdcd_xfer_cb+0x10>
10009546:	2310      	movs	r3, #16
10009548:	469a      	mov	sl, r3
1000954a:	44aa      	add	sl, r5
1000954c:	2392      	movs	r3, #146	@ 0x92
1000954e:	009b      	lsls	r3, r3, #2
10009550:	18e9      	adds	r1, r5, r3
10009552:	466b      	mov	r3, sp
10009554:	881a      	ldrh	r2, [r3, #0]
10009556:	4650      	mov	r0, sl
10009558:	f000 fc41 	bl	10009dde <tu_fifo_write_n>
1000955c:	4b2f      	ldr	r3, [pc, #188]	@ (1000961c <cdcd_xfer_cb+0x124>)
1000955e:	2b00      	cmp	r3, #0
10009560:	d01b      	beq.n	1000959a <cdcd_xfer_cb+0xa2>
10009562:	796b      	ldrb	r3, [r5, #5]
10009564:	2bff      	cmp	r3, #255	@ 0xff
10009566:	d018      	beq.n	1000959a <cdcd_xfer_cb+0xa2>
10009568:	2600      	movs	r6, #0
1000956a:	e000      	b.n	1000956e <cdcd_xfer_cb+0x76>
1000956c:	3601      	adds	r6, #1
1000956e:	9b00      	ldr	r3, [sp, #0]
10009570:	429e      	cmp	r6, r3
10009572:	d212      	bcs.n	1000959a <cdcd_xfer_cb+0xa2>
10009574:	796a      	ldrb	r2, [r5, #5]
10009576:	19ab      	adds	r3, r5, r6
10009578:	2192      	movs	r1, #146	@ 0x92
1000957a:	0089      	lsls	r1, r1, #2
1000957c:	468c      	mov	ip, r1
1000957e:	4463      	add	r3, ip
10009580:	781b      	ldrb	r3, [r3, #0]
10009582:	429a      	cmp	r2, r3
10009584:	d1f2      	bne.n	1000956c <cdcd_xfer_cb+0x74>
10009586:	4650      	mov	r0, sl
10009588:	f000 fba0 	bl	10009ccc <tu_fifo_empty>
1000958c:	2800      	cmp	r0, #0
1000958e:	d1ed      	bne.n	1000956c <cdcd_xfer_cb+0x74>
10009590:	7969      	ldrb	r1, [r5, #5]
10009592:	0020      	movs	r0, r4
10009594:	e000      	b.n	10009598 <cdcd_xfer_cb+0xa0>
10009596:	bf00      	nop
10009598:	e7e8      	b.n	1000956c <cdcd_xfer_cb+0x74>
1000959a:	4b21      	ldr	r3, [pc, #132]	@ (10009620 <cdcd_xfer_cb+0x128>)
1000959c:	2b00      	cmp	r3, #0
1000959e:	d004      	beq.n	100095aa <cdcd_xfer_cb+0xb2>
100095a0:	4650      	mov	r0, sl
100095a2:	f000 fb93 	bl	10009ccc <tu_fifo_empty>
100095a6:	2800      	cmp	r0, #0
100095a8:	d003      	beq.n	100095b2 <cdcd_xfer_cb+0xba>
100095aa:	0028      	movs	r0, r5
100095ac:	f7ff fd40 	bl	10009030 <_prep_out_transaction>
100095b0:	e7b2      	b.n	10009518 <cdcd_xfer_cb+0x20>
100095b2:	0020      	movs	r0, r4
100095b4:	f7fe faec 	bl	10007b90 <tud_cdc_rx_cb>
100095b8:	e7f7      	b.n	100095aa <cdcd_xfer_cb+0xb2>
100095ba:	4b1a      	ldr	r3, [pc, #104]	@ (10009624 <cdcd_xfer_cb+0x12c>)
100095bc:	2b00      	cmp	r3, #0
100095be:	d002      	beq.n	100095c6 <cdcd_xfer_cb+0xce>
100095c0:	0020      	movs	r0, r4
100095c2:	e000      	b.n	100095c6 <cdcd_xfer_cb+0xce>
100095c4:	bf00      	nop
100095c6:	0020      	movs	r0, r4
100095c8:	f7ff fd94 	bl	100090f4 <tud_cdc_n_write_flush>
100095cc:	2800      	cmp	r0, #0
100095ce:	d001      	beq.n	100095d4 <cdcd_xfer_cb+0xdc>
100095d0:	2401      	movs	r4, #1
100095d2:	e7a5      	b.n	10009520 <cdcd_xfer_cb+0x28>
100095d4:	0028      	movs	r0, r5
100095d6:	3024      	adds	r0, #36	@ 0x24
100095d8:	f000 fb63 	bl	10009ca2 <tu_fifo_count>
100095dc:	2800      	cmp	r0, #0
100095de:	d117      	bne.n	10009610 <cdcd_xfer_cb+0x118>
100095e0:	9b00      	ldr	r3, [sp, #0]
100095e2:	2b00      	cmp	r3, #0
100095e4:	d016      	beq.n	10009614 <cdcd_xfer_cb+0x11c>
100095e6:	069e      	lsls	r6, r3, #26
100095e8:	d001      	beq.n	100095ee <cdcd_xfer_cb+0xf6>
100095ea:	2401      	movs	r4, #1
100095ec:	e798      	b.n	10009520 <cdcd_xfer_cb+0x28>
100095ee:	78a9      	ldrb	r1, [r5, #2]
100095f0:	9801      	ldr	r0, [sp, #4]
100095f2:	f7ff f8d7 	bl	100087a4 <usbd_edpt_claim>
100095f6:	1e04      	subs	r4, r0, #0
100095f8:	d101      	bne.n	100095fe <cdcd_xfer_cb+0x106>
100095fa:	2401      	movs	r4, #1
100095fc:	e790      	b.n	10009520 <cdcd_xfer_cb+0x28>
100095fe:	78a9      	ldrb	r1, [r5, #2]
10009600:	2300      	movs	r3, #0
10009602:	2200      	movs	r2, #0
10009604:	9801      	ldr	r0, [sp, #4]
10009606:	f7ff f8f5 	bl	100087f4 <usbd_edpt_xfer>
1000960a:	e789      	b.n	10009520 <cdcd_xfer_cb+0x28>
1000960c:	2400      	movs	r4, #0
1000960e:	e787      	b.n	10009520 <cdcd_xfer_cb+0x28>
10009610:	2401      	movs	r4, #1
10009612:	e785      	b.n	10009520 <cdcd_xfer_cb+0x28>
10009614:	2401      	movs	r4, #1
10009616:	e783      	b.n	10009520 <cdcd_xfer_cb+0x28>
10009618:	20001898 	.word	0x20001898
1000961c:	00000000 	.word	0x00000000
10009620:	10007b91 	.word	0x10007b91
10009624:	00000000 	.word	0x00000000

10009628 <tusb_init>:
10009628:	b510      	push	{r4, lr}
1000962a:	2000      	movs	r0, #0
1000962c:	f7fe fff2 	bl	10008614 <tud_init>
10009630:	bd10      	pop	{r4, pc}

10009632 <tusb_inited>:
10009632:	b510      	push	{r4, lr}
10009634:	f7fe ffe4 	bl	10008600 <tud_inited>
10009638:	2800      	cmp	r0, #0
1000963a:	d000      	beq.n	1000963e <tusb_inited+0xc>
1000963c:	2001      	movs	r0, #1
1000963e:	bd10      	pop	{r4, pc}

10009640 <tu_edpt_claim>:
10009640:	b570      	push	{r4, r5, r6, lr}
10009642:	0004      	movs	r4, r0
10009644:	000d      	movs	r5, r1
10009646:	7803      	ldrb	r3, [r0, #0]
10009648:	07db      	lsls	r3, r3, #31
1000964a:	0fd8      	lsrs	r0, r3, #31
1000964c:	2b00      	cmp	r3, #0
1000964e:	d11d      	bne.n	1000968c <tu_edpt_claim+0x4c>
10009650:	7823      	ldrb	r3, [r4, #0]
10009652:	075b      	lsls	r3, r3, #29
10009654:	0fde      	lsrs	r6, r3, #31
10009656:	2b00      	cmp	r3, #0
10009658:	db19      	blt.n	1000968e <tu_edpt_claim+0x4e>
1000965a:	2101      	movs	r1, #1
1000965c:	4249      	negs	r1, r1
1000965e:	0028      	movs	r0, r5
10009660:	f001 fb8e 	bl	1000ad80 <__mutex_enter_timeout_ms_veneer>
10009664:	7823      	ldrb	r3, [r4, #0]
10009666:	07db      	lsls	r3, r3, #31
10009668:	0fda      	lsrs	r2, r3, #31
1000966a:	2b00      	cmp	r3, #0
1000966c:	d107      	bne.n	1000967e <tu_edpt_claim+0x3e>
1000966e:	7823      	ldrb	r3, [r4, #0]
10009670:	075b      	lsls	r3, r3, #29
10009672:	d409      	bmi.n	10009688 <tu_edpt_claim+0x48>
10009674:	7823      	ldrb	r3, [r4, #0]
10009676:	2204      	movs	r2, #4
10009678:	4313      	orrs	r3, r2
1000967a:	7023      	strb	r3, [r4, #0]
1000967c:	2601      	movs	r6, #1
1000967e:	0028      	movs	r0, r5
10009680:	f001 fb56 	bl	1000ad30 <__mutex_exit_veneer>
10009684:	0030      	movs	r0, r6
10009686:	e002      	b.n	1000968e <tu_edpt_claim+0x4e>
10009688:	0016      	movs	r6, r2
1000968a:	e7f8      	b.n	1000967e <tu_edpt_claim+0x3e>
1000968c:	2000      	movs	r0, #0
1000968e:	bd70      	pop	{r4, r5, r6, pc}

10009690 <tu_edpt_release>:
10009690:	b570      	push	{r4, r5, r6, lr}
10009692:	0006      	movs	r6, r0
10009694:	000c      	movs	r4, r1
10009696:	2101      	movs	r1, #1
10009698:	4249      	negs	r1, r1
1000969a:	0020      	movs	r0, r4
1000969c:	f001 fb70 	bl	1000ad80 <__mutex_enter_timeout_ms_veneer>
100096a0:	7833      	ldrb	r3, [r6, #0]
100096a2:	075b      	lsls	r3, r3, #29
100096a4:	0fdd      	lsrs	r5, r3, #31
100096a6:	2b00      	cmp	r3, #0
100096a8:	db04      	blt.n	100096b4 <tu_edpt_release+0x24>
100096aa:	0020      	movs	r0, r4
100096ac:	f001 fb40 	bl	1000ad30 <__mutex_exit_veneer>
100096b0:	0028      	movs	r0, r5
100096b2:	bd70      	pop	{r4, r5, r6, pc}
100096b4:	7833      	ldrb	r3, [r6, #0]
100096b6:	07db      	lsls	r3, r3, #31
100096b8:	d404      	bmi.n	100096c4 <tu_edpt_release+0x34>
100096ba:	7833      	ldrb	r3, [r6, #0]
100096bc:	2204      	movs	r2, #4
100096be:	4393      	bics	r3, r2
100096c0:	7033      	strb	r3, [r6, #0]
100096c2:	e7f2      	b.n	100096aa <tu_edpt_release+0x1a>
100096c4:	2500      	movs	r5, #0
100096c6:	e7f0      	b.n	100096aa <tu_edpt_release+0x1a>

100096c8 <tu_edpt_validate>:
100096c8:	7902      	ldrb	r2, [r0, #4]
100096ca:	7943      	ldrb	r3, [r0, #5]
100096cc:	021b      	lsls	r3, r3, #8
100096ce:	4313      	orrs	r3, r2
100096d0:	055b      	lsls	r3, r3, #21
100096d2:	0d5b      	lsrs	r3, r3, #21
100096d4:	78c2      	ldrb	r2, [r0, #3]
100096d6:	0792      	lsls	r2, r2, #30
100096d8:	0f92      	lsrs	r2, r2, #30
100096da:	2a02      	cmp	r2, #2
100096dc:	d00d      	beq.n	100096fa <tu_edpt_validate+0x32>
100096de:	2a03      	cmp	r2, #3
100096e0:	d017      	beq.n	10009712 <tu_edpt_validate+0x4a>
100096e2:	2a01      	cmp	r2, #1
100096e4:	d11f      	bne.n	10009726 <tu_edpt_validate+0x5e>
100096e6:	2902      	cmp	r1, #2
100096e8:	d004      	beq.n	100096f4 <tu_edpt_validate+0x2c>
100096ea:	4a14      	ldr	r2, [pc, #80]	@ (1000973c <tu_edpt_validate+0x74>)
100096ec:	429a      	cmp	r2, r3
100096ee:	d31c      	bcc.n	1000972a <tu_edpt_validate+0x62>
100096f0:	2001      	movs	r0, #1
100096f2:	e019      	b.n	10009728 <tu_edpt_validate+0x60>
100096f4:	2280      	movs	r2, #128	@ 0x80
100096f6:	00d2      	lsls	r2, r2, #3
100096f8:	e7f8      	b.n	100096ec <tu_edpt_validate+0x24>
100096fa:	2902      	cmp	r1, #2
100096fc:	d003      	beq.n	10009706 <tu_edpt_validate+0x3e>
100096fe:	2b40      	cmp	r3, #64	@ 0x40
10009700:	d817      	bhi.n	10009732 <tu_edpt_validate+0x6a>
10009702:	2001      	movs	r0, #1
10009704:	e010      	b.n	10009728 <tu_edpt_validate+0x60>
10009706:	2280      	movs	r2, #128	@ 0x80
10009708:	0092      	lsls	r2, r2, #2
1000970a:	4293      	cmp	r3, r2
1000970c:	d10f      	bne.n	1000972e <tu_edpt_validate+0x66>
1000970e:	2001      	movs	r0, #1
10009710:	e00a      	b.n	10009728 <tu_edpt_validate+0x60>
10009712:	2902      	cmp	r1, #2
10009714:	d004      	beq.n	10009720 <tu_edpt_validate+0x58>
10009716:	2240      	movs	r2, #64	@ 0x40
10009718:	429a      	cmp	r2, r3
1000971a:	d30c      	bcc.n	10009736 <tu_edpt_validate+0x6e>
1000971c:	2001      	movs	r0, #1
1000971e:	e003      	b.n	10009728 <tu_edpt_validate+0x60>
10009720:	2280      	movs	r2, #128	@ 0x80
10009722:	00d2      	lsls	r2, r2, #3
10009724:	e7f8      	b.n	10009718 <tu_edpt_validate+0x50>
10009726:	2000      	movs	r0, #0
10009728:	4770      	bx	lr
1000972a:	2000      	movs	r0, #0
1000972c:	e7fc      	b.n	10009728 <tu_edpt_validate+0x60>
1000972e:	2000      	movs	r0, #0
10009730:	e7fa      	b.n	10009728 <tu_edpt_validate+0x60>
10009732:	2000      	movs	r0, #0
10009734:	e7f8      	b.n	10009728 <tu_edpt_validate+0x60>
10009736:	2000      	movs	r0, #0
10009738:	e7f6      	b.n	10009728 <tu_edpt_validate+0x60>
1000973a:	46c0      	nop			@ (mov r8, r8)
1000973c:	000003ff 	.word	0x000003ff

10009740 <tu_edpt_bind_driver>:
10009740:	b530      	push	{r4, r5, lr}
10009742:	188a      	adds	r2, r1, r2
10009744:	e001      	b.n	1000974a <tu_edpt_bind_driver+0xa>
10009746:	780c      	ldrb	r4, [r1, #0]
10009748:	1909      	adds	r1, r1, r4
1000974a:	4291      	cmp	r1, r2
1000974c:	d20a      	bcs.n	10009764 <tu_edpt_bind_driver+0x24>
1000974e:	784c      	ldrb	r4, [r1, #1]
10009750:	2c05      	cmp	r4, #5
10009752:	d1f8      	bne.n	10009746 <tu_edpt_bind_driver+0x6>
10009754:	788d      	ldrb	r5, [r1, #2]
10009756:	347a      	adds	r4, #122	@ 0x7a
10009758:	402c      	ands	r4, r5
1000975a:	0064      	lsls	r4, r4, #1
1000975c:	1904      	adds	r4, r0, r4
1000975e:	09ed      	lsrs	r5, r5, #7
10009760:	5563      	strb	r3, [r4, r5]
10009762:	e7f0      	b.n	10009746 <tu_edpt_bind_driver+0x6>
10009764:	bd30      	pop	{r4, r5, pc}

10009766 <advance_index>:
10009766:	0003      	movs	r3, r0
10009768:	188a      	adds	r2, r1, r2
1000976a:	b290      	uxth	r0, r2
1000976c:	4281      	cmp	r1, r0
1000976e:	d802      	bhi.n	10009776 <advance_index+0x10>
10009770:	005a      	lsls	r2, r3, #1
10009772:	4290      	cmp	r0, r2
10009774:	db03      	blt.n	1000977e <advance_index+0x18>
10009776:	005b      	lsls	r3, r3, #1
10009778:	b29b      	uxth	r3, r3
1000977a:	1ac0      	subs	r0, r0, r3
1000977c:	b280      	uxth	r0, r0
1000977e:	4770      	bx	lr

10009780 <_tu_fifo_peek>:
10009780:	b570      	push	{r4, r5, r6, lr}
10009782:	0005      	movs	r5, r0
10009784:	0008      	movs	r0, r1
10009786:	88ac      	ldrh	r4, [r5, #4]
10009788:	429a      	cmp	r2, r3
1000978a:	d30b      	bcc.n	100097a4 <_tu_fifo_peek+0x24>
1000978c:	1ad1      	subs	r1, r2, r3
1000978e:	b289      	uxth	r1, r1
10009790:	2900      	cmp	r1, #0
10009792:	d01e      	beq.n	100097d2 <_tu_fifo_peek+0x52>
10009794:	428c      	cmp	r4, r1
10009796:	d210      	bcs.n	100097ba <_tu_fifo_peek+0x3a>
10009798:	4294      	cmp	r4, r2
1000979a:	d809      	bhi.n	100097b0 <_tu_fifo_peek+0x30>
1000979c:	1b12      	subs	r2, r2, r4
1000979e:	b293      	uxth	r3, r2
100097a0:	816b      	strh	r3, [r5, #10]
100097a2:	e00a      	b.n	100097ba <_tu_fifo_peek+0x3a>
100097a4:	1ad1      	subs	r1, r2, r3
100097a6:	b289      	uxth	r1, r1
100097a8:	0066      	lsls	r6, r4, #1
100097aa:	1989      	adds	r1, r1, r6
100097ac:	b289      	uxth	r1, r1
100097ae:	e7ef      	b.n	10009790 <_tu_fifo_peek+0x10>
100097b0:	18a2      	adds	r2, r4, r2
100097b2:	b293      	uxth	r3, r2
100097b4:	e7f4      	b.n	100097a0 <_tu_fifo_peek+0x20>
100097b6:	1b1b      	subs	r3, r3, r4
100097b8:	b29b      	uxth	r3, r3
100097ba:	429c      	cmp	r4, r3
100097bc:	d9fb      	bls.n	100097b6 <_tu_fifo_peek+0x36>
100097be:	6829      	ldr	r1, [r5, #0]
100097c0:	88ea      	ldrh	r2, [r5, #6]
100097c2:	0452      	lsls	r2, r2, #17
100097c4:	0c52      	lsrs	r2, r2, #17
100097c6:	4353      	muls	r3, r2
100097c8:	18c9      	adds	r1, r1, r3
100097ca:	f7fd fe01 	bl	100073d0 <__wrap___aeabi_memcpy>
100097ce:	2001      	movs	r0, #1
100097d0:	bd70      	pop	{r4, r5, r6, pc}
100097d2:	2000      	movs	r0, #0
100097d4:	e7fc      	b.n	100097d0 <_tu_fifo_peek+0x50>

100097d6 <_ff_pull_const_addr>:
100097d6:	b570      	push	{r4, r5, r6, lr}
100097d8:	b082      	sub	sp, #8
100097da:	0005      	movs	r5, r0
100097dc:	0016      	movs	r6, r2
100097de:	0893      	lsrs	r3, r2, #2
100097e0:	e00c      	b.n	100097fc <_ff_pull_const_addr+0x26>
100097e2:	780a      	ldrb	r2, [r1, #0]
100097e4:	784b      	ldrb	r3, [r1, #1]
100097e6:	021b      	lsls	r3, r3, #8
100097e8:	4313      	orrs	r3, r2
100097ea:	788c      	ldrb	r4, [r1, #2]
100097ec:	0424      	lsls	r4, r4, #16
100097ee:	431c      	orrs	r4, r3
100097f0:	78cb      	ldrb	r3, [r1, #3]
100097f2:	061b      	lsls	r3, r3, #24
100097f4:	4323      	orrs	r3, r4
100097f6:	602b      	str	r3, [r5, #0]
100097f8:	3104      	adds	r1, #4
100097fa:	0003      	movs	r3, r0
100097fc:	1e58      	subs	r0, r3, #1
100097fe:	b280      	uxth	r0, r0
10009800:	2b00      	cmp	r3, #0
10009802:	d1ee      	bne.n	100097e2 <_ff_pull_const_addr+0xc>
10009804:	3303      	adds	r3, #3
10009806:	0032      	movs	r2, r6
10009808:	401a      	ands	r2, r3
1000980a:	421e      	tst	r6, r3
1000980c:	d101      	bne.n	10009812 <_ff_pull_const_addr+0x3c>
1000980e:	b002      	add	sp, #8
10009810:	bd70      	pop	{r4, r5, r6, pc}
10009812:	2300      	movs	r3, #0
10009814:	9301      	str	r3, [sp, #4]
10009816:	a801      	add	r0, sp, #4
10009818:	f7fd fdda 	bl	100073d0 <__wrap___aeabi_memcpy>
1000981c:	9b01      	ldr	r3, [sp, #4]
1000981e:	602b      	str	r3, [r5, #0]
10009820:	e7f5      	b.n	1000980e <_ff_pull_const_addr+0x38>

10009822 <_ff_pull_n>:
10009822:	b5f0      	push	{r4, r5, r6, r7, lr}
10009824:	46de      	mov	lr, fp
10009826:	4657      	mov	r7, sl
10009828:	464e      	mov	r6, r9
1000982a:	4645      	mov	r5, r8
1000982c:	b5e0      	push	{r5, r6, r7, lr}
1000982e:	b083      	sub	sp, #12
10009830:	0005      	movs	r5, r0
10009832:	468a      	mov	sl, r1
10009834:	a90c      	add	r1, sp, #48	@ 0x30
10009836:	7809      	ldrb	r1, [r1, #0]
10009838:	8884      	ldrh	r4, [r0, #4]
1000983a:	1ae0      	subs	r0, r4, r3
1000983c:	b280      	uxth	r0, r0
1000983e:	1b1c      	subs	r4, r3, r4
10009840:	1914      	adds	r4, r2, r4
10009842:	b2a4      	uxth	r4, r4
10009844:	88ef      	ldrh	r7, [r5, #6]
10009846:	047f      	lsls	r7, r7, #17
10009848:	0c7e      	lsrs	r6, r7, #17
1000984a:	0007      	movs	r7, r0
1000984c:	4377      	muls	r7, r6
1000984e:	b2bf      	uxth	r7, r7
10009850:	4374      	muls	r4, r6
10009852:	b2a4      	uxth	r4, r4
10009854:	46a3      	mov	fp, r4
10009856:	682c      	ldr	r4, [r5, #0]
10009858:	46a0      	mov	r8, r4
1000985a:	4373      	muls	r3, r6
1000985c:	4498      	add	r8, r3
1000985e:	2900      	cmp	r1, #0
10009860:	d008      	beq.n	10009874 <_ff_pull_n+0x52>
10009862:	2901      	cmp	r1, #1
10009864:	d01a      	beq.n	1000989c <_ff_pull_n+0x7a>
10009866:	b003      	add	sp, #12
10009868:	bcf0      	pop	{r4, r5, r6, r7}
1000986a:	46bb      	mov	fp, r7
1000986c:	46b2      	mov	sl, r6
1000986e:	46a9      	mov	r9, r5
10009870:	46a0      	mov	r8, r4
10009872:	bdf0      	pop	{r4, r5, r6, r7, pc}
10009874:	4290      	cmp	r0, r2
10009876:	d305      	bcc.n	10009884 <_ff_pull_n+0x62>
10009878:	4372      	muls	r2, r6
1000987a:	4641      	mov	r1, r8
1000987c:	4650      	mov	r0, sl
1000987e:	f7fd fda7 	bl	100073d0 <__wrap___aeabi_memcpy>
10009882:	e7f0      	b.n	10009866 <_ff_pull_n+0x44>
10009884:	003a      	movs	r2, r7
10009886:	4641      	mov	r1, r8
10009888:	4650      	mov	r0, sl
1000988a:	f7fd fda1 	bl	100073d0 <__wrap___aeabi_memcpy>
1000988e:	6829      	ldr	r1, [r5, #0]
10009890:	0038      	movs	r0, r7
10009892:	4450      	add	r0, sl
10009894:	465a      	mov	r2, fp
10009896:	f7fd fd9b 	bl	100073d0 <__wrap___aeabi_memcpy>
1000989a:	e7e4      	b.n	10009866 <_ff_pull_n+0x44>
1000989c:	4290      	cmp	r0, r2
1000989e:	d306      	bcc.n	100098ae <_ff_pull_n+0x8c>
100098a0:	4372      	muls	r2, r6
100098a2:	b292      	uxth	r2, r2
100098a4:	4641      	mov	r1, r8
100098a6:	4650      	mov	r0, sl
100098a8:	f7ff ff95 	bl	100097d6 <_ff_pull_const_addr>
100098ac:	e7db      	b.n	10009866 <_ff_pull_n+0x44>
100098ae:	2303      	movs	r3, #3
100098b0:	003a      	movs	r2, r7
100098b2:	439a      	bics	r2, r3
100098b4:	4691      	mov	r9, r2
100098b6:	4641      	mov	r1, r8
100098b8:	4650      	mov	r0, sl
100098ba:	f7ff ff8c 	bl	100097d6 <_ff_pull_const_addr>
100098be:	4642      	mov	r2, r8
100098c0:	444a      	add	r2, r9
100098c2:	2303      	movs	r3, #3
100098c4:	0038      	movs	r0, r7
100098c6:	4018      	ands	r0, r3
100098c8:	421f      	tst	r7, r3
100098ca:	d030      	beq.n	1000992e <_ff_pull_n+0x10c>
100098cc:	2304      	movs	r3, #4
100098ce:	1a1b      	subs	r3, r3, r0
100098d0:	b29b      	uxth	r3, r3
100098d2:	1c19      	adds	r1, r3, #0
100098d4:	455b      	cmp	r3, fp
100098d6:	d900      	bls.n	100098da <_ff_pull_n+0xb8>
100098d8:	4659      	mov	r1, fp
100098da:	b2cf      	uxtb	r7, r1
100098dc:	23ff      	movs	r3, #255	@ 0xff
100098de:	400b      	ands	r3, r1
100098e0:	4659      	mov	r1, fp
100098e2:	1acc      	subs	r4, r1, r3
100098e4:	b2a3      	uxth	r3, r4
100098e6:	469b      	mov	fp, r3
100098e8:	2300      	movs	r3, #0
100098ea:	9301      	str	r3, [sp, #4]
100098ec:	ab01      	add	r3, sp, #4
100098ee:	e004      	b.n	100098fa <_ff_pull_n+0xd8>
100098f0:	7810      	ldrb	r0, [r2, #0]
100098f2:	7018      	strb	r0, [r3, #0]
100098f4:	3301      	adds	r3, #1
100098f6:	0008      	movs	r0, r1
100098f8:	3201      	adds	r2, #1
100098fa:	1e41      	subs	r1, r0, #1
100098fc:	b2c9      	uxtb	r1, r1
100098fe:	2800      	cmp	r0, #0
10009900:	d1f6      	bne.n	100098f0 <_ff_pull_n+0xce>
10009902:	6829      	ldr	r1, [r5, #0]
10009904:	e004      	b.n	10009910 <_ff_pull_n+0xee>
10009906:	7808      	ldrb	r0, [r1, #0]
10009908:	7018      	strb	r0, [r3, #0]
1000990a:	3301      	adds	r3, #1
1000990c:	0017      	movs	r7, r2
1000990e:	3101      	adds	r1, #1
10009910:	1e7a      	subs	r2, r7, #1
10009912:	b2d2      	uxtb	r2, r2
10009914:	2f00      	cmp	r7, #0
10009916:	d1f6      	bne.n	10009906 <_ff_pull_n+0xe4>
10009918:	9b01      	ldr	r3, [sp, #4]
1000991a:	4652      	mov	r2, sl
1000991c:	6013      	str	r3, [r2, #0]
1000991e:	465b      	mov	r3, fp
10009920:	2b00      	cmp	r3, #0
10009922:	d0a0      	beq.n	10009866 <_ff_pull_n+0x44>
10009924:	465a      	mov	r2, fp
10009926:	4650      	mov	r0, sl
10009928:	f7ff ff55 	bl	100097d6 <_ff_pull_const_addr>
1000992c:	e79b      	b.n	10009866 <_ff_pull_n+0x44>
1000992e:	6829      	ldr	r1, [r5, #0]
10009930:	e7f5      	b.n	1000991e <_ff_pull_n+0xfc>

10009932 <_tu_fifo_peek_n>:
10009932:	b5f0      	push	{r4, r5, r6, r7, lr}
10009934:	46c6      	mov	lr, r8
10009936:	b500      	push	{lr}
10009938:	b082      	sub	sp, #8
1000993a:	001e      	movs	r6, r3
1000993c:	ab08      	add	r3, sp, #32
1000993e:	881b      	ldrh	r3, [r3, #0]
10009940:	ac09      	add	r4, sp, #36	@ 0x24
10009942:	7827      	ldrb	r7, [r4, #0]
10009944:	8884      	ldrh	r4, [r0, #4]
10009946:	429e      	cmp	r6, r3
10009948:	d30f      	bcc.n	1000996a <_tu_fifo_peek_n+0x38>
1000994a:	1af5      	subs	r5, r6, r3
1000994c:	b2ad      	uxth	r5, r5
1000994e:	2d00      	cmp	r5, #0
10009950:	d01f      	beq.n	10009992 <_tu_fifo_peek_n+0x60>
10009952:	42ac      	cmp	r4, r5
10009954:	d205      	bcs.n	10009962 <_tu_fifo_peek_n+0x30>
10009956:	42b4      	cmp	r4, r6
10009958:	d810      	bhi.n	1000997c <_tu_fifo_peek_n+0x4a>
1000995a:	1b33      	subs	r3, r6, r4
1000995c:	b29b      	uxth	r3, r3
1000995e:	8143      	strh	r3, [r0, #10]
10009960:	0025      	movs	r5, r4
10009962:	4295      	cmp	r5, r2
10009964:	d30f      	bcc.n	10009986 <_tu_fifo_peek_n+0x54>
10009966:	0015      	movs	r5, r2
10009968:	e00d      	b.n	10009986 <_tu_fifo_peek_n+0x54>
1000996a:	1af5      	subs	r5, r6, r3
1000996c:	b2ad      	uxth	r5, r5
1000996e:	46a8      	mov	r8, r5
10009970:	0065      	lsls	r5, r4, #1
10009972:	46ac      	mov	ip, r5
10009974:	4645      	mov	r5, r8
10009976:	4465      	add	r5, ip
10009978:	b2ad      	uxth	r5, r5
1000997a:	e7e8      	b.n	1000994e <_tu_fifo_peek_n+0x1c>
1000997c:	19a6      	adds	r6, r4, r6
1000997e:	b2b3      	uxth	r3, r6
10009980:	e7ed      	b.n	1000995e <_tu_fifo_peek_n+0x2c>
10009982:	1b1b      	subs	r3, r3, r4
10009984:	b29b      	uxth	r3, r3
10009986:	429c      	cmp	r4, r3
10009988:	d9fb      	bls.n	10009982 <_tu_fifo_peek_n+0x50>
1000998a:	9700      	str	r7, [sp, #0]
1000998c:	002a      	movs	r2, r5
1000998e:	f7ff ff48 	bl	10009822 <_ff_pull_n>
10009992:	0028      	movs	r0, r5
10009994:	b002      	add	sp, #8
10009996:	bc80      	pop	{r7}
10009998:	46b8      	mov	r8, r7
1000999a:	bdf0      	pop	{r4, r5, r6, r7, pc}

1000999c <_tu_fifo_read_n>:
1000999c:	b5f0      	push	{r4, r5, r6, r7, lr}
1000999e:	b083      	sub	sp, #12
100099a0:	0004      	movs	r4, r0
100099a2:	000d      	movs	r5, r1
100099a4:	0016      	movs	r6, r2
100099a6:	001f      	movs	r7, r3
100099a8:	6900      	ldr	r0, [r0, #16]
100099aa:	2800      	cmp	r0, #0
100099ac:	d003      	beq.n	100099b6 <_tu_fifo_read_n+0x1a>
100099ae:	2101      	movs	r1, #1
100099b0:	4249      	negs	r1, r1
100099b2:	f001 f9e5 	bl	1000ad80 <__mutex_enter_timeout_ms_veneer>
100099b6:	8923      	ldrh	r3, [r4, #8]
100099b8:	b29b      	uxth	r3, r3
100099ba:	8962      	ldrh	r2, [r4, #10]
100099bc:	9701      	str	r7, [sp, #4]
100099be:	9200      	str	r2, [sp, #0]
100099c0:	0032      	movs	r2, r6
100099c2:	0029      	movs	r1, r5
100099c4:	0020      	movs	r0, r4
100099c6:	f7ff ffb4 	bl	10009932 <_tu_fifo_peek_n>
100099ca:	0005      	movs	r5, r0
100099cc:	8961      	ldrh	r1, [r4, #10]
100099ce:	b289      	uxth	r1, r1
100099d0:	88a0      	ldrh	r0, [r4, #4]
100099d2:	002a      	movs	r2, r5
100099d4:	f7ff fec7 	bl	10009766 <advance_index>
100099d8:	8160      	strh	r0, [r4, #10]
100099da:	6920      	ldr	r0, [r4, #16]
100099dc:	2800      	cmp	r0, #0
100099de:	d001      	beq.n	100099e4 <_tu_fifo_read_n+0x48>
100099e0:	f001 f9a6 	bl	1000ad30 <__mutex_exit_veneer>
100099e4:	0028      	movs	r0, r5
100099e6:	b003      	add	sp, #12
100099e8:	bdf0      	pop	{r4, r5, r6, r7, pc}

100099ea <_ff_push_const_addr>:
100099ea:	b570      	push	{r4, r5, r6, lr}
100099ec:	b082      	sub	sp, #8
100099ee:	0016      	movs	r6, r2
100099f0:	0895      	lsrs	r5, r2, #2
100099f2:	e009      	b.n	10009a08 <_ff_push_const_addr+0x1e>
100099f4:	680b      	ldr	r3, [r1, #0]
100099f6:	7003      	strb	r3, [r0, #0]
100099f8:	0a1d      	lsrs	r5, r3, #8
100099fa:	7045      	strb	r5, [r0, #1]
100099fc:	0c1d      	lsrs	r5, r3, #16
100099fe:	7085      	strb	r5, [r0, #2]
10009a00:	0e1b      	lsrs	r3, r3, #24
10009a02:	70c3      	strb	r3, [r0, #3]
10009a04:	3004      	adds	r0, #4
10009a06:	0025      	movs	r5, r4
10009a08:	1e6c      	subs	r4, r5, #1
10009a0a:	b2a4      	uxth	r4, r4
10009a0c:	2d00      	cmp	r5, #0
10009a0e:	d1f1      	bne.n	100099f4 <_ff_push_const_addr+0xa>
10009a10:	2303      	movs	r3, #3
10009a12:	0032      	movs	r2, r6
10009a14:	401a      	ands	r2, r3
10009a16:	421e      	tst	r6, r3
10009a18:	d101      	bne.n	10009a1e <_ff_push_const_addr+0x34>
10009a1a:	b002      	add	sp, #8
10009a1c:	bd70      	pop	{r4, r5, r6, pc}
10009a1e:	680b      	ldr	r3, [r1, #0]
10009a20:	9301      	str	r3, [sp, #4]
10009a22:	a901      	add	r1, sp, #4
10009a24:	f7fd fcd4 	bl	100073d0 <__wrap___aeabi_memcpy>
10009a28:	e7f7      	b.n	10009a1a <_ff_push_const_addr+0x30>

10009a2a <_ff_push_n>:
10009a2a:	b5f0      	push	{r4, r5, r6, r7, lr}
10009a2c:	46de      	mov	lr, fp
10009a2e:	4657      	mov	r7, sl
10009a30:	464e      	mov	r6, r9
10009a32:	4645      	mov	r5, r8
10009a34:	b5e0      	push	{r5, r6, r7, lr}
10009a36:	b083      	sub	sp, #12
10009a38:	0005      	movs	r5, r0
10009a3a:	468a      	mov	sl, r1
10009a3c:	a90c      	add	r1, sp, #48	@ 0x30
10009a3e:	7808      	ldrb	r0, [r1, #0]
10009a40:	88ac      	ldrh	r4, [r5, #4]
10009a42:	1ae1      	subs	r1, r4, r3
10009a44:	b289      	uxth	r1, r1
10009a46:	1b1c      	subs	r4, r3, r4
10009a48:	1914      	adds	r4, r2, r4
10009a4a:	b2a4      	uxth	r4, r4
10009a4c:	88ef      	ldrh	r7, [r5, #6]
10009a4e:	047f      	lsls	r7, r7, #17
10009a50:	0c7e      	lsrs	r6, r7, #17
10009a52:	000f      	movs	r7, r1
10009a54:	4377      	muls	r7, r6
10009a56:	b2bf      	uxth	r7, r7
10009a58:	4374      	muls	r4, r6
10009a5a:	b2a4      	uxth	r4, r4
10009a5c:	46a3      	mov	fp, r4
10009a5e:	682c      	ldr	r4, [r5, #0]
10009a60:	46a0      	mov	r8, r4
10009a62:	4373      	muls	r3, r6
10009a64:	4498      	add	r8, r3
10009a66:	2800      	cmp	r0, #0
10009a68:	d008      	beq.n	10009a7c <_ff_push_n+0x52>
10009a6a:	2801      	cmp	r0, #1
10009a6c:	d01a      	beq.n	10009aa4 <_ff_push_n+0x7a>
10009a6e:	b003      	add	sp, #12
10009a70:	bcf0      	pop	{r4, r5, r6, r7}
10009a72:	46bb      	mov	fp, r7
10009a74:	46b2      	mov	sl, r6
10009a76:	46a9      	mov	r9, r5
10009a78:	46a0      	mov	r8, r4
10009a7a:	bdf0      	pop	{r4, r5, r6, r7, pc}
10009a7c:	4291      	cmp	r1, r2
10009a7e:	d305      	bcc.n	10009a8c <_ff_push_n+0x62>
10009a80:	4372      	muls	r2, r6
10009a82:	4651      	mov	r1, sl
10009a84:	4640      	mov	r0, r8
10009a86:	f7fd fca3 	bl	100073d0 <__wrap___aeabi_memcpy>
10009a8a:	e7f0      	b.n	10009a6e <_ff_push_n+0x44>
10009a8c:	003a      	movs	r2, r7
10009a8e:	4651      	mov	r1, sl
10009a90:	4640      	mov	r0, r8
10009a92:	f7fd fc9d 	bl	100073d0 <__wrap___aeabi_memcpy>
10009a96:	6828      	ldr	r0, [r5, #0]
10009a98:	0039      	movs	r1, r7
10009a9a:	4451      	add	r1, sl
10009a9c:	465a      	mov	r2, fp
10009a9e:	f7fd fc97 	bl	100073d0 <__wrap___aeabi_memcpy>
10009aa2:	e7e4      	b.n	10009a6e <_ff_push_n+0x44>
10009aa4:	4291      	cmp	r1, r2
10009aa6:	d306      	bcc.n	10009ab6 <_ff_push_n+0x8c>
10009aa8:	4372      	muls	r2, r6
10009aaa:	b292      	uxth	r2, r2
10009aac:	4651      	mov	r1, sl
10009aae:	4640      	mov	r0, r8
10009ab0:	f7ff ff9b 	bl	100099ea <_ff_push_const_addr>
10009ab4:	e7db      	b.n	10009a6e <_ff_push_n+0x44>
10009ab6:	2303      	movs	r3, #3
10009ab8:	003a      	movs	r2, r7
10009aba:	439a      	bics	r2, r3
10009abc:	4691      	mov	r9, r2
10009abe:	4651      	mov	r1, sl
10009ac0:	4640      	mov	r0, r8
10009ac2:	f7ff ff92 	bl	100099ea <_ff_push_const_addr>
10009ac6:	4642      	mov	r2, r8
10009ac8:	444a      	add	r2, r9
10009aca:	2303      	movs	r3, #3
10009acc:	0038      	movs	r0, r7
10009ace:	4018      	ands	r0, r3
10009ad0:	421f      	tst	r7, r3
10009ad2:	d02e      	beq.n	10009b32 <_ff_push_n+0x108>
10009ad4:	2304      	movs	r3, #4
10009ad6:	1a1b      	subs	r3, r3, r0
10009ad8:	b29b      	uxth	r3, r3
10009ada:	1c19      	adds	r1, r3, #0
10009adc:	455b      	cmp	r3, fp
10009ade:	d900      	bls.n	10009ae2 <_ff_push_n+0xb8>
10009ae0:	4659      	mov	r1, fp
10009ae2:	b2cf      	uxtb	r7, r1
10009ae4:	23ff      	movs	r3, #255	@ 0xff
10009ae6:	400b      	ands	r3, r1
10009ae8:	4659      	mov	r1, fp
10009aea:	1acc      	subs	r4, r1, r3
10009aec:	b2a3      	uxth	r3, r4
10009aee:	469b      	mov	fp, r3
10009af0:	4653      	mov	r3, sl
10009af2:	681b      	ldr	r3, [r3, #0]
10009af4:	9301      	str	r3, [sp, #4]
10009af6:	ab01      	add	r3, sp, #4
10009af8:	e004      	b.n	10009b04 <_ff_push_n+0xda>
10009afa:	7818      	ldrb	r0, [r3, #0]
10009afc:	7010      	strb	r0, [r2, #0]
10009afe:	3301      	adds	r3, #1
10009b00:	0008      	movs	r0, r1
10009b02:	3201      	adds	r2, #1
10009b04:	1e41      	subs	r1, r0, #1
10009b06:	b2c9      	uxtb	r1, r1
10009b08:	2800      	cmp	r0, #0
10009b0a:	d1f6      	bne.n	10009afa <_ff_push_n+0xd0>
10009b0c:	6828      	ldr	r0, [r5, #0]
10009b0e:	e004      	b.n	10009b1a <_ff_push_n+0xf0>
10009b10:	7819      	ldrb	r1, [r3, #0]
10009b12:	7001      	strb	r1, [r0, #0]
10009b14:	3301      	adds	r3, #1
10009b16:	0017      	movs	r7, r2
10009b18:	3001      	adds	r0, #1
10009b1a:	1e7a      	subs	r2, r7, #1
10009b1c:	b2d2      	uxtb	r2, r2
10009b1e:	2f00      	cmp	r7, #0
10009b20:	d1f6      	bne.n	10009b10 <_ff_push_n+0xe6>
10009b22:	465b      	mov	r3, fp
10009b24:	2b00      	cmp	r3, #0
10009b26:	d0a2      	beq.n	10009a6e <_ff_push_n+0x44>
10009b28:	465a      	mov	r2, fp
10009b2a:	4651      	mov	r1, sl
10009b2c:	f7ff ff5d 	bl	100099ea <_ff_push_const_addr>
10009b30:	e79d      	b.n	10009a6e <_ff_push_n+0x44>
10009b32:	6828      	ldr	r0, [r5, #0]
10009b34:	e7f5      	b.n	10009b22 <_ff_push_n+0xf8>

10009b36 <_tu_fifo_write_n>:
10009b36:	b5f0      	push	{r4, r5, r6, r7, lr}
10009b38:	b085      	sub	sp, #20
10009b3a:	0006      	movs	r6, r0
10009b3c:	9103      	str	r1, [sp, #12]
10009b3e:	1e15      	subs	r5, r2, #0
10009b40:	9302      	str	r3, [sp, #8]
10009b42:	d100      	bne.n	10009b46 <_tu_fifo_write_n+0x10>
10009b44:	e06d      	b.n	10009c22 <_tu_fifo_write_n+0xec>
10009b46:	68c0      	ldr	r0, [r0, #12]
10009b48:	2800      	cmp	r0, #0
10009b4a:	d003      	beq.n	10009b54 <_tu_fifo_write_n+0x1e>
10009b4c:	2101      	movs	r1, #1
10009b4e:	4249      	negs	r1, r1
10009b50:	f001 f916 	bl	1000ad80 <__mutex_enter_timeout_ms_veneer>
10009b54:	8934      	ldrh	r4, [r6, #8]
10009b56:	b2a4      	uxth	r4, r4
10009b58:	8971      	ldrh	r1, [r6, #10]
10009b5a:	b289      	uxth	r1, r1
10009b5c:	79f3      	ldrb	r3, [r6, #7]
10009b5e:	09db      	lsrs	r3, r3, #7
10009b60:	d11a      	bne.n	10009b98 <_tu_fifo_write_n+0x62>
10009b62:	88b3      	ldrh	r3, [r6, #4]
10009b64:	428c      	cmp	r4, r1
10009b66:	d30f      	bcc.n	10009b88 <_tu_fifo_write_n+0x52>
10009b68:	1a61      	subs	r1, r4, r1
10009b6a:	b289      	uxth	r1, r1
10009b6c:	428b      	cmp	r3, r1
10009b6e:	d911      	bls.n	10009b94 <_tu_fifo_write_n+0x5e>
10009b70:	1a5b      	subs	r3, r3, r1
10009b72:	b29b      	uxth	r3, r3
10009b74:	1c2f      	adds	r7, r5, #0
10009b76:	429d      	cmp	r5, r3
10009b78:	d900      	bls.n	10009b7c <_tu_fifo_write_n+0x46>
10009b7a:	1c1f      	adds	r7, r3, #0
10009b7c:	b2bf      	uxth	r7, r7
10009b7e:	2f00      	cmp	r7, #0
10009b80:	d047      	beq.n	10009c12 <_tu_fifo_write_n+0xdc>
10009b82:	88b2      	ldrh	r2, [r6, #4]
10009b84:	0023      	movs	r3, r4
10009b86:	e035      	b.n	10009bf4 <_tu_fifo_write_n+0xbe>
10009b88:	1a61      	subs	r1, r4, r1
10009b8a:	b289      	uxth	r1, r1
10009b8c:	005a      	lsls	r2, r3, #1
10009b8e:	1889      	adds	r1, r1, r2
10009b90:	b289      	uxth	r1, r1
10009b92:	e7eb      	b.n	10009b6c <_tu_fifo_write_n+0x36>
10009b94:	2300      	movs	r3, #0
10009b96:	e7ed      	b.n	10009b74 <_tu_fifo_write_n+0x3e>
10009b98:	88b7      	ldrh	r7, [r6, #4]
10009b9a:	42af      	cmp	r7, r5
10009b9c:	d80e      	bhi.n	10009bbc <_tu_fifo_write_n+0x86>
10009b9e:	9b02      	ldr	r3, [sp, #8]
10009ba0:	2b00      	cmp	r3, #0
10009ba2:	d121      	bne.n	10009be8 <_tu_fifo_write_n+0xb2>
10009ba4:	1bed      	subs	r5, r5, r7
10009ba6:	88f3      	ldrh	r3, [r6, #6]
10009ba8:	045b      	lsls	r3, r3, #17
10009baa:	0c5b      	lsrs	r3, r3, #17
10009bac:	436b      	muls	r3, r5
10009bae:	9a03      	ldr	r2, [sp, #12]
10009bb0:	4694      	mov	ip, r2
10009bb2:	449c      	add	ip, r3
10009bb4:	4663      	mov	r3, ip
10009bb6:	9303      	str	r3, [sp, #12]
10009bb8:	000c      	movs	r4, r1
10009bba:	e7e0      	b.n	10009b7e <_tu_fifo_write_n+0x48>
10009bbc:	428c      	cmp	r4, r1
10009bbe:	d30d      	bcc.n	10009bdc <_tu_fifo_write_n+0xa6>
10009bc0:	1a63      	subs	r3, r4, r1
10009bc2:	b29b      	uxth	r3, r3
10009bc4:	195b      	adds	r3, r3, r5
10009bc6:	007a      	lsls	r2, r7, #1
10009bc8:	4293      	cmp	r3, r2
10009bca:	db0f      	blt.n	10009bec <_tu_fifo_write_n+0xb6>
10009bcc:	1b7a      	subs	r2, r7, r5
10009bce:	b292      	uxth	r2, r2
10009bd0:	0038      	movs	r0, r7
10009bd2:	f7ff fdc8 	bl	10009766 <advance_index>
10009bd6:	0004      	movs	r4, r0
10009bd8:	002f      	movs	r7, r5
10009bda:	e7d0      	b.n	10009b7e <_tu_fifo_write_n+0x48>
10009bdc:	1a63      	subs	r3, r4, r1
10009bde:	b29b      	uxth	r3, r3
10009be0:	007a      	lsls	r2, r7, #1
10009be2:	189b      	adds	r3, r3, r2
10009be4:	b29b      	uxth	r3, r3
10009be6:	e7ed      	b.n	10009bc4 <_tu_fifo_write_n+0x8e>
10009be8:	000c      	movs	r4, r1
10009bea:	e7c8      	b.n	10009b7e <_tu_fifo_write_n+0x48>
10009bec:	002f      	movs	r7, r5
10009bee:	e7c6      	b.n	10009b7e <_tu_fifo_write_n+0x48>
10009bf0:	1a9b      	subs	r3, r3, r2
10009bf2:	b29b      	uxth	r3, r3
10009bf4:	429a      	cmp	r2, r3
10009bf6:	d9fb      	bls.n	10009bf0 <_tu_fifo_write_n+0xba>
10009bf8:	9a02      	ldr	r2, [sp, #8]
10009bfa:	9200      	str	r2, [sp, #0]
10009bfc:	003a      	movs	r2, r7
10009bfe:	9903      	ldr	r1, [sp, #12]
10009c00:	0030      	movs	r0, r6
10009c02:	f7ff ff12 	bl	10009a2a <_ff_push_n>
10009c06:	88b0      	ldrh	r0, [r6, #4]
10009c08:	003a      	movs	r2, r7
10009c0a:	0021      	movs	r1, r4
10009c0c:	f7ff fdab 	bl	10009766 <advance_index>
10009c10:	8130      	strh	r0, [r6, #8]
10009c12:	68f0      	ldr	r0, [r6, #12]
10009c14:	2800      	cmp	r0, #0
10009c16:	d001      	beq.n	10009c1c <_tu_fifo_write_n+0xe6>
10009c18:	f001 f88a 	bl	1000ad30 <__mutex_exit_veneer>
10009c1c:	0038      	movs	r0, r7
10009c1e:	b005      	add	sp, #20
10009c20:	bdf0      	pop	{r4, r5, r6, r7, pc}
10009c22:	0017      	movs	r7, r2
10009c24:	e7fa      	b.n	10009c1c <_tu_fifo_write_n+0xe6>

10009c26 <tu_fifo_config>:
10009c26:	b5f0      	push	{r4, r5, r6, r7, lr}
10009c28:	b083      	sub	sp, #12
10009c2a:	0004      	movs	r4, r0
10009c2c:	9101      	str	r1, [sp, #4]
10009c2e:	0016      	movs	r6, r2
10009c30:	001d      	movs	r5, r3
10009c32:	ab08      	add	r3, sp, #32
10009c34:	781f      	ldrb	r7, [r3, #0]
10009c36:	2380      	movs	r3, #128	@ 0x80
10009c38:	021b      	lsls	r3, r3, #8
10009c3a:	429a      	cmp	r2, r3
10009c3c:	d82d      	bhi.n	10009c9a <tu_fifo_config+0x74>
10009c3e:	68c0      	ldr	r0, [r0, #12]
10009c40:	2800      	cmp	r0, #0
10009c42:	d003      	beq.n	10009c4c <tu_fifo_config+0x26>
10009c44:	2101      	movs	r1, #1
10009c46:	4249      	negs	r1, r1
10009c48:	f001 f89a 	bl	1000ad80 <__mutex_enter_timeout_ms_veneer>
10009c4c:	6920      	ldr	r0, [r4, #16]
10009c4e:	2800      	cmp	r0, #0
10009c50:	d003      	beq.n	10009c5a <tu_fifo_config+0x34>
10009c52:	2101      	movs	r1, #1
10009c54:	4249      	negs	r1, r1
10009c56:	f001 f893 	bl	1000ad80 <__mutex_enter_timeout_ms_veneer>
10009c5a:	9b01      	ldr	r3, [sp, #4]
10009c5c:	6023      	str	r3, [r4, #0]
10009c5e:	80a6      	strh	r6, [r4, #4]
10009c60:	046d      	lsls	r5, r5, #17
10009c62:	0c6b      	lsrs	r3, r5, #17
10009c64:	88e5      	ldrh	r5, [r4, #6]
10009c66:	0bed      	lsrs	r5, r5, #15
10009c68:	03ed      	lsls	r5, r5, #15
10009c6a:	431d      	orrs	r5, r3
10009c6c:	80e5      	strh	r5, [r4, #6]
10009c6e:	01fb      	lsls	r3, r7, #7
10009c70:	79e2      	ldrb	r2, [r4, #7]
10009c72:	277f      	movs	r7, #127	@ 0x7f
10009c74:	4017      	ands	r7, r2
10009c76:	431f      	orrs	r7, r3
10009c78:	71e7      	strb	r7, [r4, #7]
10009c7a:	2300      	movs	r3, #0
10009c7c:	8163      	strh	r3, [r4, #10]
10009c7e:	8123      	strh	r3, [r4, #8]
10009c80:	68e0      	ldr	r0, [r4, #12]
10009c82:	2800      	cmp	r0, #0
10009c84:	d001      	beq.n	10009c8a <tu_fifo_config+0x64>
10009c86:	f001 f853 	bl	1000ad30 <__mutex_exit_veneer>
10009c8a:	6920      	ldr	r0, [r4, #16]
10009c8c:	2800      	cmp	r0, #0
10009c8e:	d006      	beq.n	10009c9e <tu_fifo_config+0x78>
10009c90:	f001 f84e 	bl	1000ad30 <__mutex_exit_veneer>
10009c94:	2001      	movs	r0, #1
10009c96:	b003      	add	sp, #12
10009c98:	bdf0      	pop	{r4, r5, r6, r7, pc}
10009c9a:	2000      	movs	r0, #0
10009c9c:	e7fb      	b.n	10009c96 <tu_fifo_config+0x70>
10009c9e:	2001      	movs	r0, #1
10009ca0:	e7f9      	b.n	10009c96 <tu_fifo_config+0x70>

10009ca2 <tu_fifo_count>:
10009ca2:	8881      	ldrh	r1, [r0, #4]
10009ca4:	8903      	ldrh	r3, [r0, #8]
10009ca6:	b29b      	uxth	r3, r3
10009ca8:	8942      	ldrh	r2, [r0, #10]
10009caa:	b292      	uxth	r2, r2
10009cac:	4293      	cmp	r3, r2
10009cae:	d307      	bcc.n	10009cc0 <tu_fifo_count+0x1e>
10009cb0:	1a9b      	subs	r3, r3, r2
10009cb2:	b29b      	uxth	r3, r3
10009cb4:	1c08      	adds	r0, r1, #0
10009cb6:	4299      	cmp	r1, r3
10009cb8:	d900      	bls.n	10009cbc <tu_fifo_count+0x1a>
10009cba:	1c18      	adds	r0, r3, #0
10009cbc:	b280      	uxth	r0, r0
10009cbe:	4770      	bx	lr
10009cc0:	1a9b      	subs	r3, r3, r2
10009cc2:	b29b      	uxth	r3, r3
10009cc4:	004a      	lsls	r2, r1, #1
10009cc6:	189b      	adds	r3, r3, r2
10009cc8:	b29b      	uxth	r3, r3
10009cca:	e7f3      	b.n	10009cb4 <tu_fifo_count+0x12>

10009ccc <tu_fifo_empty>:
10009ccc:	8903      	ldrh	r3, [r0, #8]
10009cce:	8940      	ldrh	r0, [r0, #10]
10009cd0:	1a18      	subs	r0, r3, r0
10009cd2:	4243      	negs	r3, r0
10009cd4:	4158      	adcs	r0, r3
10009cd6:	b2c0      	uxtb	r0, r0
10009cd8:	4770      	bx	lr

10009cda <tu_fifo_full>:
10009cda:	8881      	ldrh	r1, [r0, #4]
10009cdc:	8903      	ldrh	r3, [r0, #8]
10009cde:	b29b      	uxth	r3, r3
10009ce0:	8942      	ldrh	r2, [r0, #10]
10009ce2:	b292      	uxth	r2, r2
10009ce4:	4293      	cmp	r3, r2
10009ce6:	d306      	bcc.n	10009cf6 <tu_fifo_full+0x1c>
10009ce8:	1a9b      	subs	r3, r3, r2
10009cea:	b29b      	uxth	r3, r3
10009cec:	2000      	movs	r0, #0
10009cee:	428b      	cmp	r3, r1
10009cf0:	4140      	adcs	r0, r0
10009cf2:	b2c0      	uxtb	r0, r0
10009cf4:	4770      	bx	lr
10009cf6:	1a9b      	subs	r3, r3, r2
10009cf8:	b29b      	uxth	r3, r3
10009cfa:	004a      	lsls	r2, r1, #1
10009cfc:	189b      	adds	r3, r3, r2
10009cfe:	b29b      	uxth	r3, r3
10009d00:	e7f4      	b.n	10009cec <tu_fifo_full+0x12>

10009d02 <tu_fifo_remaining>:
10009d02:	8882      	ldrh	r2, [r0, #4]
10009d04:	8903      	ldrh	r3, [r0, #8]
10009d06:	b29b      	uxth	r3, r3
10009d08:	8941      	ldrh	r1, [r0, #10]
10009d0a:	b289      	uxth	r1, r1
10009d0c:	428b      	cmp	r3, r1
10009d0e:	d306      	bcc.n	10009d1e <tu_fifo_remaining+0x1c>
10009d10:	1a5b      	subs	r3, r3, r1
10009d12:	b29b      	uxth	r3, r3
10009d14:	429a      	cmp	r2, r3
10009d16:	d908      	bls.n	10009d2a <tu_fifo_remaining+0x28>
10009d18:	1ad0      	subs	r0, r2, r3
10009d1a:	b280      	uxth	r0, r0
10009d1c:	4770      	bx	lr
10009d1e:	1a5b      	subs	r3, r3, r1
10009d20:	b29b      	uxth	r3, r3
10009d22:	0051      	lsls	r1, r2, #1
10009d24:	185b      	adds	r3, r3, r1
10009d26:	b29b      	uxth	r3, r3
10009d28:	e7f4      	b.n	10009d14 <tu_fifo_remaining+0x12>
10009d2a:	2000      	movs	r0, #0
10009d2c:	e7f6      	b.n	10009d1c <tu_fifo_remaining+0x1a>

10009d2e <tu_fifo_read>:
10009d2e:	b570      	push	{r4, r5, r6, lr}
10009d30:	0004      	movs	r4, r0
10009d32:	000d      	movs	r5, r1
10009d34:	6900      	ldr	r0, [r0, #16]
10009d36:	2800      	cmp	r0, #0
10009d38:	d003      	beq.n	10009d42 <tu_fifo_read+0x14>
10009d3a:	2101      	movs	r1, #1
10009d3c:	4249      	negs	r1, r1
10009d3e:	f001 f81f 	bl	1000ad80 <__mutex_enter_timeout_ms_veneer>
10009d42:	8922      	ldrh	r2, [r4, #8]
10009d44:	b292      	uxth	r2, r2
10009d46:	8963      	ldrh	r3, [r4, #10]
10009d48:	b29b      	uxth	r3, r3
10009d4a:	0029      	movs	r1, r5
10009d4c:	0020      	movs	r0, r4
10009d4e:	f7ff fd17 	bl	10009780 <_tu_fifo_peek>
10009d52:	0005      	movs	r5, r0
10009d54:	8961      	ldrh	r1, [r4, #10]
10009d56:	b289      	uxth	r1, r1
10009d58:	88a0      	ldrh	r0, [r4, #4]
10009d5a:	002a      	movs	r2, r5
10009d5c:	f7ff fd03 	bl	10009766 <advance_index>
10009d60:	8160      	strh	r0, [r4, #10]
10009d62:	6920      	ldr	r0, [r4, #16]
10009d64:	2800      	cmp	r0, #0
10009d66:	d001      	beq.n	10009d6c <tu_fifo_read+0x3e>
10009d68:	f000 ffe2 	bl	1000ad30 <__mutex_exit_veneer>
10009d6c:	0028      	movs	r0, r5
10009d6e:	bd70      	pop	{r4, r5, r6, pc}

10009d70 <tu_fifo_read_n>:
10009d70:	b510      	push	{r4, lr}
10009d72:	2300      	movs	r3, #0
10009d74:	f7ff fe12 	bl	1000999c <_tu_fifo_read_n>
10009d78:	bd10      	pop	{r4, pc}

10009d7a <tu_fifo_write>:
10009d7a:	b5f8      	push	{r3, r4, r5, r6, r7, lr}
10009d7c:	0004      	movs	r4, r0
10009d7e:	000e      	movs	r6, r1
10009d80:	68c0      	ldr	r0, [r0, #12]
10009d82:	2800      	cmp	r0, #0
10009d84:	d003      	beq.n	10009d8e <tu_fifo_write+0x14>
10009d86:	2101      	movs	r1, #1
10009d88:	4249      	negs	r1, r1
10009d8a:	f000 fff9 	bl	1000ad80 <__mutex_enter_timeout_ms_veneer>
10009d8e:	8925      	ldrh	r5, [r4, #8]
10009d90:	b2ad      	uxth	r5, r5
10009d92:	0020      	movs	r0, r4
10009d94:	f7ff ffa1 	bl	10009cda <tu_fifo_full>
10009d98:	2800      	cmp	r0, #0
10009d9a:	d002      	beq.n	10009da2 <tu_fifo_write+0x28>
10009d9c:	79e7      	ldrb	r7, [r4, #7]
10009d9e:	09ff      	lsrs	r7, r7, #7
10009da0:	d016      	beq.n	10009dd0 <tu_fifo_write+0x56>
10009da2:	88a2      	ldrh	r2, [r4, #4]
10009da4:	002b      	movs	r3, r5
10009da6:	e001      	b.n	10009dac <tu_fifo_write+0x32>
10009da8:	1a9b      	subs	r3, r3, r2
10009daa:	b29b      	uxth	r3, r3
10009dac:	429a      	cmp	r2, r3
10009dae:	d9fb      	bls.n	10009da8 <tu_fifo_write+0x2e>
10009db0:	6820      	ldr	r0, [r4, #0]
10009db2:	88e2      	ldrh	r2, [r4, #6]
10009db4:	0452      	lsls	r2, r2, #17
10009db6:	0c52      	lsrs	r2, r2, #17
10009db8:	4353      	muls	r3, r2
10009dba:	18c0      	adds	r0, r0, r3
10009dbc:	0031      	movs	r1, r6
10009dbe:	f7fd fb07 	bl	100073d0 <__wrap___aeabi_memcpy>
10009dc2:	88a0      	ldrh	r0, [r4, #4]
10009dc4:	2201      	movs	r2, #1
10009dc6:	0029      	movs	r1, r5
10009dc8:	f7ff fccd 	bl	10009766 <advance_index>
10009dcc:	8120      	strh	r0, [r4, #8]
10009dce:	2701      	movs	r7, #1
10009dd0:	68e0      	ldr	r0, [r4, #12]
10009dd2:	2800      	cmp	r0, #0
10009dd4:	d001      	beq.n	10009dda <tu_fifo_write+0x60>
10009dd6:	f000 ffab 	bl	1000ad30 <__mutex_exit_veneer>
10009dda:	0038      	movs	r0, r7
10009ddc:	bdf8      	pop	{r3, r4, r5, r6, r7, pc}

10009dde <tu_fifo_write_n>:
10009dde:	b510      	push	{r4, lr}
10009de0:	2300      	movs	r3, #0
10009de2:	f7ff fea8 	bl	10009b36 <_tu_fifo_write_n>
10009de6:	bd10      	pop	{r4, pc}

10009de8 <tu_fifo_clear>:
10009de8:	b510      	push	{r4, lr}
10009dea:	0004      	movs	r4, r0
10009dec:	68c0      	ldr	r0, [r0, #12]
10009dee:	2800      	cmp	r0, #0
10009df0:	d003      	beq.n	10009dfa <tu_fifo_clear+0x12>
10009df2:	2101      	movs	r1, #1
10009df4:	4249      	negs	r1, r1
10009df6:	f000 ffc3 	bl	1000ad80 <__mutex_enter_timeout_ms_veneer>
10009dfa:	6920      	ldr	r0, [r4, #16]
10009dfc:	2800      	cmp	r0, #0
10009dfe:	d003      	beq.n	10009e08 <tu_fifo_clear+0x20>
10009e00:	2101      	movs	r1, #1
10009e02:	4249      	negs	r1, r1
10009e04:	f000 ffbc 	bl	1000ad80 <__mutex_enter_timeout_ms_veneer>
10009e08:	2300      	movs	r3, #0
10009e0a:	8163      	strh	r3, [r4, #10]
10009e0c:	8123      	strh	r3, [r4, #8]
10009e0e:	68e0      	ldr	r0, [r4, #12]
10009e10:	2800      	cmp	r0, #0
10009e12:	d001      	beq.n	10009e18 <tu_fifo_clear+0x30>
10009e14:	f000 ff8c 	bl	1000ad30 <__mutex_exit_veneer>
10009e18:	6920      	ldr	r0, [r4, #16]
10009e1a:	2800      	cmp	r0, #0
10009e1c:	d001      	beq.n	10009e22 <tu_fifo_clear+0x3a>
10009e1e:	f000 ff87 	bl	1000ad30 <__mutex_exit_veneer>
10009e22:	2001      	movs	r0, #1
10009e24:	bd10      	pop	{r4, pc}

10009e26 <tu_fifo_set_overwritable>:
10009e26:	b570      	push	{r4, r5, r6, lr}
10009e28:	0004      	movs	r4, r0
10009e2a:	000d      	movs	r5, r1
10009e2c:	68c0      	ldr	r0, [r0, #12]
10009e2e:	2800      	cmp	r0, #0
10009e30:	d003      	beq.n	10009e3a <tu_fifo_set_overwritable+0x14>
10009e32:	2101      	movs	r1, #1
10009e34:	4249      	negs	r1, r1
10009e36:	f000 ffa3 	bl	1000ad80 <__mutex_enter_timeout_ms_veneer>
10009e3a:	6920      	ldr	r0, [r4, #16]
10009e3c:	2800      	cmp	r0, #0
10009e3e:	d003      	beq.n	10009e48 <tu_fifo_set_overwritable+0x22>
10009e40:	2101      	movs	r1, #1
10009e42:	4249      	negs	r1, r1
10009e44:	f000 ff9c 	bl	1000ad80 <__mutex_enter_timeout_ms_veneer>
10009e48:	01ed      	lsls	r5, r5, #7
10009e4a:	79e3      	ldrb	r3, [r4, #7]
10009e4c:	217f      	movs	r1, #127	@ 0x7f
10009e4e:	4019      	ands	r1, r3
10009e50:	4329      	orrs	r1, r5
10009e52:	71e1      	strb	r1, [r4, #7]
10009e54:	68e0      	ldr	r0, [r4, #12]
10009e56:	2800      	cmp	r0, #0
10009e58:	d001      	beq.n	10009e5e <tu_fifo_set_overwritable+0x38>
10009e5a:	f000 ff69 	bl	1000ad30 <__mutex_exit_veneer>
10009e5e:	6920      	ldr	r0, [r4, #16]
10009e60:	2800      	cmp	r0, #0
10009e62:	d001      	beq.n	10009e68 <tu_fifo_set_overwritable+0x42>
10009e64:	f000 ff64 	bl	1000ad30 <__mutex_exit_veneer>
10009e68:	2001      	movs	r0, #1
10009e6a:	bd70      	pop	{r4, r5, r6, pc}

10009e6c <core1_trampoline>:
10009e6c:	bd03      	pop	{r0, r1, pc}

10009e6e <core1_wrapper>:
10009e6e:	b510      	push	{r4, lr}
10009e70:	0004      	movs	r4, r0
10009e72:	f7f9 f901 	bl	10003078 <irq_init_priorities>
10009e76:	47a0      	blx	r4
10009e78:	bd10      	pop	{r4, pc}

10009e7a <multicore_fifo_push_blocking>:
10009e7a:	23d0      	movs	r3, #208	@ 0xd0
10009e7c:	061b      	lsls	r3, r3, #24
10009e7e:	6d1b      	ldr	r3, [r3, #80]	@ 0x50
10009e80:	079b      	lsls	r3, r3, #30
10009e82:	d5fa      	bpl.n	10009e7a <multicore_fifo_push_blocking>
10009e84:	23d0      	movs	r3, #208	@ 0xd0
10009e86:	061b      	lsls	r3, r3, #24
10009e88:	6558      	str	r0, [r3, #84]	@ 0x54
10009e8a:	bf40      	sev
10009e8c:	4770      	bx	lr

10009e8e <multicore_fifo_pop_blocking>:
10009e8e:	e000      	b.n	10009e92 <multicore_fifo_pop_blocking+0x4>
10009e90:	bf20      	wfe
10009e92:	23d0      	movs	r3, #208	@ 0xd0
10009e94:	061b      	lsls	r3, r3, #24
10009e96:	6d1b      	ldr	r3, [r3, #80]	@ 0x50
10009e98:	07db      	lsls	r3, r3, #31
10009e9a:	d5f9      	bpl.n	10009e90 <multicore_fifo_pop_blocking+0x2>
10009e9c:	23d0      	movs	r3, #208	@ 0xd0
10009e9e:	061b      	lsls	r3, r3, #24
10009ea0:	6d98      	ldr	r0, [r3, #88]	@ 0x58
10009ea2:	4770      	bx	lr

10009ea4 <multicore_launch_core1_raw>:
10009ea4:	b5f0      	push	{r4, r5, r6, r7, lr}
10009ea6:	b087      	sub	sp, #28
10009ea8:	0004      	movs	r4, r0
10009eaa:	000d      	movs	r5, r1
10009eac:	0017      	movs	r7, r2
10009eae:	200f      	movs	r0, #15
10009eb0:	f7f8 fe2e 	bl	10002b10 <irq_is_enabled>
10009eb4:	0006      	movs	r6, r0
10009eb6:	2100      	movs	r1, #0
10009eb8:	200f      	movs	r0, #15
10009eba:	f7f8 fe45 	bl	10002b48 <irq_set_enabled>
10009ebe:	2300      	movs	r3, #0
10009ec0:	9300      	str	r3, [sp, #0]
10009ec2:	9301      	str	r3, [sp, #4]
10009ec4:	3301      	adds	r3, #1
10009ec6:	9302      	str	r3, [sp, #8]
10009ec8:	9703      	str	r7, [sp, #12]
10009eca:	9504      	str	r5, [sp, #16]
10009ecc:	9405      	str	r4, [sp, #20]
10009ece:	2500      	movs	r5, #0
10009ed0:	e00c      	b.n	10009eec <multicore_launch_core1_raw+0x48>
10009ed2:	23d0      	movs	r3, #208	@ 0xd0
10009ed4:	061b      	lsls	r3, r3, #24
10009ed6:	6d9b      	ldr	r3, [r3, #88]	@ 0x58
10009ed8:	23d0      	movs	r3, #208	@ 0xd0
10009eda:	061b      	lsls	r3, r3, #24
10009edc:	6d1b      	ldr	r3, [r3, #80]	@ 0x50
10009ede:	07db      	lsls	r3, r3, #31
10009ee0:	d4f7      	bmi.n	10009ed2 <multicore_launch_core1_raw+0x2e>
10009ee2:	bf40      	sev
10009ee4:	e007      	b.n	10009ef6 <multicore_launch_core1_raw+0x52>
10009ee6:	3501      	adds	r5, #1
10009ee8:	2d05      	cmp	r5, #5
10009eea:	d80d      	bhi.n	10009f08 <multicore_launch_core1_raw+0x64>
10009eec:	00ab      	lsls	r3, r5, #2
10009eee:	466a      	mov	r2, sp
10009ef0:	589c      	ldr	r4, [r3, r2]
10009ef2:	2c00      	cmp	r4, #0
10009ef4:	d0f0      	beq.n	10009ed8 <multicore_launch_core1_raw+0x34>
10009ef6:	0020      	movs	r0, r4
10009ef8:	f7ff ffbf 	bl	10009e7a <multicore_fifo_push_blocking>
10009efc:	f7ff ffc7 	bl	10009e8e <multicore_fifo_pop_blocking>
10009f00:	4284      	cmp	r4, r0
10009f02:	d0f0      	beq.n	10009ee6 <multicore_launch_core1_raw+0x42>
10009f04:	2500      	movs	r5, #0
10009f06:	e7ef      	b.n	10009ee8 <multicore_launch_core1_raw+0x44>
10009f08:	0031      	movs	r1, r6
10009f0a:	200f      	movs	r0, #15
10009f0c:	f7f8 fe1c 	bl	10002b48 <irq_set_enabled>
10009f10:	b007      	add	sp, #28
10009f12:	bdf0      	pop	{r4, r5, r6, r7, pc}

10009f14 <multicore_launch_core1_with_stack>:
10009f14:	b510      	push	{r4, lr}
10009f16:	000b      	movs	r3, r1
10009f18:	0791      	lsls	r1, r2, #30
10009f1a:	d111      	bne.n	10009f40 <multicore_launch_core1_with_stack+0x2c>
10009f1c:	2103      	movs	r1, #3
10009f1e:	438a      	bics	r2, r1
10009f20:	189a      	adds	r2, r3, r2
10009f22:	0011      	movs	r1, r2
10009f24:	390c      	subs	r1, #12
10009f26:	6008      	str	r0, [r1, #0]
10009f28:	0010      	movs	r0, r2
10009f2a:	3808      	subs	r0, #8
10009f2c:	6003      	str	r3, [r0, #0]
10009f2e:	4b07      	ldr	r3, [pc, #28]	@ (10009f4c <multicore_launch_core1_with_stack+0x38>)
10009f30:	3a04      	subs	r2, #4
10009f32:	6013      	str	r3, [r2, #0]
10009f34:	4b06      	ldr	r3, [pc, #24]	@ (10009f50 <multicore_launch_core1_with_stack+0x3c>)
10009f36:	689a      	ldr	r2, [r3, #8]
10009f38:	4806      	ldr	r0, [pc, #24]	@ (10009f54 <multicore_launch_core1_with_stack+0x40>)
10009f3a:	f7ff ffb3 	bl	10009ea4 <multicore_launch_core1_raw>
10009f3e:	bd10      	pop	{r4, pc}
10009f40:	4b05      	ldr	r3, [pc, #20]	@ (10009f58 <multicore_launch_core1_with_stack+0x44>)
10009f42:	4a06      	ldr	r2, [pc, #24]	@ (10009f5c <multicore_launch_core1_with_stack+0x48>)
10009f44:	4806      	ldr	r0, [pc, #24]	@ (10009f60 <multicore_launch_core1_with_stack+0x4c>)
10009f46:	2176      	movs	r1, #118	@ 0x76
10009f48:	f7fa fb02 	bl	10004550 <__assert_func>
10009f4c:	10009e6f 	.word	0x10009e6f
10009f50:	e000ed00 	.word	0xe000ed00
10009f54:	10009e6d 	.word	0x10009e6d
10009f58:	1000c368 	.word	0x1000c368
10009f5c:	1000cb08 	.word	0x1000cb08
10009f60:	1000c320 	.word	0x1000c320

10009f64 <multicore_launch_core1>:
10009f64:	b510      	push	{r4, lr}
10009f66:	4b06      	ldr	r3, [pc, #24]	@ (10009f80 <multicore_launch_core1+0x1c>)
10009f68:	4a06      	ldr	r2, [pc, #24]	@ (10009f84 <multicore_launch_core1+0x20>)
10009f6a:	4293      	cmp	r3, r2
10009f6c:	d305      	bcc.n	10009f7a <multicore_launch_core1+0x16>
10009f6e:	0019      	movs	r1, r3
10009f70:	2280      	movs	r2, #128	@ 0x80
10009f72:	0112      	lsls	r2, r2, #4
10009f74:	f7ff ffce 	bl	10009f14 <multicore_launch_core1_with_stack>
10009f78:	bd10      	pop	{r4, pc}
10009f7a:	2101      	movs	r1, #1
10009f7c:	4249      	negs	r1, r1
10009f7e:	e7f7      	b.n	10009f70 <multicore_launch_core1+0xc>
10009f80:	20040800 	.word	0x20040800
10009f84:	20040000 	.word	0x20040000

10009f88 <i2c_write_blocking_internal>:
10009f88:	b5f0      	push	{r4, r5, r6, r7, lr}
10009f8a:	46de      	mov	lr, fp
10009f8c:	4657      	mov	r7, sl
10009f8e:	464e      	mov	r6, r9
10009f90:	4645      	mov	r5, r8
10009f92:	b5e0      	push	{r5, r6, r7, lr}
10009f94:	b085      	sub	sp, #20
10009f96:	0007      	movs	r7, r0
10009f98:	0010      	movs	r0, r2
10009f9a:	4698      	mov	r8, r3
10009f9c:	ab0e      	add	r3, sp, #56	@ 0x38
10009f9e:	781b      	ldrb	r3, [r3, #0]
10009fa0:	9303      	str	r3, [sp, #12]
10009fa2:	9d0f      	ldr	r5, [sp, #60]	@ 0x3c
10009fa4:	9e10      	ldr	r6, [sp, #64]	@ 0x40
10009fa6:	683b      	ldr	r3, [r7, #0]
10009fa8:	2200      	movs	r2, #0
10009faa:	66da      	str	r2, [r3, #108]	@ 0x6c
10009fac:	683b      	ldr	r3, [r7, #0]
10009fae:	6059      	str	r1, [r3, #4]
10009fb0:	683b      	ldr	r3, [r7, #0]
10009fb2:	3201      	adds	r2, #1
10009fb4:	66da      	str	r2, [r3, #108]	@ 0x6c
10009fb6:	2200      	movs	r2, #0
10009fb8:	2300      	movs	r3, #0
10009fba:	4699      	mov	r9, r3
10009fbc:	2400      	movs	r4, #0
10009fbe:	46c3      	mov	fp, r8
10009fc0:	4641      	mov	r1, r8
10009fc2:	9102      	str	r1, [sp, #8]
10009fc4:	4690      	mov	r8, r2
10009fc6:	e02b      	b.n	1000a020 <i2c_write_blocking_internal+0x98>
10009fc8:	793a      	ldrb	r2, [r7, #4]
10009fca:	2a00      	cmp	r2, #0
10009fcc:	d031      	beq.n	1000a032 <i2c_write_blocking_internal+0xaa>
10009fce:	2201      	movs	r2, #1
10009fd0:	e02f      	b.n	1000a032 <i2c_write_blocking_internal+0xaa>
10009fd2:	9903      	ldr	r1, [sp, #12]
10009fd4:	2900      	cmp	r1, #0
10009fd6:	d001      	beq.n	10009fdc <i2c_write_blocking_internal+0x54>
10009fd8:	2100      	movs	r1, #0
10009fda:	e02e      	b.n	1000a03a <i2c_write_blocking_internal+0xb2>
10009fdc:	2101      	movs	r1, #1
10009fde:	e02c      	b.n	1000a03a <i2c_write_blocking_internal+0xb2>
10009fe0:	0030      	movs	r0, r6
10009fe2:	47a8      	blx	r5
10009fe4:	0003      	movs	r3, r0
10009fe6:	4304      	orrs	r4, r0
10009fe8:	b2e4      	uxtb	r4, r4
10009fea:	2b00      	cmp	r3, #0
10009fec:	d106      	bne.n	10009ffc <i2c_write_blocking_internal+0x74>
10009fee:	683a      	ldr	r2, [r7, #0]
10009ff0:	6b52      	ldr	r2, [r2, #52]	@ 0x34
10009ff2:	06d2      	lsls	r2, r2, #27
10009ff4:	d402      	bmi.n	10009ffc <i2c_write_blocking_internal+0x74>
10009ff6:	2d00      	cmp	r5, #0
10009ff8:	d1f2      	bne.n	10009fe0 <i2c_write_blocking_internal+0x58>
10009ffa:	e7f6      	b.n	10009fea <i2c_write_blocking_internal+0x62>
10009ffc:	2b00      	cmp	r3, #0
10009ffe:	d109      	bne.n	1000a014 <i2c_write_blocking_internal+0x8c>
1000a000:	683a      	ldr	r2, [r7, #0]
1000a002:	2180      	movs	r1, #128	@ 0x80
1000a004:	5851      	ldr	r1, [r2, r1]
1000a006:	4689      	mov	r9, r1
1000a008:	2900      	cmp	r1, #0
1000a00a:	d11f      	bne.n	1000a04c <i2c_write_blocking_internal+0xc4>
1000a00c:	2c00      	cmp	r4, #0
1000a00e:	d12f      	bne.n	1000a070 <i2c_write_blocking_internal+0xe8>
1000a010:	45c2      	cmp	sl, r8
1000a012:	d01e      	beq.n	1000a052 <i2c_write_blocking_internal+0xca>
1000a014:	2c00      	cmp	r4, #0
1000a016:	d133      	bne.n	1000a080 <i2c_write_blocking_internal+0xf8>
1000a018:	2201      	movs	r2, #1
1000a01a:	4694      	mov	ip, r2
1000a01c:	44e0      	add	r8, ip
1000a01e:	9801      	ldr	r0, [sp, #4]
1000a020:	45d8      	cmp	r8, fp
1000a022:	da2d      	bge.n	1000a080 <i2c_write_blocking_internal+0xf8>
1000a024:	9a02      	ldr	r2, [sp, #8]
1000a026:	3a01      	subs	r2, #1
1000a028:	4692      	mov	sl, r2
1000a02a:	4642      	mov	r2, r8
1000a02c:	2a00      	cmp	r2, #0
1000a02e:	d0cb      	beq.n	10009fc8 <i2c_write_blocking_internal+0x40>
1000a030:	2200      	movs	r2, #0
1000a032:	0292      	lsls	r2, r2, #10
1000a034:	45c2      	cmp	sl, r8
1000a036:	d0cc      	beq.n	10009fd2 <i2c_write_blocking_internal+0x4a>
1000a038:	2100      	movs	r1, #0
1000a03a:	0249      	lsls	r1, r1, #9
1000a03c:	430a      	orrs	r2, r1
1000a03e:	1c41      	adds	r1, r0, #1
1000a040:	9101      	str	r1, [sp, #4]
1000a042:	7800      	ldrb	r0, [r0, #0]
1000a044:	6839      	ldr	r1, [r7, #0]
1000a046:	4302      	orrs	r2, r0
1000a048:	610a      	str	r2, [r1, #16]
1000a04a:	e7d4      	b.n	10009ff6 <i2c_write_blocking_internal+0x6e>
1000a04c:	6d52      	ldr	r2, [r2, #84]	@ 0x54
1000a04e:	2401      	movs	r4, #1
1000a050:	e00e      	b.n	1000a070 <i2c_write_blocking_internal+0xe8>
1000a052:	9a03      	ldr	r2, [sp, #12]
1000a054:	2a00      	cmp	r2, #0
1000a056:	d1dd      	bne.n	1000a014 <i2c_write_blocking_internal+0x8c>
1000a058:	e00a      	b.n	1000a070 <i2c_write_blocking_internal+0xe8>
1000a05a:	0030      	movs	r0, r6
1000a05c:	47a8      	blx	r5
1000a05e:	0003      	movs	r3, r0
1000a060:	4304      	orrs	r4, r0
1000a062:	b2e4      	uxtb	r4, r4
1000a064:	2b00      	cmp	r3, #0
1000a066:	d106      	bne.n	1000a076 <i2c_write_blocking_internal+0xee>
1000a068:	683a      	ldr	r2, [r7, #0]
1000a06a:	6b52      	ldr	r2, [r2, #52]	@ 0x34
1000a06c:	0592      	lsls	r2, r2, #22
1000a06e:	d402      	bmi.n	1000a076 <i2c_write_blocking_internal+0xee>
1000a070:	2d00      	cmp	r5, #0
1000a072:	d1f2      	bne.n	1000a05a <i2c_write_blocking_internal+0xd2>
1000a074:	e7f6      	b.n	1000a064 <i2c_write_blocking_internal+0xdc>
1000a076:	2b00      	cmp	r3, #0
1000a078:	d1cc      	bne.n	1000a014 <i2c_write_blocking_internal+0x8c>
1000a07a:	683a      	ldr	r2, [r7, #0]
1000a07c:	6e12      	ldr	r2, [r2, #96]	@ 0x60
1000a07e:	e7c9      	b.n	1000a014 <i2c_write_blocking_internal+0x8c>
1000a080:	4642      	mov	r2, r8
1000a082:	2c00      	cmp	r4, #0
1000a084:	d009      	beq.n	1000a09a <i2c_write_blocking_internal+0x112>
1000a086:	2b00      	cmp	r3, #0
1000a088:	d111      	bne.n	1000a0ae <i2c_write_blocking_internal+0x126>
1000a08a:	464b      	mov	r3, r9
1000a08c:	2b00      	cmp	r3, #0
1000a08e:	d012      	beq.n	1000a0b6 <i2c_write_blocking_internal+0x12e>
1000a090:	07db      	lsls	r3, r3, #31
1000a092:	d414      	bmi.n	1000a0be <i2c_write_blocking_internal+0x136>
1000a094:	464b      	mov	r3, r9
1000a096:	071b      	lsls	r3, r3, #28
1000a098:	d515      	bpl.n	1000a0c6 <i2c_write_blocking_internal+0x13e>
1000a09a:	9b03      	ldr	r3, [sp, #12]
1000a09c:	713b      	strb	r3, [r7, #4]
1000a09e:	0010      	movs	r0, r2
1000a0a0:	b005      	add	sp, #20
1000a0a2:	bcf0      	pop	{r4, r5, r6, r7}
1000a0a4:	46bb      	mov	fp, r7
1000a0a6:	46b2      	mov	sl, r6
1000a0a8:	46a9      	mov	r9, r5
1000a0aa:	46a0      	mov	r8, r4
1000a0ac:	bdf0      	pop	{r4, r5, r6, r7, pc}
1000a0ae:	2301      	movs	r3, #1
1000a0b0:	425b      	negs	r3, r3
1000a0b2:	001a      	movs	r2, r3
1000a0b4:	e7f1      	b.n	1000a09a <i2c_write_blocking_internal+0x112>
1000a0b6:	2302      	movs	r3, #2
1000a0b8:	425b      	negs	r3, r3
1000a0ba:	001a      	movs	r2, r3
1000a0bc:	e7ed      	b.n	1000a09a <i2c_write_blocking_internal+0x112>
1000a0be:	2302      	movs	r3, #2
1000a0c0:	425b      	negs	r3, r3
1000a0c2:	001a      	movs	r2, r3
1000a0c4:	e7e9      	b.n	1000a09a <i2c_write_blocking_internal+0x112>
1000a0c6:	2302      	movs	r3, #2
1000a0c8:	425b      	negs	r3, r3
1000a0ca:	001a      	movs	r2, r3
1000a0cc:	e7e5      	b.n	1000a09a <i2c_write_blocking_internal+0x112>

1000a0ce <i2c_read_blocking_internal>:
1000a0ce:	b5f0      	push	{r4, r5, r6, r7, lr}
1000a0d0:	46de      	mov	lr, fp
1000a0d2:	4657      	mov	r7, sl
1000a0d4:	464e      	mov	r6, r9
1000a0d6:	4645      	mov	r5, r8
1000a0d8:	b5e0      	push	{r5, r6, r7, lr}
1000a0da:	b083      	sub	sp, #12
1000a0dc:	0005      	movs	r5, r0
1000a0de:	4692      	mov	sl, r2
1000a0e0:	0018      	movs	r0, r3
1000a0e2:	9301      	str	r3, [sp, #4]
1000a0e4:	ab0c      	add	r3, sp, #48	@ 0x30
1000a0e6:	781a      	ldrb	r2, [r3, #0]
1000a0e8:	4693      	mov	fp, r2
1000a0ea:	9e0d      	ldr	r6, [sp, #52]	@ 0x34
1000a0ec:	9f0e      	ldr	r7, [sp, #56]	@ 0x38
1000a0ee:	682b      	ldr	r3, [r5, #0]
1000a0f0:	2200      	movs	r2, #0
1000a0f2:	66da      	str	r2, [r3, #108]	@ 0x6c
1000a0f4:	682b      	ldr	r3, [r5, #0]
1000a0f6:	6059      	str	r1, [r3, #4]
1000a0f8:	682b      	ldr	r3, [r5, #0]
1000a0fa:	3201      	adds	r2, #1
1000a0fc:	66da      	str	r2, [r3, #108]	@ 0x6c
1000a0fe:	4681      	mov	r9, r0
1000a100:	2300      	movs	r3, #0
1000a102:	4698      	mov	r8, r3
1000a104:	2400      	movs	r4, #0
1000a106:	45c8      	cmp	r8, r9
1000a108:	da3f      	bge.n	1000a18a <i2c_read_blocking_internal+0xbc>
1000a10a:	9a01      	ldr	r2, [sp, #4]
1000a10c:	1e54      	subs	r4, r2, #1
1000a10e:	682a      	ldr	r2, [r5, #0]
1000a110:	6f51      	ldr	r1, [r2, #116]	@ 0x74
1000a112:	2910      	cmp	r1, #16
1000a114:	d0fb      	beq.n	1000a10e <i2c_read_blocking_internal+0x40>
1000a116:	4641      	mov	r1, r8
1000a118:	2900      	cmp	r1, #0
1000a11a:	d00b      	beq.n	1000a134 <i2c_read_blocking_internal+0x66>
1000a11c:	2000      	movs	r0, #0
1000a11e:	0280      	lsls	r0, r0, #10
1000a120:	4544      	cmp	r4, r8
1000a122:	d00e      	beq.n	1000a142 <i2c_read_blocking_internal+0x74>
1000a124:	2100      	movs	r1, #0
1000a126:	0249      	lsls	r1, r1, #9
1000a128:	4308      	orrs	r0, r1
1000a12a:	2180      	movs	r1, #128	@ 0x80
1000a12c:	0049      	lsls	r1, r1, #1
1000a12e:	4301      	orrs	r1, r0
1000a130:	6111      	str	r1, [r2, #16]
1000a132:	e018      	b.n	1000a166 <i2c_read_blocking_internal+0x98>
1000a134:	7929      	ldrb	r1, [r5, #4]
1000a136:	2900      	cmp	r1, #0
1000a138:	d101      	bne.n	1000a13e <i2c_read_blocking_internal+0x70>
1000a13a:	2000      	movs	r0, #0
1000a13c:	e7ef      	b.n	1000a11e <i2c_read_blocking_internal+0x50>
1000a13e:	2001      	movs	r0, #1
1000a140:	e7ed      	b.n	1000a11e <i2c_read_blocking_internal+0x50>
1000a142:	4659      	mov	r1, fp
1000a144:	2900      	cmp	r1, #0
1000a146:	d001      	beq.n	1000a14c <i2c_read_blocking_internal+0x7e>
1000a148:	2100      	movs	r1, #0
1000a14a:	e7ec      	b.n	1000a126 <i2c_read_blocking_internal+0x58>
1000a14c:	2101      	movs	r1, #1
1000a14e:	e7ea      	b.n	1000a126 <i2c_read_blocking_internal+0x58>
1000a150:	0038      	movs	r0, r7
1000a152:	47b0      	blx	r6
1000a154:	0003      	movs	r3, r0
1000a156:	4304      	orrs	r4, r0
1000a158:	b2e4      	uxtb	r4, r4
1000a15a:	2c00      	cmp	r4, #0
1000a15c:	d115      	bne.n	1000a18a <i2c_read_blocking_internal+0xbc>
1000a15e:	682a      	ldr	r2, [r5, #0]
1000a160:	6f91      	ldr	r1, [r2, #120]	@ 0x78
1000a162:	2900      	cmp	r1, #0
1000a164:	d109      	bne.n	1000a17a <i2c_read_blocking_internal+0xac>
1000a166:	682a      	ldr	r2, [r5, #0]
1000a168:	2180      	movs	r1, #128	@ 0x80
1000a16a:	5851      	ldr	r1, [r2, r1]
1000a16c:	6d54      	ldr	r4, [r2, #84]	@ 0x54
1000a16e:	1e62      	subs	r2, r4, #1
1000a170:	4194      	sbcs	r4, r2
1000a172:	b2e4      	uxtb	r4, r4
1000a174:	2e00      	cmp	r6, #0
1000a176:	d1eb      	bne.n	1000a150 <i2c_read_blocking_internal+0x82>
1000a178:	e7ef      	b.n	1000a15a <i2c_read_blocking_internal+0x8c>
1000a17a:	6912      	ldr	r2, [r2, #16]
1000a17c:	4651      	mov	r1, sl
1000a17e:	700a      	strb	r2, [r1, #0]
1000a180:	2201      	movs	r2, #1
1000a182:	4694      	mov	ip, r2
1000a184:	44e0      	add	r8, ip
1000a186:	44e2      	add	sl, ip
1000a188:	e7bd      	b.n	1000a106 <i2c_read_blocking_internal+0x38>
1000a18a:	2c00      	cmp	r4, #0
1000a18c:	d004      	beq.n	1000a198 <i2c_read_blocking_internal+0xca>
1000a18e:	2b00      	cmp	r3, #0
1000a190:	d00c      	beq.n	1000a1ac <i2c_read_blocking_internal+0xde>
1000a192:	2301      	movs	r3, #1
1000a194:	425b      	negs	r3, r3
1000a196:	4698      	mov	r8, r3
1000a198:	465b      	mov	r3, fp
1000a19a:	712b      	strb	r3, [r5, #4]
1000a19c:	4640      	mov	r0, r8
1000a19e:	b003      	add	sp, #12
1000a1a0:	bcf0      	pop	{r4, r5, r6, r7}
1000a1a2:	46bb      	mov	fp, r7
1000a1a4:	46b2      	mov	sl, r6
1000a1a6:	46a9      	mov	r9, r5
1000a1a8:	46a0      	mov	r8, r4
1000a1aa:	bdf0      	pop	{r4, r5, r6, r7, pc}
1000a1ac:	2302      	movs	r3, #2
1000a1ae:	425b      	negs	r3, r3
1000a1b0:	4698      	mov	r8, r3
1000a1b2:	e7f1      	b.n	1000a198 <i2c_read_blocking_internal+0xca>

1000a1b4 <i2c_set_baudrate>:
1000a1b4:	b5f0      	push	{r4, r5, r6, r7, lr}
1000a1b6:	46d6      	mov	lr, sl
1000a1b8:	464f      	mov	r7, r9
1000a1ba:	4646      	mov	r6, r8
1000a1bc:	b5c0      	push	{r6, r7, lr}
1000a1be:	0005      	movs	r5, r0
1000a1c0:	000c      	movs	r4, r1
1000a1c2:	2005      	movs	r0, #5
1000a1c4:	f7fa f886 	bl	100042d4 <clock_get_hz>
1000a1c8:	0006      	movs	r6, r0
1000a1ca:	0860      	lsrs	r0, r4, #1
1000a1cc:	1980      	adds	r0, r0, r6
1000a1ce:	0021      	movs	r1, r4
1000a1d0:	f7fb fba6 	bl	10005920 <__wrap___aeabi_uidiv>
1000a1d4:	0007      	movs	r7, r0
1000a1d6:	0043      	lsls	r3, r0, #1
1000a1d8:	4699      	mov	r9, r3
1000a1da:	4481      	add	r9, r0
1000a1dc:	2105      	movs	r1, #5
1000a1de:	4648      	mov	r0, r9
1000a1e0:	f7fb fb9e 	bl	10005920 <__wrap___aeabi_uidiv>
1000a1e4:	4680      	mov	r8, r0
1000a1e6:	1a3b      	subs	r3, r7, r0
1000a1e8:	469a      	mov	sl, r3
1000a1ea:	4b28      	ldr	r3, [pc, #160]	@ (1000a28c <i2c_set_baudrate+0xd8>)
1000a1ec:	429c      	cmp	r4, r3
1000a1ee:	d824      	bhi.n	1000a23a <i2c_set_baudrate+0x86>
1000a1f0:	0070      	lsls	r0, r6, #1
1000a1f2:	1980      	adds	r0, r0, r6
1000a1f4:	4926      	ldr	r1, [pc, #152]	@ (1000a290 <i2c_set_baudrate+0xdc>)
1000a1f6:	f7fb fb93 	bl	10005920 <__wrap___aeabi_uidiv>
1000a1fa:	1c44      	adds	r4, r0, #1
1000a1fc:	4643      	mov	r3, r8
1000a1fe:	3b02      	subs	r3, #2
1000a200:	42a3      	cmp	r3, r4
1000a202:	d321      	bcc.n	1000a248 <i2c_set_baudrate+0x94>
1000a204:	682b      	ldr	r3, [r5, #0]
1000a206:	2200      	movs	r2, #0
1000a208:	66da      	str	r2, [r3, #108]	@ 0x6c
1000a20a:	6829      	ldr	r1, [r5, #0]
1000a20c:	680b      	ldr	r3, [r1, #0]
1000a20e:	3204      	adds	r2, #4
1000a210:	4053      	eors	r3, r2
1000a212:	3202      	adds	r2, #2
1000a214:	401a      	ands	r2, r3
1000a216:	2380      	movs	r3, #128	@ 0x80
1000a218:	015b      	lsls	r3, r3, #5
1000a21a:	430b      	orrs	r3, r1
1000a21c:	601a      	str	r2, [r3, #0]
1000a21e:	682b      	ldr	r3, [r5, #0]
1000a220:	4652      	mov	r2, sl
1000a222:	61da      	str	r2, [r3, #28]
1000a224:	682b      	ldr	r3, [r5, #0]
1000a226:	4642      	mov	r2, r8
1000a228:	621a      	str	r2, [r3, #32]
1000a22a:	464b      	mov	r3, r9
1000a22c:	2b4f      	cmp	r3, #79	@ 0x4f
1000a22e:	d911      	bls.n	1000a254 <i2c_set_baudrate+0xa0>
1000a230:	2150      	movs	r1, #80	@ 0x50
1000a232:	4648      	mov	r0, r9
1000a234:	f7fb fb74 	bl	10005920 <__wrap___aeabi_uidiv>
1000a238:	e00d      	b.n	1000a256 <i2c_set_baudrate+0xa2>
1000a23a:	0070      	lsls	r0, r6, #1
1000a23c:	1980      	adds	r0, r0, r6
1000a23e:	4915      	ldr	r1, [pc, #84]	@ (1000a294 <i2c_set_baudrate+0xe0>)
1000a240:	f7fb fb6e 	bl	10005920 <__wrap___aeabi_uidiv>
1000a244:	1c44      	adds	r4, r0, #1
1000a246:	e7d9      	b.n	1000a1fc <i2c_set_baudrate+0x48>
1000a248:	4b13      	ldr	r3, [pc, #76]	@ (1000a298 <i2c_set_baudrate+0xe4>)
1000a24a:	4a14      	ldr	r2, [pc, #80]	@ (1000a29c <i2c_set_baudrate+0xe8>)
1000a24c:	4814      	ldr	r0, [pc, #80]	@ (1000a2a0 <i2c_set_baudrate+0xec>)
1000a24e:	215d      	movs	r1, #93	@ 0x5d
1000a250:	f7fa f97e 	bl	10004550 <__assert_func>
1000a254:	2001      	movs	r0, #1
1000a256:	682a      	ldr	r2, [r5, #0]
1000a258:	23a0      	movs	r3, #160	@ 0xa0
1000a25a:	50d0      	str	r0, [r2, r3]
1000a25c:	682b      	ldr	r3, [r5, #0]
1000a25e:	001a      	movs	r2, r3
1000a260:	327c      	adds	r2, #124	@ 0x7c
1000a262:	6fdb      	ldr	r3, [r3, #124]	@ 0x7c
1000a264:	405c      	eors	r4, r3
1000a266:	0424      	lsls	r4, r4, #16
1000a268:	0c24      	lsrs	r4, r4, #16
1000a26a:	2380      	movs	r3, #128	@ 0x80
1000a26c:	015b      	lsls	r3, r3, #5
1000a26e:	4313      	orrs	r3, r2
1000a270:	601c      	str	r4, [r3, #0]
1000a272:	682b      	ldr	r3, [r5, #0]
1000a274:	2201      	movs	r2, #1
1000a276:	66da      	str	r2, [r3, #108]	@ 0x6c
1000a278:	0039      	movs	r1, r7
1000a27a:	0030      	movs	r0, r6
1000a27c:	f7fb fb50 	bl	10005920 <__wrap___aeabi_uidiv>
1000a280:	bce0      	pop	{r5, r6, r7}
1000a282:	46ba      	mov	sl, r7
1000a284:	46b1      	mov	r9, r6
1000a286:	46a8      	mov	r8, r5
1000a288:	bdf0      	pop	{r4, r5, r6, r7, pc}
1000a28a:	46c0      	nop			@ (mov r8, r8)
1000a28c:	000f423f 	.word	0x000f423f
1000a290:	00989680 	.word	0x00989680
1000a294:	017d7840 	.word	0x017d7840
1000a298:	1000c384 	.word	0x1000c384
1000a29c:	1000cb2c 	.word	0x1000cb2c
1000a2a0:	1000c3a4 	.word	0x1000c3a4

1000a2a4 <i2c_init>:
1000a2a4:	b510      	push	{r4, lr}
1000a2a6:	4b11      	ldr	r3, [pc, #68]	@ (1000a2ec <i2c_init+0x48>)
1000a2a8:	4298      	cmp	r0, r3
1000a2aa:	d01d      	beq.n	1000a2e8 <i2c_init+0x44>
1000a2ac:	2210      	movs	r2, #16
1000a2ae:	4b10      	ldr	r3, [pc, #64]	@ (1000a2f0 <i2c_init+0x4c>)
1000a2b0:	601a      	str	r2, [r3, #0]
1000a2b2:	4b10      	ldr	r3, [pc, #64]	@ (1000a2f4 <i2c_init+0x50>)
1000a2b4:	601a      	str	r2, [r3, #0]
1000a2b6:	4b10      	ldr	r3, [pc, #64]	@ (1000a2f8 <i2c_init+0x54>)
1000a2b8:	689b      	ldr	r3, [r3, #8]
1000a2ba:	0014      	movs	r4, r2
1000a2bc:	439c      	bics	r4, r3
1000a2be:	1e23      	subs	r3, r4, #0
1000a2c0:	d1f9      	bne.n	1000a2b6 <i2c_init+0x12>
1000a2c2:	7104      	strb	r4, [r0, #4]
1000a2c4:	6802      	ldr	r2, [r0, #0]
1000a2c6:	66d4      	str	r4, [r2, #108]	@ 0x6c
1000a2c8:	6802      	ldr	r2, [r0, #0]
1000a2ca:	2466      	movs	r4, #102	@ 0x66
1000a2cc:	34ff      	adds	r4, #255	@ 0xff
1000a2ce:	6014      	str	r4, [r2, #0]
1000a2d0:	6802      	ldr	r2, [r0, #0]
1000a2d2:	63d3      	str	r3, [r2, #60]	@ 0x3c
1000a2d4:	6802      	ldr	r2, [r0, #0]
1000a2d6:	6393      	str	r3, [r2, #56]	@ 0x38
1000a2d8:	6802      	ldr	r2, [r0, #0]
1000a2da:	3388      	adds	r3, #136	@ 0x88
1000a2dc:	3c63      	subs	r4, #99	@ 0x63
1000a2de:	3cff      	subs	r4, #255	@ 0xff
1000a2e0:	50d4      	str	r4, [r2, r3]
1000a2e2:	f7ff ff67 	bl	1000a1b4 <i2c_set_baudrate>
1000a2e6:	bd10      	pop	{r4, pc}
1000a2e8:	2208      	movs	r2, #8
1000a2ea:	e7e0      	b.n	1000a2ae <i2c_init+0xa>
1000a2ec:	20000ea0 	.word	0x20000ea0
1000a2f0:	4000e000 	.word	0x4000e000
1000a2f4:	4000f000 	.word	0x4000f000
1000a2f8:	4000c000 	.word	0x4000c000

1000a2fc <i2c_write_blocking>:
1000a2fc:	b530      	push	{r4, r5, lr}
1000a2fe:	b085      	sub	sp, #20
1000a300:	ac08      	add	r4, sp, #32
1000a302:	7825      	ldrb	r5, [r4, #0]
1000a304:	2400      	movs	r4, #0
1000a306:	9402      	str	r4, [sp, #8]
1000a308:	9401      	str	r4, [sp, #4]
1000a30a:	9500      	str	r5, [sp, #0]
1000a30c:	f7ff fe3c 	bl	10009f88 <i2c_write_blocking_internal>
1000a310:	b005      	add	sp, #20
1000a312:	bd30      	pop	{r4, r5, pc}

1000a314 <i2c_read_blocking>:
1000a314:	b530      	push	{r4, r5, lr}
1000a316:	b085      	sub	sp, #20
1000a318:	ac08      	add	r4, sp, #32
1000a31a:	7825      	ldrb	r5, [r4, #0]
1000a31c:	2400      	movs	r4, #0
1000a31e:	9402      	str	r4, [sp, #8]
1000a320:	9401      	str	r4, [sp, #4]
1000a322:	9500      	str	r5, [sp, #0]
1000a324:	f7ff fed3 	bl	1000a0ce <i2c_read_blocking_internal>
1000a328:	b005      	add	sp, #20
1000a32a:	bd30      	pop	{r4, r5, pc}

1000a32c <_malloc_r>:
1000a32c:	b5f0      	push	{r4, r5, r6, r7, lr}
1000a32e:	464e      	mov	r6, r9
1000a330:	4645      	mov	r5, r8
1000a332:	46de      	mov	lr, fp
1000a334:	4657      	mov	r7, sl
1000a336:	b5e0      	push	{r5, r6, r7, lr}
1000a338:	000d      	movs	r5, r1
1000a33a:	350b      	adds	r5, #11
1000a33c:	0006      	movs	r6, r0
1000a33e:	b085      	sub	sp, #20
1000a340:	2d16      	cmp	r5, #22
1000a342:	d827      	bhi.n	1000a394 <_malloc_r+0x68>
1000a344:	2910      	cmp	r1, #16
1000a346:	d900      	bls.n	1000a34a <_malloc_r+0x1e>
1000a348:	e0da      	b.n	1000a500 <_malloc_r+0x1d4>
1000a34a:	f000 fc2f 	bl	1000abac <__malloc_lock>
1000a34e:	2510      	movs	r5, #16
1000a350:	2318      	movs	r3, #24
1000a352:	2102      	movs	r1, #2
1000a354:	4fc8      	ldr	r7, [pc, #800]	@ (1000a678 <_malloc_r+0x34c>)
1000a356:	18fb      	adds	r3, r7, r3
1000a358:	001a      	movs	r2, r3
1000a35a:	685c      	ldr	r4, [r3, #4]
1000a35c:	3a08      	subs	r2, #8
1000a35e:	4294      	cmp	r4, r2
1000a360:	d100      	bne.n	1000a364 <_malloc_r+0x38>
1000a362:	e147      	b.n	1000a5f4 <_malloc_r+0x2c8>
1000a364:	2203      	movs	r2, #3
1000a366:	6863      	ldr	r3, [r4, #4]
1000a368:	68a1      	ldr	r1, [r4, #8]
1000a36a:	4393      	bics	r3, r2
1000a36c:	68e2      	ldr	r2, [r4, #12]
1000a36e:	60ca      	str	r2, [r1, #12]
1000a370:	6091      	str	r1, [r2, #8]
1000a372:	2101      	movs	r1, #1
1000a374:	18e3      	adds	r3, r4, r3
1000a376:	685a      	ldr	r2, [r3, #4]
1000a378:	0030      	movs	r0, r6
1000a37a:	430a      	orrs	r2, r1
1000a37c:	605a      	str	r2, [r3, #4]
1000a37e:	f000 fc17 	bl	1000abb0 <__malloc_unlock>
1000a382:	0020      	movs	r0, r4
1000a384:	3008      	adds	r0, #8
1000a386:	b005      	add	sp, #20
1000a388:	bcf0      	pop	{r4, r5, r6, r7}
1000a38a:	46bb      	mov	fp, r7
1000a38c:	46b2      	mov	sl, r6
1000a38e:	46a9      	mov	r9, r5
1000a390:	46a0      	mov	r8, r4
1000a392:	bdf0      	pop	{r4, r5, r6, r7, pc}
1000a394:	2307      	movs	r3, #7
1000a396:	439d      	bics	r5, r3
1000a398:	d500      	bpl.n	1000a39c <_malloc_r+0x70>
1000a39a:	e0b1      	b.n	1000a500 <_malloc_r+0x1d4>
1000a39c:	42a9      	cmp	r1, r5
1000a39e:	d900      	bls.n	1000a3a2 <_malloc_r+0x76>
1000a3a0:	e0ae      	b.n	1000a500 <_malloc_r+0x1d4>
1000a3a2:	f000 fc03 	bl	1000abac <__malloc_lock>
1000a3a6:	23fc      	movs	r3, #252	@ 0xfc
1000a3a8:	005b      	lsls	r3, r3, #1
1000a3aa:	429d      	cmp	r5, r3
1000a3ac:	d200      	bcs.n	1000a3b0 <_malloc_r+0x84>
1000a3ae:	e196      	b.n	1000a6de <_malloc_r+0x3b2>
1000a3b0:	0a69      	lsrs	r1, r5, #9
1000a3b2:	d100      	bne.n	1000a3b6 <_malloc_r+0x8a>
1000a3b4:	e0a8      	b.n	1000a508 <_malloc_r+0x1dc>
1000a3b6:	2904      	cmp	r1, #4
1000a3b8:	d900      	bls.n	1000a3bc <_malloc_r+0x90>
1000a3ba:	e150      	b.n	1000a65e <_malloc_r+0x332>
1000a3bc:	2338      	movs	r3, #56	@ 0x38
1000a3be:	4698      	mov	r8, r3
1000a3c0:	09a9      	lsrs	r1, r5, #6
1000a3c2:	4488      	add	r8, r1
1000a3c4:	3139      	adds	r1, #57	@ 0x39
1000a3c6:	00cb      	lsls	r3, r1, #3
1000a3c8:	2208      	movs	r2, #8
1000a3ca:	4252      	negs	r2, r2
1000a3cc:	4694      	mov	ip, r2
1000a3ce:	4faa      	ldr	r7, [pc, #680]	@ (1000a678 <_malloc_r+0x34c>)
1000a3d0:	18fb      	adds	r3, r7, r3
1000a3d2:	449c      	add	ip, r3
1000a3d4:	4663      	mov	r3, ip
1000a3d6:	68dc      	ldr	r4, [r3, #12]
1000a3d8:	45a4      	cmp	ip, r4
1000a3da:	d014      	beq.n	1000a406 <_malloc_r+0xda>
1000a3dc:	2303      	movs	r3, #3
1000a3de:	4699      	mov	r9, r3
1000a3e0:	000b      	movs	r3, r1
1000a3e2:	4661      	mov	r1, ip
1000a3e4:	469c      	mov	ip, r3
1000a3e6:	e007      	b.n	1000a3f8 <_malloc_r+0xcc>
1000a3e8:	68e0      	ldr	r0, [r4, #12]
1000a3ea:	2a00      	cmp	r2, #0
1000a3ec:	db00      	blt.n	1000a3f0 <_malloc_r+0xc4>
1000a3ee:	e0fb      	b.n	1000a5e8 <_malloc_r+0x2bc>
1000a3f0:	4281      	cmp	r1, r0
1000a3f2:	d100      	bne.n	1000a3f6 <_malloc_r+0xca>
1000a3f4:	e0fc      	b.n	1000a5f0 <_malloc_r+0x2c4>
1000a3f6:	0004      	movs	r4, r0
1000a3f8:	464a      	mov	r2, r9
1000a3fa:	6863      	ldr	r3, [r4, #4]
1000a3fc:	4393      	bics	r3, r2
1000a3fe:	1b5a      	subs	r2, r3, r5
1000a400:	2a0f      	cmp	r2, #15
1000a402:	ddf1      	ble.n	1000a3e8 <_malloc_r+0xbc>
1000a404:	4641      	mov	r1, r8
1000a406:	003a      	movs	r2, r7
1000a408:	693c      	ldr	r4, [r7, #16]
1000a40a:	3208      	adds	r2, #8
1000a40c:	4294      	cmp	r4, r2
1000a40e:	d100      	bne.n	1000a412 <_malloc_r+0xe6>
1000a410:	e0d9      	b.n	1000a5c6 <_malloc_r+0x29a>
1000a412:	2003      	movs	r0, #3
1000a414:	6863      	ldr	r3, [r4, #4]
1000a416:	4383      	bics	r3, r0
1000a418:	1b58      	subs	r0, r3, r5
1000a41a:	280f      	cmp	r0, #15
1000a41c:	dd00      	ble.n	1000a420 <_malloc_r+0xf4>
1000a41e:	e162      	b.n	1000a6e6 <_malloc_r+0x3ba>
1000a420:	613a      	str	r2, [r7, #16]
1000a422:	617a      	str	r2, [r7, #20]
1000a424:	2800      	cmp	r0, #0
1000a426:	daa4      	bge.n	1000a372 <_malloc_r+0x46>
1000a428:	687a      	ldr	r2, [r7, #4]
1000a42a:	4690      	mov	r8, r2
1000a42c:	2280      	movs	r2, #128	@ 0x80
1000a42e:	0092      	lsls	r2, r2, #2
1000a430:	4293      	cmp	r3, r2
1000a432:	d300      	bcc.n	1000a436 <_malloc_r+0x10a>
1000a434:	e0e4      	b.n	1000a600 <_malloc_r+0x2d4>
1000a436:	08da      	lsrs	r2, r3, #3
1000a438:	0958      	lsrs	r0, r3, #5
1000a43a:	2301      	movs	r3, #1
1000a43c:	4083      	lsls	r3, r0
1000a43e:	4640      	mov	r0, r8
1000a440:	4318      	orrs	r0, r3
1000a442:	4680      	mov	r8, r0
1000a444:	00d3      	lsls	r3, r2, #3
1000a446:	19db      	adds	r3, r3, r7
1000a448:	689a      	ldr	r2, [r3, #8]
1000a44a:	6078      	str	r0, [r7, #4]
1000a44c:	60e3      	str	r3, [r4, #12]
1000a44e:	60a2      	str	r2, [r4, #8]
1000a450:	609c      	str	r4, [r3, #8]
1000a452:	60d4      	str	r4, [r2, #12]
1000a454:	2001      	movs	r0, #1
1000a456:	108b      	asrs	r3, r1, #2
1000a458:	4098      	lsls	r0, r3
1000a45a:	4540      	cmp	r0, r8
1000a45c:	d85c      	bhi.n	1000a518 <_malloc_r+0x1ec>
1000a45e:	4643      	mov	r3, r8
1000a460:	4203      	tst	r3, r0
1000a462:	d10a      	bne.n	1000a47a <_malloc_r+0x14e>
1000a464:	2303      	movs	r3, #3
1000a466:	4399      	bics	r1, r3
1000a468:	4643      	mov	r3, r8
1000a46a:	0040      	lsls	r0, r0, #1
1000a46c:	3104      	adds	r1, #4
1000a46e:	4203      	tst	r3, r0
1000a470:	d103      	bne.n	1000a47a <_malloc_r+0x14e>
1000a472:	0040      	lsls	r0, r0, #1
1000a474:	3104      	adds	r1, #4
1000a476:	4203      	tst	r3, r0
1000a478:	d0fb      	beq.n	1000a472 <_malloc_r+0x146>
1000a47a:	2303      	movs	r3, #3
1000a47c:	46b3      	mov	fp, r6
1000a47e:	469c      	mov	ip, r3
1000a480:	000e      	movs	r6, r1
1000a482:	46b8      	mov	r8, r7
1000a484:	9001      	str	r0, [sp, #4]
1000a486:	00f0      	lsls	r0, r6, #3
1000a488:	4440      	add	r0, r8
1000a48a:	0001      	movs	r1, r0
1000a48c:	46b2      	mov	sl, r6
1000a48e:	68cb      	ldr	r3, [r1, #12]
1000a490:	e00b      	b.n	1000a4aa <_malloc_r+0x17e>
1000a492:	4664      	mov	r4, ip
1000a494:	685a      	ldr	r2, [r3, #4]
1000a496:	001f      	movs	r7, r3
1000a498:	43a2      	bics	r2, r4
1000a49a:	68db      	ldr	r3, [r3, #12]
1000a49c:	1b54      	subs	r4, r2, r5
1000a49e:	2c0f      	cmp	r4, #15
1000a4a0:	dd00      	ble.n	1000a4a4 <_malloc_r+0x178>
1000a4a2:	e0ef      	b.n	1000a684 <_malloc_r+0x358>
1000a4a4:	2c00      	cmp	r4, #0
1000a4a6:	db00      	blt.n	1000a4aa <_malloc_r+0x17e>
1000a4a8:	e109      	b.n	1000a6be <_malloc_r+0x392>
1000a4aa:	4299      	cmp	r1, r3
1000a4ac:	d1f1      	bne.n	1000a492 <_malloc_r+0x166>
1000a4ae:	2301      	movs	r3, #1
1000a4b0:	4699      	mov	r9, r3
1000a4b2:	44ca      	add	sl, r9
1000a4b4:	4653      	mov	r3, sl
1000a4b6:	3108      	adds	r1, #8
1000a4b8:	079b      	lsls	r3, r3, #30
1000a4ba:	d1e8      	bne.n	1000a48e <_malloc_r+0x162>
1000a4bc:	2203      	movs	r2, #3
1000a4be:	e005      	b.n	1000a4cc <_malloc_r+0x1a0>
1000a4c0:	6803      	ldr	r3, [r0, #0]
1000a4c2:	3808      	subs	r0, #8
1000a4c4:	3e01      	subs	r6, #1
1000a4c6:	4283      	cmp	r3, r0
1000a4c8:	d000      	beq.n	1000a4cc <_malloc_r+0x1a0>
1000a4ca:	e203      	b.n	1000a8d4 <_malloc_r+0x5a8>
1000a4cc:	4232      	tst	r2, r6
1000a4ce:	d1f7      	bne.n	1000a4c0 <_malloc_r+0x194>
1000a4d0:	4643      	mov	r3, r8
1000a4d2:	9a01      	ldr	r2, [sp, #4]
1000a4d4:	685b      	ldr	r3, [r3, #4]
1000a4d6:	4393      	bics	r3, r2
1000a4d8:	4642      	mov	r2, r8
1000a4da:	6053      	str	r3, [r2, #4]
1000a4dc:	9a01      	ldr	r2, [sp, #4]
1000a4de:	0052      	lsls	r2, r2, #1
1000a4e0:	9201      	str	r2, [sp, #4]
1000a4e2:	429a      	cmp	r2, r3
1000a4e4:	d816      	bhi.n	1000a514 <_malloc_r+0x1e8>
1000a4e6:	2a00      	cmp	r2, #0
1000a4e8:	d106      	bne.n	1000a4f8 <_malloc_r+0x1cc>
1000a4ea:	e013      	b.n	1000a514 <_malloc_r+0x1e8>
1000a4ec:	2204      	movs	r2, #4
1000a4ee:	4691      	mov	r9, r2
1000a4f0:	9a01      	ldr	r2, [sp, #4]
1000a4f2:	44ca      	add	sl, r9
1000a4f4:	0052      	lsls	r2, r2, #1
1000a4f6:	9201      	str	r2, [sp, #4]
1000a4f8:	4213      	tst	r3, r2
1000a4fa:	d0f7      	beq.n	1000a4ec <_malloc_r+0x1c0>
1000a4fc:	4656      	mov	r6, sl
1000a4fe:	e7c2      	b.n	1000a486 <_malloc_r+0x15a>
1000a500:	230c      	movs	r3, #12
1000a502:	2000      	movs	r0, #0
1000a504:	6033      	str	r3, [r6, #0]
1000a506:	e73e      	b.n	1000a386 <_malloc_r+0x5a>
1000a508:	2380      	movs	r3, #128	@ 0x80
1000a50a:	223f      	movs	r2, #63	@ 0x3f
1000a50c:	2140      	movs	r1, #64	@ 0x40
1000a50e:	4690      	mov	r8, r2
1000a510:	009b      	lsls	r3, r3, #2
1000a512:	e759      	b.n	1000a3c8 <_malloc_r+0x9c>
1000a514:	465e      	mov	r6, fp
1000a516:	4647      	mov	r7, r8
1000a518:	2203      	movs	r2, #3
1000a51a:	68bc      	ldr	r4, [r7, #8]
1000a51c:	6863      	ldr	r3, [r4, #4]
1000a51e:	4393      	bics	r3, r2
1000a520:	469a      	mov	sl, r3
1000a522:	42ab      	cmp	r3, r5
1000a524:	d302      	bcc.n	1000a52c <_malloc_r+0x200>
1000a526:	1b5a      	subs	r2, r3, r5
1000a528:	2a0f      	cmp	r2, #15
1000a52a:	dc4f      	bgt.n	1000a5cc <_malloc_r+0x2a0>
1000a52c:	0023      	movs	r3, r4
1000a52e:	4453      	add	r3, sl
1000a530:	9302      	str	r3, [sp, #8]
1000a532:	4b52      	ldr	r3, [pc, #328]	@ (1000a67c <_malloc_r+0x350>)
1000a534:	2008      	movs	r0, #8
1000a536:	4699      	mov	r9, r3
1000a538:	681b      	ldr	r3, [r3, #0]
1000a53a:	3310      	adds	r3, #16
1000a53c:	195b      	adds	r3, r3, r5
1000a53e:	9301      	str	r3, [sp, #4]
1000a540:	f000 fb26 	bl	1000ab90 <sysconf>
1000a544:	494e      	ldr	r1, [pc, #312]	@ (1000a680 <_malloc_r+0x354>)
1000a546:	9003      	str	r0, [sp, #12]
1000a548:	680b      	ldr	r3, [r1, #0]
1000a54a:	468b      	mov	fp, r1
1000a54c:	3301      	adds	r3, #1
1000a54e:	d006      	beq.n	1000a55e <_malloc_r+0x232>
1000a550:	4684      	mov	ip, r0
1000a552:	9b01      	ldr	r3, [sp, #4]
1000a554:	4242      	negs	r2, r0
1000a556:	3b01      	subs	r3, #1
1000a558:	4463      	add	r3, ip
1000a55a:	4013      	ands	r3, r2
1000a55c:	9301      	str	r3, [sp, #4]
1000a55e:	0030      	movs	r0, r6
1000a560:	9901      	ldr	r1, [sp, #4]
1000a562:	f000 fb5d 	bl	1000ac20 <_sbrk_r>
1000a566:	0003      	movs	r3, r0
1000a568:	4680      	mov	r8, r0
1000a56a:	3301      	adds	r3, #1
1000a56c:	d100      	bne.n	1000a570 <_malloc_r+0x244>
1000a56e:	e0d8      	b.n	1000a722 <_malloc_r+0x3f6>
1000a570:	9b02      	ldr	r3, [sp, #8]
1000a572:	4283      	cmp	r3, r0
1000a574:	d900      	bls.n	1000a578 <_malloc_r+0x24c>
1000a576:	e0d2      	b.n	1000a71e <_malloc_r+0x3f2>
1000a578:	464b      	mov	r3, r9
1000a57a:	9901      	ldr	r1, [sp, #4]
1000a57c:	685a      	ldr	r2, [r3, #4]
1000a57e:	468c      	mov	ip, r1
1000a580:	4462      	add	r2, ip
1000a582:	9903      	ldr	r1, [sp, #12]
1000a584:	605a      	str	r2, [r3, #4]
1000a586:	9b02      	ldr	r3, [sp, #8]
1000a588:	0010      	movs	r0, r2
1000a58a:	3901      	subs	r1, #1
1000a58c:	4543      	cmp	r3, r8
1000a58e:	d000      	beq.n	1000a592 <_malloc_r+0x266>
1000a590:	e0e5      	b.n	1000a75e <_malloc_r+0x432>
1000a592:	4643      	mov	r3, r8
1000a594:	420b      	tst	r3, r1
1000a596:	d000      	beq.n	1000a59a <_malloc_r+0x26e>
1000a598:	e0e1      	b.n	1000a75e <_malloc_r+0x432>
1000a59a:	68bb      	ldr	r3, [r7, #8]
1000a59c:	2101      	movs	r1, #1
1000a59e:	4698      	mov	r8, r3
1000a5a0:	4663      	mov	r3, ip
1000a5a2:	4453      	add	r3, sl
1000a5a4:	430b      	orrs	r3, r1
1000a5a6:	4641      	mov	r1, r8
1000a5a8:	604b      	str	r3, [r1, #4]
1000a5aa:	4649      	mov	r1, r9
1000a5ac:	6ac9      	ldr	r1, [r1, #44]	@ 0x2c
1000a5ae:	4291      	cmp	r1, r2
1000a5b0:	d201      	bcs.n	1000a5b6 <_malloc_r+0x28a>
1000a5b2:	4649      	mov	r1, r9
1000a5b4:	62ca      	str	r2, [r1, #44]	@ 0x2c
1000a5b6:	4649      	mov	r1, r9
1000a5b8:	6b09      	ldr	r1, [r1, #48]	@ 0x30
1000a5ba:	4291      	cmp	r1, r2
1000a5bc:	d201      	bcs.n	1000a5c2 <_malloc_r+0x296>
1000a5be:	4649      	mov	r1, r9
1000a5c0:	630a      	str	r2, [r1, #48]	@ 0x30
1000a5c2:	4644      	mov	r4, r8
1000a5c4:	e0af      	b.n	1000a726 <_malloc_r+0x3fa>
1000a5c6:	687b      	ldr	r3, [r7, #4]
1000a5c8:	4698      	mov	r8, r3
1000a5ca:	e743      	b.n	1000a454 <_malloc_r+0x128>
1000a5cc:	2301      	movs	r3, #1
1000a5ce:	0029      	movs	r1, r5
1000a5d0:	431a      	orrs	r2, r3
1000a5d2:	4319      	orrs	r1, r3
1000a5d4:	1965      	adds	r5, r4, r5
1000a5d6:	6061      	str	r1, [r4, #4]
1000a5d8:	0030      	movs	r0, r6
1000a5da:	60bd      	str	r5, [r7, #8]
1000a5dc:	606a      	str	r2, [r5, #4]
1000a5de:	f000 fae7 	bl	1000abb0 <__malloc_unlock>
1000a5e2:	0020      	movs	r0, r4
1000a5e4:	3008      	adds	r0, #8
1000a5e6:	e6ce      	b.n	1000a386 <_malloc_r+0x5a>
1000a5e8:	68a2      	ldr	r2, [r4, #8]
1000a5ea:	60d0      	str	r0, [r2, #12]
1000a5ec:	6082      	str	r2, [r0, #8]
1000a5ee:	e6c0      	b.n	1000a372 <_malloc_r+0x46>
1000a5f0:	4661      	mov	r1, ip
1000a5f2:	e708      	b.n	1000a406 <_malloc_r+0xda>
1000a5f4:	68dc      	ldr	r4, [r3, #12]
1000a5f6:	3102      	adds	r1, #2
1000a5f8:	42a3      	cmp	r3, r4
1000a5fa:	d100      	bne.n	1000a5fe <_malloc_r+0x2d2>
1000a5fc:	e703      	b.n	1000a406 <_malloc_r+0xda>
1000a5fe:	e6b1      	b.n	1000a364 <_malloc_r+0x38>
1000a600:	0a5a      	lsrs	r2, r3, #9
1000a602:	2a04      	cmp	r2, #4
1000a604:	d800      	bhi.n	1000a608 <_malloc_r+0x2dc>
1000a606:	e083      	b.n	1000a710 <_malloc_r+0x3e4>
1000a608:	2a14      	cmp	r2, #20
1000a60a:	d900      	bls.n	1000a60e <_malloc_r+0x2e2>
1000a60c:	e108      	b.n	1000a820 <_malloc_r+0x4f4>
1000a60e:	0010      	movs	r0, r2
1000a610:	305b      	adds	r0, #91	@ 0x5b
1000a612:	4682      	mov	sl, r0
1000a614:	325c      	adds	r2, #92	@ 0x5c
1000a616:	00d2      	lsls	r2, r2, #3
1000a618:	2008      	movs	r0, #8
1000a61a:	4240      	negs	r0, r0
1000a61c:	4684      	mov	ip, r0
1000a61e:	18ba      	adds	r2, r7, r2
1000a620:	4494      	add	ip, r2
1000a622:	4662      	mov	r2, ip
1000a624:	6892      	ldr	r2, [r2, #8]
1000a626:	300b      	adds	r0, #11
1000a628:	4681      	mov	r9, r0
1000a62a:	4594      	cmp	ip, r2
1000a62c:	d100      	bne.n	1000a630 <_malloc_r+0x304>
1000a62e:	e0df      	b.n	1000a7f0 <_malloc_r+0x4c4>
1000a630:	0008      	movs	r0, r1
1000a632:	46a2      	mov	sl, r4
1000a634:	4661      	mov	r1, ip
1000a636:	4684      	mov	ip, r0
1000a638:	e002      	b.n	1000a640 <_malloc_r+0x314>
1000a63a:	6892      	ldr	r2, [r2, #8]
1000a63c:	4291      	cmp	r1, r2
1000a63e:	d004      	beq.n	1000a64a <_malloc_r+0x31e>
1000a640:	464c      	mov	r4, r9
1000a642:	6850      	ldr	r0, [r2, #4]
1000a644:	43a0      	bics	r0, r4
1000a646:	4298      	cmp	r0, r3
1000a648:	d8f7      	bhi.n	1000a63a <_malloc_r+0x30e>
1000a64a:	68d3      	ldr	r3, [r2, #12]
1000a64c:	4661      	mov	r1, ip
1000a64e:	4654      	mov	r4, sl
1000a650:	469c      	mov	ip, r3
1000a652:	4663      	mov	r3, ip
1000a654:	60a2      	str	r2, [r4, #8]
1000a656:	60e3      	str	r3, [r4, #12]
1000a658:	609c      	str	r4, [r3, #8]
1000a65a:	60d4      	str	r4, [r2, #12]
1000a65c:	e6fa      	b.n	1000a454 <_malloc_r+0x128>
1000a65e:	2914      	cmp	r1, #20
1000a660:	d96e      	bls.n	1000a740 <_malloc_r+0x414>
1000a662:	2954      	cmp	r1, #84	@ 0x54
1000a664:	d900      	bls.n	1000a668 <_malloc_r+0x33c>
1000a666:	e0e4      	b.n	1000a832 <_malloc_r+0x506>
1000a668:	236e      	movs	r3, #110	@ 0x6e
1000a66a:	4698      	mov	r8, r3
1000a66c:	0b29      	lsrs	r1, r5, #12
1000a66e:	4488      	add	r8, r1
1000a670:	316f      	adds	r1, #111	@ 0x6f
1000a672:	00cb      	lsls	r3, r1, #3
1000a674:	e6a8      	b.n	1000a3c8 <_malloc_r+0x9c>
1000a676:	46c0      	nop			@ (mov r8, r8)
1000a678:	20000fd8 	.word	0x20000fd8
1000a67c:	2000158c 	.word	0x2000158c
1000a680:	20000fd0 	.word	0x20000fd0
1000a684:	46ba      	mov	sl, r7
1000a686:	2001      	movs	r0, #1
1000a688:	4651      	mov	r1, sl
1000a68a:	4684      	mov	ip, r0
1000a68c:	1949      	adds	r1, r1, r5
1000a68e:	4305      	orrs	r5, r0
1000a690:	4650      	mov	r0, sl
1000a692:	6045      	str	r5, [r0, #4]
1000a694:	6885      	ldr	r5, [r0, #8]
1000a696:	4647      	mov	r7, r8
1000a698:	4660      	mov	r0, ip
1000a69a:	60eb      	str	r3, [r5, #12]
1000a69c:	465e      	mov	r6, fp
1000a69e:	609d      	str	r5, [r3, #8]
1000a6a0:	4653      	mov	r3, sl
1000a6a2:	6139      	str	r1, [r7, #16]
1000a6a4:	6179      	str	r1, [r7, #20]
1000a6a6:	4320      	orrs	r0, r4
1000a6a8:	3708      	adds	r7, #8
1000a6aa:	6048      	str	r0, [r1, #4]
1000a6ac:	60cf      	str	r7, [r1, #12]
1000a6ae:	0030      	movs	r0, r6
1000a6b0:	608f      	str	r7, [r1, #8]
1000a6b2:	509c      	str	r4, [r3, r2]
1000a6b4:	f000 fa7c 	bl	1000abb0 <__malloc_unlock>
1000a6b8:	4650      	mov	r0, sl
1000a6ba:	3008      	adds	r0, #8
1000a6bc:	e663      	b.n	1000a386 <_malloc_r+0x5a>
1000a6be:	46ba      	mov	sl, r7
1000a6c0:	2001      	movs	r0, #1
1000a6c2:	465e      	mov	r6, fp
1000a6c4:	4452      	add	r2, sl
1000a6c6:	6851      	ldr	r1, [r2, #4]
1000a6c8:	4301      	orrs	r1, r0
1000a6ca:	6051      	str	r1, [r2, #4]
1000a6cc:	68ba      	ldr	r2, [r7, #8]
1000a6ce:	0030      	movs	r0, r6
1000a6d0:	60d3      	str	r3, [r2, #12]
1000a6d2:	609a      	str	r2, [r3, #8]
1000a6d4:	f000 fa6c 	bl	1000abb0 <__malloc_unlock>
1000a6d8:	0038      	movs	r0, r7
1000a6da:	3008      	adds	r0, #8
1000a6dc:	e653      	b.n	1000a386 <_malloc_r+0x5a>
1000a6de:	002b      	movs	r3, r5
1000a6e0:	08e9      	lsrs	r1, r5, #3
1000a6e2:	3308      	adds	r3, #8
1000a6e4:	e636      	b.n	1000a354 <_malloc_r+0x28>
1000a6e6:	1961      	adds	r1, r4, r5
1000a6e8:	4688      	mov	r8, r1
1000a6ea:	2101      	movs	r1, #1
1000a6ec:	468c      	mov	ip, r1
1000a6ee:	430d      	orrs	r5, r1
1000a6f0:	4641      	mov	r1, r8
1000a6f2:	6065      	str	r5, [r4, #4]
1000a6f4:	6139      	str	r1, [r7, #16]
1000a6f6:	6179      	str	r1, [r7, #20]
1000a6f8:	60ca      	str	r2, [r1, #12]
1000a6fa:	608a      	str	r2, [r1, #8]
1000a6fc:	4662      	mov	r2, ip
1000a6fe:	4302      	orrs	r2, r0
1000a700:	604a      	str	r2, [r1, #4]
1000a702:	50e0      	str	r0, [r4, r3]
1000a704:	0030      	movs	r0, r6
1000a706:	f000 fa53 	bl	1000abb0 <__malloc_unlock>
1000a70a:	0020      	movs	r0, r4
1000a70c:	3008      	adds	r0, #8
1000a70e:	e63a      	b.n	1000a386 <_malloc_r+0x5a>
1000a710:	099a      	lsrs	r2, r3, #6
1000a712:	0010      	movs	r0, r2
1000a714:	3239      	adds	r2, #57	@ 0x39
1000a716:	3038      	adds	r0, #56	@ 0x38
1000a718:	4682      	mov	sl, r0
1000a71a:	00d2      	lsls	r2, r2, #3
1000a71c:	e77c      	b.n	1000a618 <_malloc_r+0x2ec>
1000a71e:	42bc      	cmp	r4, r7
1000a720:	d014      	beq.n	1000a74c <_malloc_r+0x420>
1000a722:	68bc      	ldr	r4, [r7, #8]
1000a724:	6863      	ldr	r3, [r4, #4]
1000a726:	2203      	movs	r2, #3
1000a728:	4393      	bics	r3, r2
1000a72a:	1b5a      	subs	r2, r3, r5
1000a72c:	42ab      	cmp	r3, r5
1000a72e:	d302      	bcc.n	1000a736 <_malloc_r+0x40a>
1000a730:	2a0f      	cmp	r2, #15
1000a732:	dd00      	ble.n	1000a736 <_malloc_r+0x40a>
1000a734:	e74a      	b.n	1000a5cc <_malloc_r+0x2a0>
1000a736:	0030      	movs	r0, r6
1000a738:	f000 fa3a 	bl	1000abb0 <__malloc_unlock>
1000a73c:	2000      	movs	r0, #0
1000a73e:	e622      	b.n	1000a386 <_malloc_r+0x5a>
1000a740:	235b      	movs	r3, #91	@ 0x5b
1000a742:	4698      	mov	r8, r3
1000a744:	4488      	add	r8, r1
1000a746:	315c      	adds	r1, #92	@ 0x5c
1000a748:	00cb      	lsls	r3, r1, #3
1000a74a:	e63d      	b.n	1000a3c8 <_malloc_r+0x9c>
1000a74c:	464b      	mov	r3, r9
1000a74e:	6858      	ldr	r0, [r3, #4]
1000a750:	9b01      	ldr	r3, [sp, #4]
1000a752:	469c      	mov	ip, r3
1000a754:	464b      	mov	r3, r9
1000a756:	4460      	add	r0, ip
1000a758:	6058      	str	r0, [r3, #4]
1000a75a:	9b03      	ldr	r3, [sp, #12]
1000a75c:	1e59      	subs	r1, r3, #1
1000a75e:	465b      	mov	r3, fp
1000a760:	681b      	ldr	r3, [r3, #0]
1000a762:	3301      	adds	r3, #1
1000a764:	d070      	beq.n	1000a848 <_malloc_r+0x51c>
1000a766:	4643      	mov	r3, r8
1000a768:	9a02      	ldr	r2, [sp, #8]
1000a76a:	1a9b      	subs	r3, r3, r2
1000a76c:	464a      	mov	r2, r9
1000a76e:	181b      	adds	r3, r3, r0
1000a770:	6053      	str	r3, [r2, #4]
1000a772:	2307      	movs	r3, #7
1000a774:	4642      	mov	r2, r8
1000a776:	4640      	mov	r0, r8
1000a778:	401a      	ands	r2, r3
1000a77a:	9202      	str	r2, [sp, #8]
1000a77c:	4218      	tst	r0, r3
1000a77e:	d040      	beq.n	1000a802 <_malloc_r+0x4d6>
1000a780:	9803      	ldr	r0, [sp, #12]
1000a782:	3301      	adds	r3, #1
1000a784:	4684      	mov	ip, r0
1000a786:	1a9b      	subs	r3, r3, r2
1000a788:	9a01      	ldr	r2, [sp, #4]
1000a78a:	4498      	add	r8, r3
1000a78c:	4442      	add	r2, r8
1000a78e:	9201      	str	r2, [sp, #4]
1000a790:	4463      	add	r3, ip
1000a792:	400a      	ands	r2, r1
1000a794:	1a9b      	subs	r3, r3, r2
1000a796:	4019      	ands	r1, r3
1000a798:	0030      	movs	r0, r6
1000a79a:	468b      	mov	fp, r1
1000a79c:	f000 fa40 	bl	1000ac20 <_sbrk_r>
1000a7a0:	1c43      	adds	r3, r0, #1
1000a7a2:	d077      	beq.n	1000a894 <_malloc_r+0x568>
1000a7a4:	4643      	mov	r3, r8
1000a7a6:	1ac0      	subs	r0, r0, r3
1000a7a8:	0003      	movs	r3, r0
1000a7aa:	445b      	add	r3, fp
1000a7ac:	9301      	str	r3, [sp, #4]
1000a7ae:	464b      	mov	r3, r9
1000a7b0:	685a      	ldr	r2, [r3, #4]
1000a7b2:	2001      	movs	r0, #1
1000a7b4:	445a      	add	r2, fp
1000a7b6:	605a      	str	r2, [r3, #4]
1000a7b8:	4643      	mov	r3, r8
1000a7ba:	4641      	mov	r1, r8
1000a7bc:	60bb      	str	r3, [r7, #8]
1000a7be:	9b01      	ldr	r3, [sp, #4]
1000a7c0:	4303      	orrs	r3, r0
1000a7c2:	604b      	str	r3, [r1, #4]
1000a7c4:	42bc      	cmp	r4, r7
1000a7c6:	d100      	bne.n	1000a7ca <_malloc_r+0x49e>
1000a7c8:	e6ef      	b.n	1000a5aa <_malloc_r+0x27e>
1000a7ca:	4653      	mov	r3, sl
1000a7cc:	2b0f      	cmp	r3, #15
1000a7ce:	d93f      	bls.n	1000a850 <_malloc_r+0x524>
1000a7d0:	2107      	movs	r1, #7
1000a7d2:	3b0c      	subs	r3, #12
1000a7d4:	438b      	bics	r3, r1
1000a7d6:	6861      	ldr	r1, [r4, #4]
1000a7d8:	4001      	ands	r1, r0
1000a7da:	2005      	movs	r0, #5
1000a7dc:	4319      	orrs	r1, r3
1000a7de:	6061      	str	r1, [r4, #4]
1000a7e0:	18e1      	adds	r1, r4, r3
1000a7e2:	6048      	str	r0, [r1, #4]
1000a7e4:	6088      	str	r0, [r1, #8]
1000a7e6:	2b0f      	cmp	r3, #15
1000a7e8:	d849      	bhi.n	1000a87e <_malloc_r+0x552>
1000a7ea:	4643      	mov	r3, r8
1000a7ec:	685b      	ldr	r3, [r3, #4]
1000a7ee:	e6dc      	b.n	1000a5aa <_malloc_r+0x27e>
1000a7f0:	4653      	mov	r3, sl
1000a7f2:	1098      	asrs	r0, r3, #2
1000a7f4:	2301      	movs	r3, #1
1000a7f6:	4083      	lsls	r3, r0
1000a7f8:	4640      	mov	r0, r8
1000a7fa:	4318      	orrs	r0, r3
1000a7fc:	4680      	mov	r8, r0
1000a7fe:	6078      	str	r0, [r7, #4]
1000a800:	e727      	b.n	1000a652 <_malloc_r+0x326>
1000a802:	9b01      	ldr	r3, [sp, #4]
1000a804:	9a03      	ldr	r2, [sp, #12]
1000a806:	4443      	add	r3, r8
1000a808:	400b      	ands	r3, r1
1000a80a:	1ad3      	subs	r3, r2, r3
1000a80c:	4019      	ands	r1, r3
1000a80e:	0030      	movs	r0, r6
1000a810:	468b      	mov	fp, r1
1000a812:	f000 fa05 	bl	1000ac20 <_sbrk_r>
1000a816:	1c43      	adds	r3, r0, #1
1000a818:	d1c4      	bne.n	1000a7a4 <_malloc_r+0x478>
1000a81a:	2300      	movs	r3, #0
1000a81c:	469b      	mov	fp, r3
1000a81e:	e7c6      	b.n	1000a7ae <_malloc_r+0x482>
1000a820:	2a54      	cmp	r2, #84	@ 0x54
1000a822:	d817      	bhi.n	1000a854 <_malloc_r+0x528>
1000a824:	0b1a      	lsrs	r2, r3, #12
1000a826:	0010      	movs	r0, r2
1000a828:	326f      	adds	r2, #111	@ 0x6f
1000a82a:	306e      	adds	r0, #110	@ 0x6e
1000a82c:	4682      	mov	sl, r0
1000a82e:	00d2      	lsls	r2, r2, #3
1000a830:	e6f2      	b.n	1000a618 <_malloc_r+0x2ec>
1000a832:	23aa      	movs	r3, #170	@ 0xaa
1000a834:	005b      	lsls	r3, r3, #1
1000a836:	4299      	cmp	r1, r3
1000a838:	d817      	bhi.n	1000a86a <_malloc_r+0x53e>
1000a83a:	3bdd      	subs	r3, #221	@ 0xdd
1000a83c:	4698      	mov	r8, r3
1000a83e:	0be9      	lsrs	r1, r5, #15
1000a840:	4488      	add	r8, r1
1000a842:	3178      	adds	r1, #120	@ 0x78
1000a844:	00cb      	lsls	r3, r1, #3
1000a846:	e5bf      	b.n	1000a3c8 <_malloc_r+0x9c>
1000a848:	465b      	mov	r3, fp
1000a84a:	4642      	mov	r2, r8
1000a84c:	601a      	str	r2, [r3, #0]
1000a84e:	e790      	b.n	1000a772 <_malloc_r+0x446>
1000a850:	6048      	str	r0, [r1, #4]
1000a852:	e770      	b.n	1000a736 <_malloc_r+0x40a>
1000a854:	20aa      	movs	r0, #170	@ 0xaa
1000a856:	0040      	lsls	r0, r0, #1
1000a858:	4282      	cmp	r2, r0
1000a85a:	d826      	bhi.n	1000a8aa <_malloc_r+0x57e>
1000a85c:	0bda      	lsrs	r2, r3, #15
1000a85e:	0010      	movs	r0, r2
1000a860:	3278      	adds	r2, #120	@ 0x78
1000a862:	3077      	adds	r0, #119	@ 0x77
1000a864:	4682      	mov	sl, r0
1000a866:	00d2      	lsls	r2, r2, #3
1000a868:	e6d6      	b.n	1000a618 <_malloc_r+0x2ec>
1000a86a:	4b1c      	ldr	r3, [pc, #112]	@ (1000a8dc <_malloc_r+0x5b0>)
1000a86c:	4299      	cmp	r1, r3
1000a86e:	d826      	bhi.n	1000a8be <_malloc_r+0x592>
1000a870:	237c      	movs	r3, #124	@ 0x7c
1000a872:	4698      	mov	r8, r3
1000a874:	0ca9      	lsrs	r1, r5, #18
1000a876:	4488      	add	r8, r1
1000a878:	317d      	adds	r1, #125	@ 0x7d
1000a87a:	00cb      	lsls	r3, r1, #3
1000a87c:	e5a4      	b.n	1000a3c8 <_malloc_r+0x9c>
1000a87e:	0021      	movs	r1, r4
1000a880:	0030      	movs	r0, r6
1000a882:	3108      	adds	r1, #8
1000a884:	f000 f886 	bl	1000a994 <_free_r>
1000a888:	464b      	mov	r3, r9
1000a88a:	685a      	ldr	r2, [r3, #4]
1000a88c:	68bb      	ldr	r3, [r7, #8]
1000a88e:	4698      	mov	r8, r3
1000a890:	685b      	ldr	r3, [r3, #4]
1000a892:	e68a      	b.n	1000a5aa <_malloc_r+0x27e>
1000a894:	9a01      	ldr	r2, [sp, #4]
1000a896:	9b02      	ldr	r3, [sp, #8]
1000a898:	4694      	mov	ip, r2
1000a89a:	4642      	mov	r2, r8
1000a89c:	3b08      	subs	r3, #8
1000a89e:	4463      	add	r3, ip
1000a8a0:	1a9b      	subs	r3, r3, r2
1000a8a2:	9301      	str	r3, [sp, #4]
1000a8a4:	2300      	movs	r3, #0
1000a8a6:	469b      	mov	fp, r3
1000a8a8:	e781      	b.n	1000a7ae <_malloc_r+0x482>
1000a8aa:	480c      	ldr	r0, [pc, #48]	@ (1000a8dc <_malloc_r+0x5b0>)
1000a8ac:	4282      	cmp	r2, r0
1000a8ae:	d80c      	bhi.n	1000a8ca <_malloc_r+0x59e>
1000a8b0:	0c9a      	lsrs	r2, r3, #18
1000a8b2:	0010      	movs	r0, r2
1000a8b4:	327d      	adds	r2, #125	@ 0x7d
1000a8b6:	307c      	adds	r0, #124	@ 0x7c
1000a8b8:	4682      	mov	sl, r0
1000a8ba:	00d2      	lsls	r2, r2, #3
1000a8bc:	e6ac      	b.n	1000a618 <_malloc_r+0x2ec>
1000a8be:	23fe      	movs	r3, #254	@ 0xfe
1000a8c0:	227e      	movs	r2, #126	@ 0x7e
1000a8c2:	217f      	movs	r1, #127	@ 0x7f
1000a8c4:	4690      	mov	r8, r2
1000a8c6:	009b      	lsls	r3, r3, #2
1000a8c8:	e57e      	b.n	1000a3c8 <_malloc_r+0x9c>
1000a8ca:	22fe      	movs	r2, #254	@ 0xfe
1000a8cc:	207e      	movs	r0, #126	@ 0x7e
1000a8ce:	0092      	lsls	r2, r2, #2
1000a8d0:	4682      	mov	sl, r0
1000a8d2:	e6a1      	b.n	1000a618 <_malloc_r+0x2ec>
1000a8d4:	4643      	mov	r3, r8
1000a8d6:	685b      	ldr	r3, [r3, #4]
1000a8d8:	e600      	b.n	1000a4dc <_malloc_r+0x1b0>
1000a8da:	46c0      	nop			@ (mov r8, r8)
1000a8dc:	00000554 	.word	0x00000554

1000a8e0 <_malloc_trim_r>:
1000a8e0:	b5f0      	push	{r4, r5, r6, r7, lr}
1000a8e2:	46c6      	mov	lr, r8
1000a8e4:	0006      	movs	r6, r0
1000a8e6:	b500      	push	{lr}
1000a8e8:	2008      	movs	r0, #8
1000a8ea:	000d      	movs	r5, r1
1000a8ec:	f000 f950 	bl	1000ab90 <sysconf>
1000a8f0:	0004      	movs	r4, r0
1000a8f2:	0030      	movs	r0, r6
1000a8f4:	f000 f95a 	bl	1000abac <__malloc_lock>
1000a8f8:	4b23      	ldr	r3, [pc, #140]	@ (1000a988 <_malloc_trim_r+0xa8>)
1000a8fa:	0021      	movs	r1, r4
1000a8fc:	4698      	mov	r8, r3
1000a8fe:	689b      	ldr	r3, [r3, #8]
1000a900:	685f      	ldr	r7, [r3, #4]
1000a902:	2303      	movs	r3, #3
1000a904:	439f      	bics	r7, r3
1000a906:	0038      	movs	r0, r7
1000a908:	3811      	subs	r0, #17
1000a90a:	1b40      	subs	r0, r0, r5
1000a90c:	1900      	adds	r0, r0, r4
1000a90e:	f7fb f807 	bl	10005920 <__wrap___aeabi_uidiv>
1000a912:	1e45      	subs	r5, r0, #1
1000a914:	4365      	muls	r5, r4
1000a916:	42ac      	cmp	r4, r5
1000a918:	dc08      	bgt.n	1000a92c <_malloc_trim_r+0x4c>
1000a91a:	2100      	movs	r1, #0
1000a91c:	0030      	movs	r0, r6
1000a91e:	f000 f97f 	bl	1000ac20 <_sbrk_r>
1000a922:	4643      	mov	r3, r8
1000a924:	689b      	ldr	r3, [r3, #8]
1000a926:	19db      	adds	r3, r3, r7
1000a928:	4298      	cmp	r0, r3
1000a92a:	d006      	beq.n	1000a93a <_malloc_trim_r+0x5a>
1000a92c:	0030      	movs	r0, r6
1000a92e:	f000 f93f 	bl	1000abb0 <__malloc_unlock>
1000a932:	2000      	movs	r0, #0
1000a934:	bc80      	pop	{r7}
1000a936:	46b8      	mov	r8, r7
1000a938:	bdf0      	pop	{r4, r5, r6, r7, pc}
1000a93a:	0030      	movs	r0, r6
1000a93c:	4269      	negs	r1, r5
1000a93e:	f000 f96f 	bl	1000ac20 <_sbrk_r>
1000a942:	3001      	adds	r0, #1
1000a944:	d00e      	beq.n	1000a964 <_malloc_trim_r+0x84>
1000a946:	2201      	movs	r2, #1
1000a948:	4643      	mov	r3, r8
1000a94a:	1b7f      	subs	r7, r7, r5
1000a94c:	689b      	ldr	r3, [r3, #8]
1000a94e:	4317      	orrs	r7, r2
1000a950:	4a0e      	ldr	r2, [pc, #56]	@ (1000a98c <_malloc_trim_r+0xac>)
1000a952:	605f      	str	r7, [r3, #4]
1000a954:	6813      	ldr	r3, [r2, #0]
1000a956:	0030      	movs	r0, r6
1000a958:	1b5b      	subs	r3, r3, r5
1000a95a:	6013      	str	r3, [r2, #0]
1000a95c:	f000 f928 	bl	1000abb0 <__malloc_unlock>
1000a960:	2001      	movs	r0, #1
1000a962:	e7e7      	b.n	1000a934 <_malloc_trim_r+0x54>
1000a964:	2100      	movs	r1, #0
1000a966:	0030      	movs	r0, r6
1000a968:	f000 f95a 	bl	1000ac20 <_sbrk_r>
1000a96c:	4643      	mov	r3, r8
1000a96e:	689a      	ldr	r2, [r3, #8]
1000a970:	1a83      	subs	r3, r0, r2
1000a972:	2b0f      	cmp	r3, #15
1000a974:	ddda      	ble.n	1000a92c <_malloc_trim_r+0x4c>
1000a976:	4c06      	ldr	r4, [pc, #24]	@ (1000a990 <_malloc_trim_r+0xb0>)
1000a978:	4904      	ldr	r1, [pc, #16]	@ (1000a98c <_malloc_trim_r+0xac>)
1000a97a:	6824      	ldr	r4, [r4, #0]
1000a97c:	1b00      	subs	r0, r0, r4
1000a97e:	6008      	str	r0, [r1, #0]
1000a980:	2101      	movs	r1, #1
1000a982:	430b      	orrs	r3, r1
1000a984:	6053      	str	r3, [r2, #4]
1000a986:	e7d1      	b.n	1000a92c <_malloc_trim_r+0x4c>
1000a988:	20000fd8 	.word	0x20000fd8
1000a98c:	20001590 	.word	0x20001590
1000a990:	20000fd0 	.word	0x20000fd0

1000a994 <_free_r>:
1000a994:	b5f8      	push	{r3, r4, r5, r6, r7, lr}
1000a996:	46ce      	mov	lr, r9
1000a998:	4647      	mov	r7, r8
1000a99a:	0005      	movs	r5, r0
1000a99c:	000c      	movs	r4, r1
1000a99e:	b580      	push	{r7, lr}
1000a9a0:	2900      	cmp	r1, #0
1000a9a2:	d057      	beq.n	1000aa54 <_free_r+0xc0>
1000a9a4:	f000 f902 	bl	1000abac <__malloc_lock>
1000a9a8:	2301      	movs	r3, #1
1000a9aa:	0021      	movs	r1, r4
1000a9ac:	469c      	mov	ip, r3
1000a9ae:	3908      	subs	r1, #8
1000a9b0:	6848      	ldr	r0, [r1, #4]
1000a9b2:	4662      	mov	r2, ip
1000a9b4:	0003      	movs	r3, r0
1000a9b6:	2403      	movs	r4, #3
1000a9b8:	4393      	bics	r3, r2
1000a9ba:	18cf      	adds	r7, r1, r3
1000a9bc:	687a      	ldr	r2, [r7, #4]
1000a9be:	4e65      	ldr	r6, [pc, #404]	@ (1000ab54 <_free_r+0x1c0>)
1000a9c0:	43a2      	bics	r2, r4
1000a9c2:	68b4      	ldr	r4, [r6, #8]
1000a9c4:	42bc      	cmp	r4, r7
1000a9c6:	d100      	bne.n	1000a9ca <_free_r+0x36>
1000a9c8:	e070      	b.n	1000aaac <_free_r+0x118>
1000a9ca:	18bc      	adds	r4, r7, r2
1000a9cc:	46a1      	mov	r9, r4
1000a9ce:	4664      	mov	r4, ip
1000a9d0:	607a      	str	r2, [r7, #4]
1000a9d2:	4204      	tst	r4, r0
1000a9d4:	d121      	bne.n	1000aa1a <_free_r+0x86>
1000a9d6:	6808      	ldr	r0, [r1, #0]
1000a9d8:	1a09      	subs	r1, r1, r0
1000a9da:	181b      	adds	r3, r3, r0
1000a9dc:	6888      	ldr	r0, [r1, #8]
1000a9de:	4680      	mov	r8, r0
1000a9e0:	4648      	mov	r0, r9
1000a9e2:	6840      	ldr	r0, [r0, #4]
1000a9e4:	4020      	ands	r0, r4
1000a9e6:	0034      	movs	r4, r6
1000a9e8:	3408      	adds	r4, #8
1000a9ea:	4681      	mov	r9, r0
1000a9ec:	45a0      	cmp	r8, r4
1000a9ee:	d051      	beq.n	1000aa94 <_free_r+0x100>
1000a9f0:	4640      	mov	r0, r8
1000a9f2:	68cc      	ldr	r4, [r1, #12]
1000a9f4:	60c4      	str	r4, [r0, #12]
1000a9f6:	60a0      	str	r0, [r4, #8]
1000a9f8:	4648      	mov	r0, r9
1000a9fa:	2800      	cmp	r0, #0
1000a9fc:	d111      	bne.n	1000aa22 <_free_r+0x8e>
1000a9fe:	189b      	adds	r3, r3, r2
1000aa00:	4855      	ldr	r0, [pc, #340]	@ (1000ab58 <_free_r+0x1c4>)
1000aa02:	68ba      	ldr	r2, [r7, #8]
1000aa04:	4282      	cmp	r2, r0
1000aa06:	d100      	bne.n	1000aa0a <_free_r+0x76>
1000aa08:	e07f      	b.n	1000ab0a <_free_r+0x176>
1000aa0a:	68f8      	ldr	r0, [r7, #12]
1000aa0c:	60d0      	str	r0, [r2, #12]
1000aa0e:	6082      	str	r2, [r0, #8]
1000aa10:	2201      	movs	r2, #1
1000aa12:	431a      	orrs	r2, r3
1000aa14:	604a      	str	r2, [r1, #4]
1000aa16:	50cb      	str	r3, [r1, r3]
1000aa18:	e007      	b.n	1000aa2a <_free_r+0x96>
1000aa1a:	4648      	mov	r0, r9
1000aa1c:	6840      	ldr	r0, [r0, #4]
1000aa1e:	4220      	tst	r0, r4
1000aa20:	d0ed      	beq.n	1000a9fe <_free_r+0x6a>
1000aa22:	4662      	mov	r2, ip
1000aa24:	431a      	orrs	r2, r3
1000aa26:	604a      	str	r2, [r1, #4]
1000aa28:	603b      	str	r3, [r7, #0]
1000aa2a:	2280      	movs	r2, #128	@ 0x80
1000aa2c:	0092      	lsls	r2, r2, #2
1000aa2e:	4293      	cmp	r3, r2
1000aa30:	d214      	bcs.n	1000aa5c <_free_r+0xc8>
1000aa32:	08da      	lsrs	r2, r3, #3
1000aa34:	0958      	lsrs	r0, r3, #5
1000aa36:	2301      	movs	r3, #1
1000aa38:	4083      	lsls	r3, r0
1000aa3a:	6870      	ldr	r0, [r6, #4]
1000aa3c:	4303      	orrs	r3, r0
1000aa3e:	6073      	str	r3, [r6, #4]
1000aa40:	00d3      	lsls	r3, r2, #3
1000aa42:	199b      	adds	r3, r3, r6
1000aa44:	689a      	ldr	r2, [r3, #8]
1000aa46:	60cb      	str	r3, [r1, #12]
1000aa48:	608a      	str	r2, [r1, #8]
1000aa4a:	6099      	str	r1, [r3, #8]
1000aa4c:	60d1      	str	r1, [r2, #12]
1000aa4e:	0028      	movs	r0, r5
1000aa50:	f000 f8ae 	bl	1000abb0 <__malloc_unlock>
1000aa54:	bcc0      	pop	{r6, r7}
1000aa56:	46b9      	mov	r9, r7
1000aa58:	46b0      	mov	r8, r6
1000aa5a:	bdf8      	pop	{r3, r4, r5, r6, r7, pc}
1000aa5c:	0a5c      	lsrs	r4, r3, #9
1000aa5e:	2c04      	cmp	r4, #4
1000aa60:	d83d      	bhi.n	1000aade <_free_r+0x14a>
1000aa62:	099c      	lsrs	r4, r3, #6
1000aa64:	0020      	movs	r0, r4
1000aa66:	3439      	adds	r4, #57	@ 0x39
1000aa68:	3038      	adds	r0, #56	@ 0x38
1000aa6a:	00e4      	lsls	r4, r4, #3
1000aa6c:	1934      	adds	r4, r6, r4
1000aa6e:	6822      	ldr	r2, [r4, #0]
1000aa70:	3c08      	subs	r4, #8
1000aa72:	2703      	movs	r7, #3
1000aa74:	4294      	cmp	r4, r2
1000aa76:	d103      	bne.n	1000aa80 <_free_r+0xec>
1000aa78:	e040      	b.n	1000aafc <_free_r+0x168>
1000aa7a:	6892      	ldr	r2, [r2, #8]
1000aa7c:	4294      	cmp	r4, r2
1000aa7e:	d003      	beq.n	1000aa88 <_free_r+0xf4>
1000aa80:	6850      	ldr	r0, [r2, #4]
1000aa82:	43b8      	bics	r0, r7
1000aa84:	4298      	cmp	r0, r3
1000aa86:	d8f8      	bhi.n	1000aa7a <_free_r+0xe6>
1000aa88:	68d4      	ldr	r4, [r2, #12]
1000aa8a:	60cc      	str	r4, [r1, #12]
1000aa8c:	608a      	str	r2, [r1, #8]
1000aa8e:	60a1      	str	r1, [r4, #8]
1000aa90:	60d1      	str	r1, [r2, #12]
1000aa92:	e7dc      	b.n	1000aa4e <_free_r+0xba>
1000aa94:	2800      	cmp	r0, #0
1000aa96:	d158      	bne.n	1000ab4a <_free_r+0x1b6>
1000aa98:	68b8      	ldr	r0, [r7, #8]
1000aa9a:	18d2      	adds	r2, r2, r3
1000aa9c:	68fb      	ldr	r3, [r7, #12]
1000aa9e:	60c3      	str	r3, [r0, #12]
1000aaa0:	6098      	str	r0, [r3, #8]
1000aaa2:	4663      	mov	r3, ip
1000aaa4:	4313      	orrs	r3, r2
1000aaa6:	604b      	str	r3, [r1, #4]
1000aaa8:	508a      	str	r2, [r1, r2]
1000aaaa:	e7d0      	b.n	1000aa4e <_free_r+0xba>
1000aaac:	189a      	adds	r2, r3, r2
1000aaae:	4663      	mov	r3, ip
1000aab0:	4203      	tst	r3, r0
1000aab2:	d106      	bne.n	1000aac2 <_free_r+0x12e>
1000aab4:	680b      	ldr	r3, [r1, #0]
1000aab6:	1ac9      	subs	r1, r1, r3
1000aab8:	6888      	ldr	r0, [r1, #8]
1000aaba:	18d2      	adds	r2, r2, r3
1000aabc:	68cb      	ldr	r3, [r1, #12]
1000aabe:	60c3      	str	r3, [r0, #12]
1000aac0:	6098      	str	r0, [r3, #8]
1000aac2:	2301      	movs	r3, #1
1000aac4:	4313      	orrs	r3, r2
1000aac6:	604b      	str	r3, [r1, #4]
1000aac8:	4b24      	ldr	r3, [pc, #144]	@ (1000ab5c <_free_r+0x1c8>)
1000aaca:	60b1      	str	r1, [r6, #8]
1000aacc:	681b      	ldr	r3, [r3, #0]
1000aace:	4293      	cmp	r3, r2
1000aad0:	d8bd      	bhi.n	1000aa4e <_free_r+0xba>
1000aad2:	4b23      	ldr	r3, [pc, #140]	@ (1000ab60 <_free_r+0x1cc>)
1000aad4:	0028      	movs	r0, r5
1000aad6:	6819      	ldr	r1, [r3, #0]
1000aad8:	f7ff ff02 	bl	1000a8e0 <_malloc_trim_r>
1000aadc:	e7b7      	b.n	1000aa4e <_free_r+0xba>
1000aade:	2c14      	cmp	r4, #20
1000aae0:	d907      	bls.n	1000aaf2 <_free_r+0x15e>
1000aae2:	2c54      	cmp	r4, #84	@ 0x54
1000aae4:	d81a      	bhi.n	1000ab1c <_free_r+0x188>
1000aae6:	0b1c      	lsrs	r4, r3, #12
1000aae8:	0020      	movs	r0, r4
1000aaea:	346f      	adds	r4, #111	@ 0x6f
1000aaec:	306e      	adds	r0, #110	@ 0x6e
1000aaee:	00e4      	lsls	r4, r4, #3
1000aaf0:	e7bc      	b.n	1000aa6c <_free_r+0xd8>
1000aaf2:	0020      	movs	r0, r4
1000aaf4:	345c      	adds	r4, #92	@ 0x5c
1000aaf6:	305b      	adds	r0, #91	@ 0x5b
1000aaf8:	00e4      	lsls	r4, r4, #3
1000aafa:	e7b7      	b.n	1000aa6c <_free_r+0xd8>
1000aafc:	2301      	movs	r3, #1
1000aafe:	1080      	asrs	r0, r0, #2
1000ab00:	4083      	lsls	r3, r0
1000ab02:	6870      	ldr	r0, [r6, #4]
1000ab04:	4303      	orrs	r3, r0
1000ab06:	6073      	str	r3, [r6, #4]
1000ab08:	e7bf      	b.n	1000aa8a <_free_r+0xf6>
1000ab0a:	60d1      	str	r1, [r2, #12]
1000ab0c:	6091      	str	r1, [r2, #8]
1000ab0e:	60ca      	str	r2, [r1, #12]
1000ab10:	608a      	str	r2, [r1, #8]
1000ab12:	2201      	movs	r2, #1
1000ab14:	431a      	orrs	r2, r3
1000ab16:	604a      	str	r2, [r1, #4]
1000ab18:	50cb      	str	r3, [r1, r3]
1000ab1a:	e798      	b.n	1000aa4e <_free_r+0xba>
1000ab1c:	22aa      	movs	r2, #170	@ 0xaa
1000ab1e:	0052      	lsls	r2, r2, #1
1000ab20:	4294      	cmp	r4, r2
1000ab22:	d805      	bhi.n	1000ab30 <_free_r+0x19c>
1000ab24:	0bdc      	lsrs	r4, r3, #15
1000ab26:	0020      	movs	r0, r4
1000ab28:	3478      	adds	r4, #120	@ 0x78
1000ab2a:	3077      	adds	r0, #119	@ 0x77
1000ab2c:	00e4      	lsls	r4, r4, #3
1000ab2e:	e79d      	b.n	1000aa6c <_free_r+0xd8>
1000ab30:	4a0c      	ldr	r2, [pc, #48]	@ (1000ab64 <_free_r+0x1d0>)
1000ab32:	4294      	cmp	r4, r2
1000ab34:	d805      	bhi.n	1000ab42 <_free_r+0x1ae>
1000ab36:	0c9c      	lsrs	r4, r3, #18
1000ab38:	0020      	movs	r0, r4
1000ab3a:	347d      	adds	r4, #125	@ 0x7d
1000ab3c:	307c      	adds	r0, #124	@ 0x7c
1000ab3e:	00e4      	lsls	r4, r4, #3
1000ab40:	e794      	b.n	1000aa6c <_free_r+0xd8>
1000ab42:	24fe      	movs	r4, #254	@ 0xfe
1000ab44:	207e      	movs	r0, #126	@ 0x7e
1000ab46:	00a4      	lsls	r4, r4, #2
1000ab48:	e790      	b.n	1000aa6c <_free_r+0xd8>
1000ab4a:	4662      	mov	r2, ip
1000ab4c:	431a      	orrs	r2, r3
1000ab4e:	604a      	str	r2, [r1, #4]
1000ab50:	603b      	str	r3, [r7, #0]
1000ab52:	e77c      	b.n	1000aa4e <_free_r+0xba>
1000ab54:	20000fd8 	.word	0x20000fd8
1000ab58:	20000fe0 	.word	0x20000fe0
1000ab5c:	20000fd4 	.word	0x20000fd4
1000ab60:	2000158c 	.word	0x2000158c
1000ab64:	00000554 	.word	0x00000554

1000ab68 <malloc>:
1000ab68:	b510      	push	{r4, lr}
1000ab6a:	4b03      	ldr	r3, [pc, #12]	@ (1000ab78 <malloc+0x10>)
1000ab6c:	0001      	movs	r1, r0
1000ab6e:	6818      	ldr	r0, [r3, #0]
1000ab70:	f7ff fbdc 	bl	1000a32c <_malloc_r>
1000ab74:	bd10      	pop	{r4, pc}
1000ab76:	46c0      	nop			@ (mov r8, r8)
1000ab78:	20000ea8 	.word	0x20000ea8

1000ab7c <free>:
1000ab7c:	b510      	push	{r4, lr}
1000ab7e:	4b03      	ldr	r3, [pc, #12]	@ (1000ab8c <free+0x10>)
1000ab80:	0001      	movs	r1, r0
1000ab82:	6818      	ldr	r0, [r3, #0]
1000ab84:	f7ff ff06 	bl	1000a994 <_free_r>
1000ab88:	bd10      	pop	{r4, pc}
1000ab8a:	46c0      	nop			@ (mov r8, r8)
1000ab8c:	20000ea8 	.word	0x20000ea8

1000ab90 <sysconf>:
1000ab90:	2380      	movs	r3, #128	@ 0x80
1000ab92:	b510      	push	{r4, lr}
1000ab94:	015b      	lsls	r3, r3, #5
1000ab96:	2808      	cmp	r0, #8
1000ab98:	d101      	bne.n	1000ab9e <sysconf+0xe>
1000ab9a:	0018      	movs	r0, r3
1000ab9c:	bd10      	pop	{r4, pc}
1000ab9e:	f000 f865 	bl	1000ac6c <__errno>
1000aba2:	2316      	movs	r3, #22
1000aba4:	6003      	str	r3, [r0, #0]
1000aba6:	3b17      	subs	r3, #23
1000aba8:	e7f7      	b.n	1000ab9a <sysconf+0xa>
1000abaa:	46c0      	nop			@ (mov r8, r8)

1000abac <__malloc_lock>:
1000abac:	4770      	bx	lr
1000abae:	46c0      	nop			@ (mov r8, r8)

1000abb0 <__malloc_unlock>:
1000abb0:	4770      	bx	lr
1000abb2:	46c0      	nop			@ (mov r8, r8)

1000abb4 <atexit>:
1000abb4:	b510      	push	{r4, lr}
1000abb6:	0001      	movs	r1, r0
1000abb8:	2300      	movs	r3, #0
1000abba:	2200      	movs	r2, #0
1000abbc:	2000      	movs	r0, #0
1000abbe:	f000 f85b 	bl	1000ac78 <__register_exitproc>
1000abc2:	bd10      	pop	{r4, pc}

1000abc4 <strlen>:
1000abc4:	b510      	push	{r4, lr}
1000abc6:	0783      	lsls	r3, r0, #30
1000abc8:	d00a      	beq.n	1000abe0 <strlen+0x1c>
1000abca:	0003      	movs	r3, r0
1000abcc:	2103      	movs	r1, #3
1000abce:	e002      	b.n	1000abd6 <strlen+0x12>
1000abd0:	3301      	adds	r3, #1
1000abd2:	420b      	tst	r3, r1
1000abd4:	d005      	beq.n	1000abe2 <strlen+0x1e>
1000abd6:	781a      	ldrb	r2, [r3, #0]
1000abd8:	2a00      	cmp	r2, #0
1000abda:	d1f9      	bne.n	1000abd0 <strlen+0xc>
1000abdc:	1a18      	subs	r0, r3, r0
1000abde:	bd10      	pop	{r4, pc}
1000abe0:	0003      	movs	r3, r0
1000abe2:	6819      	ldr	r1, [r3, #0]
1000abe4:	4a0c      	ldr	r2, [pc, #48]	@ (1000ac18 <strlen+0x54>)
1000abe6:	4c0d      	ldr	r4, [pc, #52]	@ (1000ac1c <strlen+0x58>)
1000abe8:	188a      	adds	r2, r1, r2
1000abea:	438a      	bics	r2, r1
1000abec:	4222      	tst	r2, r4
1000abee:	d10f      	bne.n	1000ac10 <strlen+0x4c>
1000abf0:	6859      	ldr	r1, [r3, #4]
1000abf2:	4a09      	ldr	r2, [pc, #36]	@ (1000ac18 <strlen+0x54>)
1000abf4:	3304      	adds	r3, #4
1000abf6:	188a      	adds	r2, r1, r2
1000abf8:	438a      	bics	r2, r1
1000abfa:	4222      	tst	r2, r4
1000abfc:	d108      	bne.n	1000ac10 <strlen+0x4c>
1000abfe:	6859      	ldr	r1, [r3, #4]
1000ac00:	4a05      	ldr	r2, [pc, #20]	@ (1000ac18 <strlen+0x54>)
1000ac02:	3304      	adds	r3, #4
1000ac04:	188a      	adds	r2, r1, r2
1000ac06:	438a      	bics	r2, r1
1000ac08:	4222      	tst	r2, r4
1000ac0a:	d0f1      	beq.n	1000abf0 <strlen+0x2c>
1000ac0c:	e000      	b.n	1000ac10 <strlen+0x4c>
1000ac0e:	3301      	adds	r3, #1
1000ac10:	781a      	ldrb	r2, [r3, #0]
1000ac12:	2a00      	cmp	r2, #0
1000ac14:	d1fb      	bne.n	1000ac0e <strlen+0x4a>
1000ac16:	e7e1      	b.n	1000abdc <strlen+0x18>
1000ac18:	fefefeff 	.word	0xfefefeff
1000ac1c:	80808080 	.word	0x80808080

1000ac20 <_sbrk_r>:
1000ac20:	2300      	movs	r3, #0
1000ac22:	b570      	push	{r4, r5, r6, lr}
1000ac24:	4c06      	ldr	r4, [pc, #24]	@ (1000ac40 <_sbrk_r+0x20>)
1000ac26:	0005      	movs	r5, r0
1000ac28:	0008      	movs	r0, r1
1000ac2a:	6023      	str	r3, [r4, #0]
1000ac2c:	f7f9 fc70 	bl	10004510 <_sbrk>
1000ac30:	1c43      	adds	r3, r0, #1
1000ac32:	d000      	beq.n	1000ac36 <_sbrk_r+0x16>
1000ac34:	bd70      	pop	{r4, r5, r6, pc}
1000ac36:	6823      	ldr	r3, [r4, #0]
1000ac38:	2b00      	cmp	r3, #0
1000ac3a:	d0fb      	beq.n	1000ac34 <_sbrk_r+0x14>
1000ac3c:	602b      	str	r3, [r5, #0]
1000ac3e:	e7f9      	b.n	1000ac34 <_sbrk_r+0x14>
1000ac40:	200016fc 	.word	0x200016fc

1000ac44 <__libc_fini_array>:
1000ac44:	b570      	push	{r4, r5, r6, lr}
1000ac46:	4c07      	ldr	r4, [pc, #28]	@ (1000ac64 <__libc_fini_array+0x20>)
1000ac48:	4d07      	ldr	r5, [pc, #28]	@ (1000ac68 <__libc_fini_array+0x24>)
1000ac4a:	1b64      	subs	r4, r4, r5
1000ac4c:	10a4      	asrs	r4, r4, #2
1000ac4e:	d005      	beq.n	1000ac5c <__libc_fini_array+0x18>
1000ac50:	3c01      	subs	r4, #1
1000ac52:	00a3      	lsls	r3, r4, #2
1000ac54:	58eb      	ldr	r3, [r5, r3]
1000ac56:	4798      	blx	r3
1000ac58:	2c00      	cmp	r4, #0
1000ac5a:	d1f9      	bne.n	1000ac50 <__libc_fini_array+0xc>
1000ac5c:	f000 f854 	bl	1000ad08 <_fini>
1000ac60:	bd70      	pop	{r4, r5, r6, pc}
1000ac62:	46c0      	nop			@ (mov r8, r8)
1000ac64:	2000140c 	.word	0x2000140c
1000ac68:	2000140c 	.word	0x2000140c

1000ac6c <__errno>:
1000ac6c:	4b01      	ldr	r3, [pc, #4]	@ (1000ac74 <__errno+0x8>)
1000ac6e:	6818      	ldr	r0, [r3, #0]
1000ac70:	4770      	bx	lr
1000ac72:	46c0      	nop			@ (mov r8, r8)
1000ac74:	20000ea8 	.word	0x20000ea8

1000ac78 <__register_exitproc>:
1000ac78:	b5f0      	push	{r4, r5, r6, r7, lr}
1000ac7a:	46c6      	mov	lr, r8
1000ac7c:	4c1a      	ldr	r4, [pc, #104]	@ (1000ace8 <__register_exitproc+0x70>)
1000ac7e:	b500      	push	{lr}
1000ac80:	6825      	ldr	r5, [r4, #0]
1000ac82:	2d00      	cmp	r5, #0
1000ac84:	d02a      	beq.n	1000acdc <__register_exitproc+0x64>
1000ac86:	686c      	ldr	r4, [r5, #4]
1000ac88:	2c1f      	cmp	r4, #31
1000ac8a:	dc2a      	bgt.n	1000ace2 <__register_exitproc+0x6a>
1000ac8c:	2800      	cmp	r0, #0
1000ac8e:	d108      	bne.n	1000aca2 <__register_exitproc+0x2a>
1000ac90:	2000      	movs	r0, #0
1000ac92:	1c63      	adds	r3, r4, #1
1000ac94:	3402      	adds	r4, #2
1000ac96:	00a4      	lsls	r4, r4, #2
1000ac98:	606b      	str	r3, [r5, #4]
1000ac9a:	5161      	str	r1, [r4, r5]
1000ac9c:	bc80      	pop	{r7}
1000ac9e:	46b8      	mov	r8, r7
1000aca0:	bdf0      	pop	{r4, r5, r6, r7, pc}
1000aca2:	2788      	movs	r7, #136	@ 0x88
1000aca4:	00a6      	lsls	r6, r4, #2
1000aca6:	19ae      	adds	r6, r5, r6
1000aca8:	51f2      	str	r2, [r6, r7]
1000acaa:	3701      	adds	r7, #1
1000acac:	37ff      	adds	r7, #255	@ 0xff
1000acae:	46bc      	mov	ip, r7
1000acb0:	2201      	movs	r2, #1
1000acb2:	44ac      	add	ip, r5
1000acb4:	4667      	mov	r7, ip
1000acb6:	40a2      	lsls	r2, r4
1000acb8:	683f      	ldr	r7, [r7, #0]
1000acba:	4690      	mov	r8, r2
1000acbc:	4317      	orrs	r7, r2
1000acbe:	4662      	mov	r2, ip
1000acc0:	6017      	str	r7, [r2, #0]
1000acc2:	2784      	movs	r7, #132	@ 0x84
1000acc4:	007f      	lsls	r7, r7, #1
1000acc6:	51f3      	str	r3, [r6, r7]
1000acc8:	2802      	cmp	r0, #2
1000acca:	d1e1      	bne.n	1000ac90 <__register_exitproc+0x18>
1000accc:	0028      	movs	r0, r5
1000acce:	4642      	mov	r2, r8
1000acd0:	308d      	adds	r0, #141	@ 0x8d
1000acd2:	30ff      	adds	r0, #255	@ 0xff
1000acd4:	6803      	ldr	r3, [r0, #0]
1000acd6:	4313      	orrs	r3, r2
1000acd8:	6003      	str	r3, [r0, #0]
1000acda:	e7d9      	b.n	1000ac90 <__register_exitproc+0x18>
1000acdc:	4d03      	ldr	r5, [pc, #12]	@ (1000acec <__register_exitproc+0x74>)
1000acde:	6025      	str	r5, [r4, #0]
1000ace0:	e7d1      	b.n	1000ac86 <__register_exitproc+0xe>
1000ace2:	2001      	movs	r0, #1
1000ace4:	4240      	negs	r0, r0
1000ace6:	e7d9      	b.n	1000ac9c <__register_exitproc+0x24>
1000ace8:	20001890 	.word	0x20001890
1000acec:	20001700 	.word	0x20001700

1000acf0 <register_fini>:
1000acf0:	4b03      	ldr	r3, [pc, #12]	@ (1000ad00 <register_fini+0x10>)
1000acf2:	b510      	push	{r4, lr}
1000acf4:	2b00      	cmp	r3, #0
1000acf6:	d002      	beq.n	1000acfe <register_fini+0xe>
1000acf8:	4802      	ldr	r0, [pc, #8]	@ (1000ad04 <register_fini+0x14>)
1000acfa:	f7ff ff5b 	bl	1000abb4 <atexit>
1000acfe:	bd10      	pop	{r4, pc}
1000ad00:	00000000 	.word	0x00000000
1000ad04:	1000ac45 	.word	0x1000ac45

1000ad08 <_fini>:
1000ad08:	b5f8      	push	{r3, r4, r5, r6, r7, lr}
1000ad0a:	46c0      	nop			@ (mov r8, r8)
1000ad0c:	0000      	movs	r0, r0
	...

1000ad10 <__reset_non_control_endpoints_veneer>:
1000ad10:	b401      	push	{r0}
1000ad12:	4802      	ldr	r0, [pc, #8]	@ (1000ad1c <__reset_non_control_endpoints_veneer+0xc>)
1000ad14:	4684      	mov	ip, r0
1000ad16:	bc01      	pop	{r0}
1000ad18:	4760      	bx	ip
1000ad1a:	bf00      	nop
1000ad1c:	200003b5 	.word	0x200003b5

1000ad20 <__flash_do_cmd_veneer>:
1000ad20:	b401      	push	{r0}
1000ad22:	4802      	ldr	r0, [pc, #8]	@ (1000ad2c <__flash_do_cmd_veneer+0xc>)
1000ad24:	4684      	mov	ip, r0
1000ad26:	bc01      	pop	{r0}
1000ad28:	4760      	bx	ip
1000ad2a:	bf00      	nop
1000ad2c:	200002dd 	.word	0x200002dd

1000ad30 <__mutex_exit_veneer>:
1000ad30:	b401      	push	{r0}
1000ad32:	4802      	ldr	r0, [pc, #8]	@ (1000ad3c <__mutex_exit_veneer+0xc>)
1000ad34:	4684      	mov	ip, r0
1000ad36:	bc01      	pop	{r0}
1000ad38:	4760      	bx	ip
1000ad3a:	bf00      	nop
1000ad3c:	2000022d 	.word	0x2000022d

1000ad40 <____aeabi_ldiv0_veneer>:
1000ad40:	b401      	push	{r0}
1000ad42:	4802      	ldr	r0, [pc, #8]	@ (1000ad4c <____aeabi_ldiv0_veneer+0xc>)
1000ad44:	4684      	mov	ip, r0
1000ad46:	bc01      	pop	{r0}
1000ad48:	4760      	bx	ip
1000ad4a:	bf00      	nop
1000ad4c:	20000aa5 	.word	0x20000aa5

1000ad50 <__e15_is_bulkin_ep_veneer>:
1000ad50:	b401      	push	{r0}
1000ad52:	4802      	ldr	r0, [pc, #8]	@ (1000ad5c <__e15_is_bulkin_ep_veneer+0xc>)
1000ad54:	4684      	mov	ip, r0
1000ad56:	bc01      	pop	{r0}
1000ad58:	4760      	bx	ip
1000ad5a:	bf00      	nop
1000ad5c:	20000651 	.word	0x20000651

1000ad60 <____aeabi_idiv0_veneer>:
1000ad60:	b401      	push	{r0}
1000ad62:	4802      	ldr	r0, [pc, #8]	@ (1000ad6c <____aeabi_idiv0_veneer+0xc>)
1000ad64:	4684      	mov	ip, r0
1000ad66:	bc01      	pop	{r0}
1000ad68:	4760      	bx	ip
1000ad6a:	bf00      	nop
1000ad6c:	20000aa5 	.word	0x20000aa5

1000ad70 <__mutex_try_enter_veneer>:
1000ad70:	b401      	push	{r0}
1000ad72:	4802      	ldr	r0, [pc, #8]	@ (1000ad7c <__mutex_try_enter_veneer+0xc>)
1000ad74:	4684      	mov	ip, r0
1000ad76:	bc01      	pop	{r0}
1000ad78:	4760      	bx	ip
1000ad7a:	bf00      	nop
1000ad7c:	20000109 	.word	0x20000109

1000ad80 <__mutex_enter_timeout_ms_veneer>:
1000ad80:	b401      	push	{r0}
1000ad82:	4802      	ldr	r0, [pc, #8]	@ (1000ad8c <__mutex_enter_timeout_ms_veneer+0xc>)
1000ad84:	4684      	mov	ip, r0
1000ad86:	bc01      	pop	{r0}
1000ad88:	4760      	bx	ip
1000ad8a:	bf00      	nop
1000ad8c:	20000211 	.word	0x20000211

1000ad90 <__dcd_event_handler_veneer>:
1000ad90:	b401      	push	{r0}
1000ad92:	4802      	ldr	r0, [pc, #8]	@ (1000ad9c <__dcd_event_handler_veneer+0xc>)
1000ad94:	4684      	mov	ip, r0
1000ad96:	bc01      	pop	{r0}
1000ad98:	4760      	bx	ip
1000ad9a:	bf00      	nop
1000ad9c:	200008f9 	.word	0x200008f9

1000ada0 <__mutex_try_enter_block_until_veneer>:
1000ada0:	b401      	push	{r0}
1000ada2:	4802      	ldr	r0, [pc, #8]	@ (1000adac <__mutex_try_enter_block_until_veneer+0xc>)
1000ada4:	4684      	mov	ip, r0
1000ada6:	bc01      	pop	{r0}
1000ada8:	4760      	bx	ip
1000adaa:	bf00      	nop
1000adac:	200001dd 	.word	0x200001dd

1000adb0 <__hw_endpoint_start_next_buffer_veneer>:
1000adb0:	b401      	push	{r0}
1000adb2:	4802      	ldr	r0, [pc, #8]	@ (1000adbc <__hw_endpoint_start_next_buffer_veneer+0xc>)
1000adb4:	4684      	mov	ip, r0
1000adb6:	bc01      	pop	{r0}
1000adb8:	4760      	bx	ip
1000adba:	bf00      	nop
1000adbc:	20000821 	.word	0x20000821

1000adc0 <__hw_endpoint_reset_transfer_veneer>:
1000adc0:	b401      	push	{r0}
1000adc2:	4802      	ldr	r0, [pc, #8]	@ (1000adcc <__hw_endpoint_reset_transfer_veneer+0xc>)
1000adc4:	4684      	mov	ip, r0
1000adc6:	bc01      	pop	{r0}
1000adc8:	4760      	bx	ip
1000adca:	bf00      	nop
1000adcc:	200007bd 	.word	0x200007bd

1000add0 <___hw_endpoint_buffer_control_update32_veneer>:
1000add0:	b401      	push	{r0}
1000add2:	4802      	ldr	r0, [pc, #8]	@ (1000addc <___hw_endpoint_buffer_control_update32_veneer+0xc>)
1000add4:	4684      	mov	ip, r0
1000add6:	bc01      	pop	{r0}
1000add8:	4760      	bx	ip
1000adda:	bf00      	nop
1000addc:	200007c9 	.word	0x200007c9

1000ade0 <__mutex_enter_blocking_veneer>:
1000ade0:	b401      	push	{r0}
1000ade2:	4802      	ldr	r0, [pc, #8]	@ (1000adec <__mutex_enter_blocking_veneer+0xc>)
1000ade4:	4684      	mov	ip, r0
1000ade6:	bc01      	pop	{r0}
1000ade8:	4760      	bx	ip
1000adea:	bf00      	nop
1000adec:	200000c1 	.word	0x200000c1

1000adf0 <__e15_is_critical_frame_period_veneer>:
1000adf0:	b401      	push	{r0}
1000adf2:	4802      	ldr	r0, [pc, #8]	@ (1000adfc <__e15_is_critical_frame_period_veneer+0xc>)
1000adf4:	4684      	mov	ip, r0
1000adf6:	bc01      	pop	{r0}
1000adf8:	4760      	bx	ip
1000adfa:	bf00      	nop
1000adfc:	2000067d 	.word	0x2000067d

Disassembly of section .data:

200000c0 <mutex_enter_blocking>:
200000c0:	b510      	push	{r4, lr}
200000c2:	23d0      	movs	r3, #208	@ 0xd0
200000c4:	061b      	lsls	r3, r3, #24
200000c6:	2400      	movs	r4, #0
200000c8:	571c      	ldrsb	r4, [r3, r4]
200000ca:	6802      	ldr	r2, [r0, #0]
200000cc:	f3ef 8110 	mrs	r1, PRIMASK
200000d0:	b672      	cpsid	i
200000d2:	6813      	ldr	r3, [r2, #0]
200000d4:	2b00      	cmp	r3, #0
200000d6:	d0fc      	beq.n	200000d2 <mutex_enter_blocking+0x12>
200000d8:	f3bf 8f5f 	dmb	sy
200000dc:	2304      	movs	r3, #4
200000de:	56c3      	ldrsb	r3, [r0, r3]
200000e0:	2b00      	cmp	r3, #0
200000e2:	db08      	blt.n	200000f6 <mutex_enter_blocking+0x36>
200000e4:	6803      	ldr	r3, [r0, #0]
200000e6:	f3bf 8f5f 	dmb	sy
200000ea:	2200      	movs	r2, #0
200000ec:	601a      	str	r2, [r3, #0]
200000ee:	f381 8810 	msr	PRIMASK, r1
200000f2:	bf20      	wfe
200000f4:	e7e9      	b.n	200000ca <mutex_enter_blocking+0xa>
200000f6:	7104      	strb	r4, [r0, #4]
200000f8:	6803      	ldr	r3, [r0, #0]
200000fa:	f3bf 8f5f 	dmb	sy
200000fe:	2200      	movs	r2, #0
20000100:	601a      	str	r2, [r3, #0]
20000102:	f381 8810 	msr	PRIMASK, r1
20000106:	bd10      	pop	{r4, pc}

20000108 <mutex_try_enter>:
20000108:	0003      	movs	r3, r0
2000010a:	6800      	ldr	r0, [r0, #0]
2000010c:	f3ef 8c10 	mrs	ip, PRIMASK
20000110:	b672      	cpsid	i
20000112:	6802      	ldr	r2, [r0, #0]
20000114:	2a00      	cmp	r2, #0
20000116:	d0fc      	beq.n	20000112 <mutex_try_enter+0xa>
20000118:	f3bf 8f5f 	dmb	sy
2000011c:	2204      	movs	r2, #4
2000011e:	569a      	ldrsb	r2, [r3, r2]
20000120:	2a00      	cmp	r2, #0
20000122:	db0b      	blt.n	2000013c <mutex_try_enter+0x34>
20000124:	2900      	cmp	r1, #0
20000126:	d010      	beq.n	2000014a <mutex_try_enter+0x42>
20000128:	600a      	str	r2, [r1, #0]
2000012a:	2000      	movs	r0, #0
2000012c:	681b      	ldr	r3, [r3, #0]
2000012e:	f3bf 8f5f 	dmb	sy
20000132:	2200      	movs	r2, #0
20000134:	601a      	str	r2, [r3, #0]
20000136:	f38c 8810 	msr	PRIMASK, ip
2000013a:	4770      	bx	lr
2000013c:	22d0      	movs	r2, #208	@ 0xd0
2000013e:	0612      	lsls	r2, r2, #24
20000140:	7812      	ldrb	r2, [r2, #0]
20000142:	b252      	sxtb	r2, r2
20000144:	711a      	strb	r2, [r3, #4]
20000146:	2001      	movs	r0, #1
20000148:	e7f0      	b.n	2000012c <mutex_try_enter+0x24>
2000014a:	2000      	movs	r0, #0
2000014c:	e7ee      	b.n	2000012c <mutex_try_enter+0x24>
	...

20000150 <mutex_enter_block_until>:
20000150:	b5f8      	push	{r3, r4, r5, r6, r7, lr}
20000152:	46ce      	mov	lr, r9
20000154:	4647      	mov	r7, r8
20000156:	b580      	push	{r7, lr}
20000158:	0004      	movs	r4, r0
2000015a:	0017      	movs	r7, r2
2000015c:	4698      	mov	r8, r3
2000015e:	6803      	ldr	r3, [r0, #0]
20000160:	2b00      	cmp	r3, #0
20000162:	d020      	beq.n	200001a6 <mutex_enter_block_until+0x56>
20000164:	23d0      	movs	r3, #208	@ 0xd0
20000166:	061b      	lsls	r3, r3, #24
20000168:	781b      	ldrb	r3, [r3, #0]
2000016a:	b25b      	sxtb	r3, r3
2000016c:	4699      	mov	r9, r3
2000016e:	6826      	ldr	r6, [r4, #0]
20000170:	f3ef 8c10 	mrs	ip, PRIMASK
20000174:	b672      	cpsid	i
20000176:	6835      	ldr	r5, [r6, #0]
20000178:	2d00      	cmp	r5, #0
2000017a:	d0fc      	beq.n	20000176 <mutex_enter_block_until+0x26>
2000017c:	f3bf 8f5f 	dmb	sy
20000180:	2504      	movs	r5, #4
20000182:	5765      	ldrsb	r5, [r4, r5]
20000184:	2d00      	cmp	r5, #0
20000186:	db14      	blt.n	200001b2 <mutex_enter_block_until+0x62>
20000188:	6823      	ldr	r3, [r4, #0]
2000018a:	f3bf 8f5f 	dmb	sy
2000018e:	2200      	movs	r2, #0
20000190:	601a      	str	r2, [r3, #0]
20000192:	f38c 8810 	msr	PRIMASK, ip
20000196:	0038      	movs	r0, r7
20000198:	4641      	mov	r1, r8
2000019a:	f000 fc95 	bl	20000ac8 <__best_effort_wfe_or_timeout_veneer>
2000019e:	2800      	cmp	r0, #0
200001a0:	d0e5      	beq.n	2000016e <mutex_enter_block_until+0x1e>
200001a2:	2000      	movs	r0, #0
200001a4:	e00f      	b.n	200001c6 <mutex_enter_block_until+0x76>
200001a6:	4b0a      	ldr	r3, [pc, #40]	@ (200001d0 <mutex_enter_block_until+0x80>)
200001a8:	4a0a      	ldr	r2, [pc, #40]	@ (200001d4 <mutex_enter_block_until+0x84>)
200001aa:	480b      	ldr	r0, [pc, #44]	@ (200001d8 <mutex_enter_block_until+0x88>)
200001ac:	2185      	movs	r1, #133	@ 0x85
200001ae:	f000 fcab 	bl	20000b08 <____assert_func_veneer>
200001b2:	464b      	mov	r3, r9
200001b4:	7123      	strb	r3, [r4, #4]
200001b6:	6823      	ldr	r3, [r4, #0]
200001b8:	f3bf 8f5f 	dmb	sy
200001bc:	2200      	movs	r2, #0
200001be:	601a      	str	r2, [r3, #0]
200001c0:	f38c 8810 	msr	PRIMASK, ip
200001c4:	2001      	movs	r0, #1
200001c6:	bcc0      	pop	{r6, r7}
200001c8:	46b9      	mov	r9, r7
200001ca:	46b0      	mov	r8, r6
200001cc:	bdf8      	pop	{r3, r4, r5, r6, r7, pc}
200001ce:	46c0      	nop			@ (mov r8, r8)
200001d0:	1000b790 	.word	0x1000b790
200001d4:	1000c4c8 	.word	0x1000c4c8
200001d8:	1000b758 	.word	0x1000b758

200001dc <mutex_try_enter_block_until>:
200001dc:	b570      	push	{r4, r5, r6, lr}
200001de:	b082      	sub	sp, #8
200001e0:	0006      	movs	r6, r0
200001e2:	0015      	movs	r5, r2
200001e4:	001c      	movs	r4, r3
200001e6:	a901      	add	r1, sp, #4
200001e8:	f7ff ff8e 	bl	20000108 <mutex_try_enter>
200001ec:	2800      	cmp	r0, #0
200001ee:	d107      	bne.n	20000200 <mutex_try_enter_block_until+0x24>
200001f0:	9b01      	ldr	r3, [sp, #4]
200001f2:	b25b      	sxtb	r3, r3
200001f4:	22d0      	movs	r2, #208	@ 0xd0
200001f6:	0612      	lsls	r2, r2, #24
200001f8:	7812      	ldrb	r2, [r2, #0]
200001fa:	b252      	sxtb	r2, r2
200001fc:	4293      	cmp	r3, r2
200001fe:	d101      	bne.n	20000204 <mutex_try_enter_block_until+0x28>
20000200:	b002      	add	sp, #8
20000202:	bd70      	pop	{r4, r5, r6, pc}
20000204:	002a      	movs	r2, r5
20000206:	0023      	movs	r3, r4
20000208:	0030      	movs	r0, r6
2000020a:	f7ff ffa1 	bl	20000150 <mutex_enter_block_until>
2000020e:	e7f7      	b.n	20000200 <mutex_try_enter_block_until+0x24>

20000210 <mutex_enter_timeout_ms>:
20000210:	b510      	push	{r4, lr}
20000212:	b082      	sub	sp, #8
20000214:	0004      	movs	r4, r0
20000216:	4668      	mov	r0, sp
20000218:	f000 fc66 	bl	20000ae8 <__make_timeout_time_ms_veneer>
2000021c:	9a00      	ldr	r2, [sp, #0]
2000021e:	9b01      	ldr	r3, [sp, #4]
20000220:	0020      	movs	r0, r4
20000222:	f7ff ff95 	bl	20000150 <mutex_enter_block_until>
20000226:	b002      	add	sp, #8
20000228:	bd10      	pop	{r4, pc}
	...

2000022c <mutex_exit>:
2000022c:	b510      	push	{r4, lr}
2000022e:	6802      	ldr	r2, [r0, #0]
20000230:	f3ef 8110 	mrs	r1, PRIMASK
20000234:	b672      	cpsid	i
20000236:	6813      	ldr	r3, [r2, #0]
20000238:	2b00      	cmp	r3, #0
2000023a:	d0fc      	beq.n	20000236 <mutex_exit+0xa>
2000023c:	f3bf 8f5f 	dmb	sy
20000240:	2304      	movs	r3, #4
20000242:	56c3      	ldrsb	r3, [r0, r3]
20000244:	2b00      	cmp	r3, #0
20000246:	db0a      	blt.n	2000025e <mutex_exit+0x32>
20000248:	23ff      	movs	r3, #255	@ 0xff
2000024a:	7103      	strb	r3, [r0, #4]
2000024c:	6803      	ldr	r3, [r0, #0]
2000024e:	f3bf 8f5f 	dmb	sy
20000252:	2200      	movs	r2, #0
20000254:	601a      	str	r2, [r3, #0]
20000256:	f381 8810 	msr	PRIMASK, r1
2000025a:	bf40      	sev
2000025c:	bd10      	pop	{r4, pc}
2000025e:	4b03      	ldr	r3, [pc, #12]	@ (2000026c <mutex_exit+0x40>)
20000260:	4a03      	ldr	r2, [pc, #12]	@ (20000270 <mutex_exit+0x44>)
20000262:	4804      	ldr	r0, [pc, #16]	@ (20000274 <mutex_exit+0x48>)
20000264:	21b4      	movs	r1, #180	@ 0xb4
20000266:	f000 fc4f 	bl	20000b08 <____assert_func_veneer>
2000026a:	46c0      	nop			@ (mov r8, r8)
2000026c:	1000b7a4 	.word	0x1000b7a4
20000270:	1000c4bc 	.word	0x1000c4bc
20000274:	1000b758 	.word	0x1000b758

20000278 <flash_init_boot2_copyout>:
20000278:	4b09      	ldr	r3, [pc, #36]	@ (200002a0 <flash_init_boot2_copyout+0x28>)
2000027a:	781b      	ldrb	r3, [r3, #0]
2000027c:	2b00      	cmp	r3, #0
2000027e:	d008      	beq.n	20000292 <flash_init_boot2_copyout+0x1a>
20000280:	e00c      	b.n	2000029c <flash_init_boot2_copyout+0x24>
20000282:	009a      	lsls	r2, r3, #2
20000284:	2180      	movs	r1, #128	@ 0x80
20000286:	0549      	lsls	r1, r1, #21
20000288:	1851      	adds	r1, r2, r1
2000028a:	6808      	ldr	r0, [r1, #0]
2000028c:	4905      	ldr	r1, [pc, #20]	@ (200002a4 <flash_init_boot2_copyout+0x2c>)
2000028e:	5050      	str	r0, [r2, r1]
20000290:	3301      	adds	r3, #1
20000292:	2b3f      	cmp	r3, #63	@ 0x3f
20000294:	ddf5      	ble.n	20000282 <flash_init_boot2_copyout+0xa>
20000296:	4b02      	ldr	r3, [pc, #8]	@ (200002a0 <flash_init_boot2_copyout+0x28>)
20000298:	2201      	movs	r2, #1
2000029a:	701a      	strb	r2, [r3, #0]
2000029c:	4770      	bx	lr
2000029e:	46c0      	nop			@ (mov r8, r8)
200002a0:	2000254e 	.word	0x2000254e
200002a4:	20001ce8 	.word	0x20001ce8

200002a8 <flash_enable_xip_via_boot2>:
200002a8:	b510      	push	{r4, lr}
200002aa:	4b01      	ldr	r3, [pc, #4]	@ (200002b0 <flash_enable_xip_via_boot2+0x8>)
200002ac:	4798      	blx	r3
200002ae:	bd10      	pop	{r4, pc}
200002b0:	20001ce9 	.word	0x20001ce9

200002b4 <flash_cs_force>:
200002b4:	2800      	cmp	r0, #0
200002b6:	d00a      	beq.n	200002ce <flash_cs_force+0x1a>
200002b8:	2303      	movs	r3, #3
200002ba:	021b      	lsls	r3, r3, #8
200002bc:	4a05      	ldr	r2, [pc, #20]	@ (200002d4 <flash_cs_force+0x20>)
200002be:	6812      	ldr	r2, [r2, #0]
200002c0:	4053      	eors	r3, r2
200002c2:	22c0      	movs	r2, #192	@ 0xc0
200002c4:	0092      	lsls	r2, r2, #2
200002c6:	4013      	ands	r3, r2
200002c8:	4a03      	ldr	r2, [pc, #12]	@ (200002d8 <flash_cs_force+0x24>)
200002ca:	6013      	str	r3, [r2, #0]
200002cc:	4770      	bx	lr
200002ce:	2302      	movs	r3, #2
200002d0:	e7f3      	b.n	200002ba <flash_cs_force+0x6>
200002d2:	46c0      	nop			@ (mov r8, r8)
200002d4:	4001800c 	.word	0x4001800c
200002d8:	4001900c 	.word	0x4001900c

200002dc <flash_do_cmd>:
200002dc:	b5f0      	push	{r4, r5, r6, r7, lr}
200002de:	46d6      	mov	lr, sl
200002e0:	464f      	mov	r7, r9
200002e2:	4646      	mov	r6, r8
200002e4:	b5c0      	push	{r6, r7, lr}
200002e6:	0007      	movs	r7, r0
200002e8:	000e      	movs	r6, r1
200002ea:	0015      	movs	r5, r2
200002ec:	2318      	movs	r3, #24
200002ee:	469a      	mov	sl, r3
200002f0:	881b      	ldrh	r3, [r3, #0]
200002f2:	2214      	movs	r2, #20
200002f4:	4690      	mov	r8, r2
200002f6:	8810      	ldrh	r0, [r2, #0]
200002f8:	4928      	ldr	r1, [pc, #160]	@ (2000039c <flash_do_cmd+0xc0>)
200002fa:	4798      	blx	r3
200002fc:	4681      	mov	r9, r0
200002fe:	4653      	mov	r3, sl
20000300:	881b      	ldrh	r3, [r3, #0]
20000302:	4642      	mov	r2, r8
20000304:	8810      	ldrh	r0, [r2, #0]
20000306:	4926      	ldr	r1, [pc, #152]	@ (200003a0 <flash_do_cmd+0xc4>)
20000308:	4798      	blx	r3
2000030a:	0004      	movs	r4, r0
2000030c:	4653      	mov	r3, sl
2000030e:	881b      	ldrh	r3, [r3, #0]
20000310:	4642      	mov	r2, r8
20000312:	8810      	ldrh	r0, [r2, #0]
20000314:	4923      	ldr	r1, [pc, #140]	@ (200003a4 <flash_do_cmd+0xc8>)
20000316:	4798      	blx	r3
20000318:	4680      	mov	r8, r0
2000031a:	464b      	mov	r3, r9
2000031c:	2b00      	cmp	r3, #0
2000031e:	d00c      	beq.n	2000033a <flash_do_cmd+0x5e>
20000320:	2c00      	cmp	r4, #0
20000322:	d00a      	beq.n	2000033a <flash_do_cmd+0x5e>
20000324:	2800      	cmp	r0, #0
20000326:	d008      	beq.n	2000033a <flash_do_cmd+0x5e>
20000328:	f7ff ffa6 	bl	20000278 <flash_init_boot2_copyout>
2000032c:	47c8      	blx	r9
2000032e:	47a0      	blx	r4
20000330:	2000      	movs	r0, #0
20000332:	f7ff ffbf 	bl	200002b4 <flash_cs_force>
20000336:	002a      	movs	r2, r5
20000338:	e00f      	b.n	2000035a <flash_do_cmd+0x7e>
2000033a:	4b1b      	ldr	r3, [pc, #108]	@ (200003a8 <flash_do_cmd+0xcc>)
2000033c:	4a1b      	ldr	r2, [pc, #108]	@ (200003ac <flash_do_cmd+0xd0>)
2000033e:	481c      	ldr	r0, [pc, #112]	@ (200003b0 <flash_do_cmd+0xd4>)
20000340:	2180      	movs	r1, #128	@ 0x80
20000342:	f000 fbe1 	bl	20000b08 <____assert_func_veneer>
20000346:	2b00      	cmp	r3, #0
20000348:	d007      	beq.n	2000035a <flash_do_cmd+0x7e>
2000034a:	2a00      	cmp	r2, #0
2000034c:	d005      	beq.n	2000035a <flash_do_cmd+0x7e>
2000034e:	23c0      	movs	r3, #192	@ 0xc0
20000350:	055b      	lsls	r3, r3, #21
20000352:	6e1b      	ldr	r3, [r3, #96]	@ 0x60
20000354:	7033      	strb	r3, [r6, #0]
20000356:	3a01      	subs	r2, #1
20000358:	3601      	adds	r6, #1
2000035a:	002b      	movs	r3, r5
2000035c:	4313      	orrs	r3, r2
2000035e:	d012      	beq.n	20000386 <flash_do_cmd+0xaa>
20000360:	23c0      	movs	r3, #192	@ 0xc0
20000362:	055b      	lsls	r3, r3, #21
20000364:	6a9c      	ldr	r4, [r3, #40]	@ 0x28
20000366:	2308      	movs	r3, #8
20000368:	4023      	ands	r3, r4
2000036a:	07a4      	lsls	r4, r4, #30
2000036c:	d5eb      	bpl.n	20000346 <flash_do_cmd+0x6a>
2000036e:	2d00      	cmp	r5, #0
20000370:	d0e9      	beq.n	20000346 <flash_do_cmd+0x6a>
20000372:	1b51      	subs	r1, r2, r5
20000374:	290d      	cmp	r1, #13
20000376:	d8e6      	bhi.n	20000346 <flash_do_cmd+0x6a>
20000378:	7838      	ldrb	r0, [r7, #0]
2000037a:	21c0      	movs	r1, #192	@ 0xc0
2000037c:	0549      	lsls	r1, r1, #21
2000037e:	6608      	str	r0, [r1, #96]	@ 0x60
20000380:	3d01      	subs	r5, #1
20000382:	3701      	adds	r7, #1
20000384:	e7df      	b.n	20000346 <flash_do_cmd+0x6a>
20000386:	2001      	movs	r0, #1
20000388:	f7ff ff94 	bl	200002b4 <flash_cs_force>
2000038c:	47c0      	blx	r8
2000038e:	f7ff ff8b 	bl	200002a8 <flash_enable_xip_via_boot2>
20000392:	bce0      	pop	{r5, r6, r7}
20000394:	46ba      	mov	sl, r7
20000396:	46b1      	mov	r9, r6
20000398:	46a8      	mov	r8, r5
2000039a:	bdf0      	pop	{r4, r5, r6, r7, pc}
2000039c:	00004649 	.word	0x00004649
200003a0:	00005845 	.word	0x00005845
200003a4:	00004346 	.word	0x00004346
200003a8:	1000c108 	.word	0x1000c108
200003ac:	1000c9e4 	.word	0x1000c9e4
200003b0:	1000c018 	.word	0x1000c018

200003b4 <reset_non_control_endpoints>:
200003b4:	b510      	push	{r4, lr}
200003b6:	2300      	movs	r3, #0
200003b8:	e008      	b.n	200003cc <reset_non_control_endpoints+0x18>
200003ba:	3301      	adds	r3, #1
200003bc:	00da      	lsls	r2, r3, #3
200003be:	2100      	movs	r1, #0
200003c0:	4808      	ldr	r0, [pc, #32]	@ (200003e4 <reset_non_control_endpoints+0x30>)
200003c2:	5011      	str	r1, [r2, r0]
200003c4:	4684      	mov	ip, r0
200003c6:	4462      	add	r2, ip
200003c8:	6051      	str	r1, [r2, #4]
200003ca:	b2db      	uxtb	r3, r3
200003cc:	2b0e      	cmp	r3, #14
200003ce:	d9f4      	bls.n	200003ba <reset_non_control_endpoints+0x6>
200003d0:	4805      	ldr	r0, [pc, #20]	@ (200003e8 <reset_non_control_endpoints+0x34>)
200003d2:	22f0      	movs	r2, #240	@ 0xf0
200003d4:	0092      	lsls	r2, r2, #2
200003d6:	2100      	movs	r1, #0
200003d8:	f000 fb8e 	bl	20000af8 <____wrap_memset_veneer>
200003dc:	4b03      	ldr	r3, [pc, #12]	@ (200003ec <reset_non_control_endpoints+0x38>)
200003de:	4a04      	ldr	r2, [pc, #16]	@ (200003f0 <reset_non_control_endpoints+0x3c>)
200003e0:	601a      	str	r2, [r3, #0]
200003e2:	bd10      	pop	{r4, pc}
200003e4:	50100000 	.word	0x50100000
200003e8:	20001efc 	.word	0x20001efc
200003ec:	200022dc 	.word	0x200022dc
200003f0:	50100180 	.word	0x50100180

200003f4 <hw_handle_buff_status>:
200003f4:	b5f0      	push	{r4, r5, r6, r7, lr}
200003f6:	46ce      	mov	lr, r9
200003f8:	4647      	mov	r7, r8
200003fa:	b580      	push	{r7, lr}
200003fc:	b085      	sub	sp, #20
200003fe:	4b23      	ldr	r3, [pc, #140]	@ (2000048c <hw_handle_buff_status+0x98>)
20000400:	6d9f      	ldr	r7, [r3, #88]	@ 0x58
20000402:	2400      	movs	r4, #0
20000404:	2601      	movs	r6, #1
20000406:	e003      	b.n	20000410 <hw_handle_buff_status+0x1c>
20000408:	43b7      	bics	r7, r6
2000040a:	0076      	lsls	r6, r6, #1
2000040c:	3401      	adds	r4, #1
2000040e:	b2e4      	uxtb	r4, r4
20000410:	2f00      	cmp	r7, #0
20000412:	d036      	beq.n	20000482 <hw_handle_buff_status+0x8e>
20000414:	2c1f      	cmp	r4, #31
20000416:	d834      	bhi.n	20000482 <hw_handle_buff_status+0x8e>
20000418:	423e      	tst	r6, r7
2000041a:	d0f6      	beq.n	2000040a <hw_handle_buff_status+0x16>
2000041c:	4b1c      	ldr	r3, [pc, #112]	@ (20000490 <hw_handle_buff_status+0x9c>)
2000041e:	659e      	str	r6, [r3, #88]	@ 0x58
20000420:	0863      	lsrs	r3, r4, #1
20000422:	4699      	mov	r9, r3
20000424:	2301      	movs	r3, #1
20000426:	4063      	eors	r3, r4
20000428:	2201      	movs	r2, #1
2000042a:	401a      	ands	r2, r3
2000042c:	4690      	mov	r8, r2
2000042e:	464b      	mov	r3, r9
20000430:	005d      	lsls	r5, r3, #1
20000432:	4445      	add	r5, r8
20000434:	016d      	lsls	r5, r5, #5
20000436:	4b17      	ldr	r3, [pc, #92]	@ (20000494 <hw_handle_buff_status+0xa0>)
20000438:	18ed      	adds	r5, r5, r3
2000043a:	0028      	movs	r0, r5
2000043c:	f000 fa34 	bl	200008a8 <hw_endpoint_xfer_continue>
20000440:	2800      	cmp	r0, #0
20000442:	d0e1      	beq.n	20000408 <hw_handle_buff_status+0x14>
20000444:	4a13      	ldr	r2, [pc, #76]	@ (20000494 <hw_handle_buff_status+0xa0>)
20000446:	464b      	mov	r3, r9
20000448:	005b      	lsls	r3, r3, #1
2000044a:	4443      	add	r3, r8
2000044c:	015b      	lsls	r3, r3, #5
2000044e:	18d3      	adds	r3, r2, r3
20000450:	789a      	ldrb	r2, [r3, #2]
20000452:	4691      	mov	r9, r2
20000454:	8adb      	ldrh	r3, [r3, #22]
20000456:	4698      	mov	r8, r3
20000458:	220c      	movs	r2, #12
2000045a:	2100      	movs	r1, #0
2000045c:	a801      	add	r0, sp, #4
2000045e:	f000 fb4b 	bl	20000af8 <____wrap_memset_veneer>
20000462:	2307      	movs	r3, #7
20000464:	466a      	mov	r2, sp
20000466:	7153      	strb	r3, [r2, #5]
20000468:	466b      	mov	r3, sp
2000046a:	464a      	mov	r2, r9
2000046c:	721a      	strb	r2, [r3, #8]
2000046e:	4643      	mov	r3, r8
20000470:	9303      	str	r3, [sp, #12]
20000472:	2101      	movs	r1, #1
20000474:	a801      	add	r0, sp, #4
20000476:	f000 fa3f 	bl	200008f8 <dcd_event_handler>
2000047a:	0028      	movs	r0, r5
2000047c:	f000 f99e 	bl	200007bc <hw_endpoint_reset_transfer>
20000480:	e7c2      	b.n	20000408 <hw_handle_buff_status+0x14>
20000482:	b005      	add	sp, #20
20000484:	bcc0      	pop	{r6, r7}
20000486:	46b9      	mov	r9, r7
20000488:	46b0      	mov	r8, r6
2000048a:	bdf0      	pop	{r4, r5, r6, r7, pc}
2000048c:	50110000 	.word	0x50110000
20000490:	50113000 	.word	0x50113000
20000494:	20001ebc 	.word	0x20001ebc

20000498 <dcd_rp2040_irq>:
20000498:	b570      	push	{r4, r5, r6, lr}
2000049a:	b084      	sub	sp, #16
2000049c:	4a63      	ldr	r2, [pc, #396]	@ (2000062c <dcd_rp2040_irq+0x194>)
2000049e:	2398      	movs	r3, #152	@ 0x98
200004a0:	58d5      	ldr	r5, [r2, r3]
200004a2:	2380      	movs	r3, #128	@ 0x80
200004a4:	029b      	lsls	r3, r3, #10
200004a6:	002c      	movs	r4, r5
200004a8:	401c      	ands	r4, r3
200004aa:	421d      	tst	r5, r3
200004ac:	d040      	beq.n	20000530 <dcd_rp2040_irq+0x98>
200004ae:	4b60      	ldr	r3, [pc, #384]	@ (20000630 <dcd_rp2040_irq+0x198>)
200004b0:	6a9a      	ldr	r2, [r3, #40]	@ 0x28
200004b2:	4b60      	ldr	r3, [pc, #384]	@ (20000634 <dcd_rp2040_irq+0x19c>)
200004b4:	601a      	str	r2, [r3, #0]
200004b6:	2400      	movs	r4, #0
200004b8:	2100      	movs	r1, #0
200004ba:	e009      	b.n	200004d0 <dcd_rp2040_irq+0x38>
200004bc:	4b5e      	ldr	r3, [pc, #376]	@ (20000638 <dcd_rp2040_irq+0x1a0>)
200004be:	185b      	adds	r3, r3, r1
200004c0:	333c      	adds	r3, #60	@ 0x3c
200004c2:	2200      	movs	r2, #0
200004c4:	701a      	strb	r2, [r3, #0]
200004c6:	f000 f9ab 	bl	20000820 <hw_endpoint_start_next_buffer>
200004ca:	0031      	movs	r1, r6
200004cc:	3401      	adds	r4, #1
200004ce:	b2e4      	uxtb	r4, r4
200004d0:	2c0f      	cmp	r4, #15
200004d2:	d818      	bhi.n	20000506 <dcd_rp2040_irq+0x6e>
200004d4:	01a6      	lsls	r6, r4, #6
200004d6:	0030      	movs	r0, r6
200004d8:	3020      	adds	r0, #32
200004da:	4b57      	ldr	r3, [pc, #348]	@ (20000638 <dcd_rp2040_irq+0x1a0>)
200004dc:	18c0      	adds	r0, r0, r3
200004de:	199b      	adds	r3, r3, r6
200004e0:	333b      	adds	r3, #59	@ 0x3b
200004e2:	781b      	ldrb	r3, [r3, #0]
200004e4:	2b02      	cmp	r3, #2
200004e6:	d1f1      	bne.n	200004cc <dcd_rp2040_irq+0x34>
200004e8:	4b53      	ldr	r3, [pc, #332]	@ (20000638 <dcd_rp2040_irq+0x1a0>)
200004ea:	199b      	adds	r3, r3, r6
200004ec:	333a      	adds	r3, #58	@ 0x3a
200004ee:	781e      	ldrb	r6, [r3, #0]
200004f0:	2e00      	cmp	r6, #0
200004f2:	d0eb      	beq.n	200004cc <dcd_rp2040_irq+0x34>
200004f4:	4b50      	ldr	r3, [pc, #320]	@ (20000638 <dcd_rp2040_irq+0x1a0>)
200004f6:	01a1      	lsls	r1, r4, #6
200004f8:	185b      	adds	r3, r3, r1
200004fa:	333c      	adds	r3, #60	@ 0x3c
200004fc:	781b      	ldrb	r3, [r3, #0]
200004fe:	2b00      	cmp	r3, #0
20000500:	d1dc      	bne.n	200004bc <dcd_rp2040_irq+0x24>
20000502:	0031      	movs	r1, r6
20000504:	e7e2      	b.n	200004cc <dcd_rp2040_irq+0x34>
20000506:	2900      	cmp	r1, #0
20000508:	d108      	bne.n	2000051c <dcd_rp2040_irq+0x84>
2000050a:	4b4c      	ldr	r3, [pc, #304]	@ (2000063c <dcd_rp2040_irq+0x1a4>)
2000050c:	781b      	ldrb	r3, [r3, #0]
2000050e:	2b00      	cmp	r3, #0
20000510:	d104      	bne.n	2000051c <dcd_rp2040_irq+0x84>
20000512:	4a4b      	ldr	r2, [pc, #300]	@ (20000640 <dcd_rp2040_irq+0x1a8>)
20000514:	3390      	adds	r3, #144	@ 0x90
20000516:	2180      	movs	r1, #128	@ 0x80
20000518:	0289      	lsls	r1, r1, #10
2000051a:	50d1      	str	r1, [r2, r3]
2000051c:	4b43      	ldr	r3, [pc, #268]	@ (2000062c <dcd_rp2040_irq+0x194>)
2000051e:	6c99      	ldr	r1, [r3, #72]	@ 0x48
20000520:	0549      	lsls	r1, r1, #21
20000522:	0d49      	lsrs	r1, r1, #21
20000524:	2201      	movs	r2, #1
20000526:	2000      	movs	r0, #0
20000528:	f000 faf6 	bl	20000b18 <__dcd_event_sof_veneer>
2000052c:	2480      	movs	r4, #128	@ 0x80
2000052e:	02a4      	lsls	r4, r4, #10
20000530:	06eb      	lsls	r3, r5, #27
20000532:	d409      	bmi.n	20000548 <dcd_rp2040_irq+0xb0>
20000534:	03eb      	lsls	r3, r5, #15
20000536:	d529      	bpl.n	2000058c <dcd_rp2040_irq+0xf4>
20000538:	2380      	movs	r3, #128	@ 0x80
2000053a:	025b      	lsls	r3, r3, #9
2000053c:	431c      	orrs	r4, r3
2000053e:	ab01      	add	r3, sp, #4
20000540:	4a40      	ldr	r2, [pc, #256]	@ (20000644 <dcd_rp2040_irq+0x1ac>)
20000542:	801a      	strh	r2, [r3, #0]
20000544:	2600      	movs	r6, #0
20000546:	e00b      	b.n	20000560 <dcd_rp2040_irq+0xc8>
20000548:	2310      	movs	r3, #16
2000054a:	431c      	orrs	r4, r3
2000054c:	f7ff ff52 	bl	200003f4 <hw_handle_buff_status>
20000550:	e7f0      	b.n	20000534 <dcd_rp2040_irq+0x9c>
20000552:	ab01      	add	r3, sp, #4
20000554:	5d98      	ldrb	r0, [r3, r6]
20000556:	f000 fae7 	bl	20000b28 <__hw_endpoint_get_by_addr_veneer>
2000055a:	2301      	movs	r3, #1
2000055c:	70c3      	strb	r3, [r0, #3]
2000055e:	3601      	adds	r6, #1
20000560:	2e01      	cmp	r6, #1
20000562:	d9f6      	bls.n	20000552 <dcd_rp2040_irq+0xba>
20000564:	ae01      	add	r6, sp, #4
20000566:	220c      	movs	r2, #12
20000568:	2100      	movs	r1, #0
2000056a:	0030      	movs	r0, r6
2000056c:	f000 fac4 	bl	20000af8 <____wrap_memset_veneer>
20000570:	2306      	movs	r3, #6
20000572:	7073      	strb	r3, [r6, #1]
20000574:	4a34      	ldr	r2, [pc, #208]	@ (20000648 <dcd_rp2040_irq+0x1b0>)
20000576:	ab02      	add	r3, sp, #8
20000578:	ca03      	ldmia	r2!, {r0, r1}
2000057a:	c303      	stmia	r3!, {r0, r1}
2000057c:	2101      	movs	r1, #1
2000057e:	0030      	movs	r0, r6
20000580:	f000 f9ba 	bl	200008f8 <dcd_event_handler>
20000584:	4b2e      	ldr	r3, [pc, #184]	@ (20000640 <dcd_rp2040_irq+0x1a8>)
20000586:	2280      	movs	r2, #128	@ 0x80
20000588:	0292      	lsls	r2, r2, #10
2000058a:	651a      	str	r2, [r3, #80]	@ 0x50
2000058c:	04eb      	lsls	r3, r5, #19
2000058e:	d407      	bmi.n	200005a0 <dcd_rp2040_irq+0x108>
20000590:	046b      	lsls	r3, r5, #17
20000592:	d41e      	bmi.n	200005d2 <dcd_rp2040_irq+0x13a>
20000594:	042b      	lsls	r3, r5, #16
20000596:	d42f      	bmi.n	200005f8 <dcd_rp2040_irq+0x160>
20000598:	42ac      	cmp	r4, r5
2000059a:	d141      	bne.n	20000620 <dcd_rp2040_irq+0x188>
2000059c:	b004      	add	sp, #16
2000059e:	bd70      	pop	{r4, r5, r6, pc}
200005a0:	2380      	movs	r3, #128	@ 0x80
200005a2:	015b      	lsls	r3, r3, #5
200005a4:	431c      	orrs	r4, r3
200005a6:	4b21      	ldr	r3, [pc, #132]	@ (2000062c <dcd_rp2040_irq+0x194>)
200005a8:	2200      	movs	r2, #0
200005aa:	601a      	str	r2, [r3, #0]
200005ac:	f7ff ff02 	bl	200003b4 <reset_non_control_endpoints>
200005b0:	ae01      	add	r6, sp, #4
200005b2:	220c      	movs	r2, #12
200005b4:	2100      	movs	r1, #0
200005b6:	0030      	movs	r0, r6
200005b8:	f000 fa9e 	bl	20000af8 <____wrap_memset_veneer>
200005bc:	2301      	movs	r3, #1
200005be:	7073      	strb	r3, [r6, #1]
200005c0:	2101      	movs	r1, #1
200005c2:	0030      	movs	r0, r6
200005c4:	f000 f998 	bl	200008f8 <dcd_event_handler>
200005c8:	4b1d      	ldr	r3, [pc, #116]	@ (20000640 <dcd_rp2040_irq+0x1a8>)
200005ca:	2280      	movs	r2, #128	@ 0x80
200005cc:	0312      	lsls	r2, r2, #12
200005ce:	651a      	str	r2, [r3, #80]	@ 0x50
200005d0:	e7de      	b.n	20000590 <dcd_rp2040_irq+0xf8>
200005d2:	2380      	movs	r3, #128	@ 0x80
200005d4:	01db      	lsls	r3, r3, #7
200005d6:	431c      	orrs	r4, r3
200005d8:	ae01      	add	r6, sp, #4
200005da:	220c      	movs	r2, #12
200005dc:	2100      	movs	r1, #0
200005de:	0030      	movs	r0, r6
200005e0:	f000 fa8a 	bl	20000af8 <____wrap_memset_veneer>
200005e4:	2304      	movs	r3, #4
200005e6:	7073      	strb	r3, [r6, #1]
200005e8:	2101      	movs	r1, #1
200005ea:	0030      	movs	r0, r6
200005ec:	f000 f984 	bl	200008f8 <dcd_event_handler>
200005f0:	4b13      	ldr	r3, [pc, #76]	@ (20000640 <dcd_rp2040_irq+0x1a8>)
200005f2:	2210      	movs	r2, #16
200005f4:	651a      	str	r2, [r3, #80]	@ 0x50
200005f6:	e7cd      	b.n	20000594 <dcd_rp2040_irq+0xfc>
200005f8:	2380      	movs	r3, #128	@ 0x80
200005fa:	021b      	lsls	r3, r3, #8
200005fc:	431c      	orrs	r4, r3
200005fe:	ae01      	add	r6, sp, #4
20000600:	220c      	movs	r2, #12
20000602:	2100      	movs	r1, #0
20000604:	0030      	movs	r0, r6
20000606:	f000 fa77 	bl	20000af8 <____wrap_memset_veneer>
2000060a:	2305      	movs	r3, #5
2000060c:	7073      	strb	r3, [r6, #1]
2000060e:	2101      	movs	r1, #1
20000610:	0030      	movs	r0, r6
20000612:	f000 f971 	bl	200008f8 <dcd_event_handler>
20000616:	4b0a      	ldr	r3, [pc, #40]	@ (20000640 <dcd_rp2040_irq+0x1a8>)
20000618:	2280      	movs	r2, #128	@ 0x80
2000061a:	0112      	lsls	r2, r2, #4
2000061c:	651a      	str	r2, [r3, #80]	@ 0x50
2000061e:	e7bb      	b.n	20000598 <dcd_rp2040_irq+0x100>
20000620:	0021      	movs	r1, r4
20000622:	4069      	eors	r1, r5
20000624:	4809      	ldr	r0, [pc, #36]	@ (2000064c <dcd_rp2040_irq+0x1b4>)
20000626:	f000 fa87 	bl	20000b38 <__panic_veneer>
2000062a:	46c0      	nop			@ (mov r8, r8)
2000062c:	50110000 	.word	0x50110000
20000630:	40054000 	.word	0x40054000
20000634:	20001eb0 	.word	0x20001eb0
20000638:	20001ebc 	.word	0x20001ebc
2000063c:	2000254d 	.word	0x2000254d
20000640:	50113000 	.word	0x50113000
20000644:	ffff8000 	.word	0xffff8000
20000648:	50100000 	.word	0x50100000
2000064c:	1000c200 	.word	0x1000c200

20000650 <e15_is_bulkin_ep>:
20000650:	4b09      	ldr	r3, [pc, #36]	@ (20000678 <e15_is_bulkin_ep+0x28>)
20000652:	6c1b      	ldr	r3, [r3, #64]	@ 0x40
20000654:	079b      	lsls	r3, r3, #30
20000656:	d40c      	bmi.n	20000672 <e15_is_bulkin_ep+0x22>
20000658:	7883      	ldrb	r3, [r0, #2]
2000065a:	09db      	lsrs	r3, r3, #7
2000065c:	2b01      	cmp	r3, #1
2000065e:	d001      	beq.n	20000664 <e15_is_bulkin_ep+0x14>
20000660:	2000      	movs	r0, #0
20000662:	e007      	b.n	20000674 <e15_is_bulkin_ep+0x24>
20000664:	7ec3      	ldrb	r3, [r0, #27]
20000666:	2b02      	cmp	r3, #2
20000668:	d001      	beq.n	2000066e <e15_is_bulkin_ep+0x1e>
2000066a:	2000      	movs	r0, #0
2000066c:	e002      	b.n	20000674 <e15_is_bulkin_ep+0x24>
2000066e:	2001      	movs	r0, #1
20000670:	e000      	b.n	20000674 <e15_is_bulkin_ep+0x24>
20000672:	2000      	movs	r0, #0
20000674:	4770      	bx	lr
20000676:	46c0      	nop			@ (mov r8, r8)
20000678:	50110000 	.word	0x50110000

2000067c <e15_is_critical_frame_period>:
2000067c:	b510      	push	{r4, lr}
2000067e:	f7ff ffe7 	bl	20000650 <e15_is_bulkin_ep>
20000682:	2800      	cmp	r0, #0
20000684:	d009      	beq.n	2000069a <e15_is_critical_frame_period+0x1e>
20000686:	4b06      	ldr	r3, [pc, #24]	@ (200006a0 <e15_is_critical_frame_period+0x24>)
20000688:	6a9b      	ldr	r3, [r3, #40]	@ 0x28
2000068a:	4a06      	ldr	r2, [pc, #24]	@ (200006a4 <e15_is_critical_frame_period+0x28>)
2000068c:	6812      	ldr	r2, [r2, #0]
2000068e:	1a9b      	subs	r3, r3, r2
20000690:	4a05      	ldr	r2, [pc, #20]	@ (200006a8 <e15_is_critical_frame_period+0x2c>)
20000692:	4694      	mov	ip, r2
20000694:	4463      	add	r3, ip
20000696:	2bc6      	cmp	r3, #198	@ 0xc6
20000698:	d800      	bhi.n	2000069c <e15_is_critical_frame_period+0x20>
2000069a:	bd10      	pop	{r4, pc}
2000069c:	2000      	movs	r0, #0
2000069e:	e7fc      	b.n	2000069a <e15_is_critical_frame_period+0x1e>
200006a0:	40054000 	.word	0x40054000
200006a4:	20001eb0 	.word	0x20001eb0
200006a8:	fffffce0 	.word	0xfffffce0

200006ac <prepare_ep_buffer>:
200006ac:	b5f8      	push	{r3, r4, r5, r6, r7, lr}
200006ae:	0004      	movs	r4, r0
200006b0:	000f      	movs	r7, r1
200006b2:	8a83      	ldrh	r3, [r0, #20]
200006b4:	8b02      	ldrh	r2, [r0, #24]
200006b6:	1c1e      	adds	r6, r3, #0
200006b8:	4293      	cmp	r3, r2
200006ba:	d900      	bls.n	200006be <prepare_ep_buffer+0x12>
200006bc:	1c16      	adds	r6, r2, #0
200006be:	b2b6      	uxth	r6, r6
200006c0:	1b9b      	subs	r3, r3, r6
200006c2:	82a3      	strh	r3, [r4, #20]
200006c4:	2280      	movs	r2, #128	@ 0x80
200006c6:	00d2      	lsls	r2, r2, #3
200006c8:	4332      	orrs	r2, r6
200006ca:	78e3      	ldrb	r3, [r4, #3]
200006cc:	2b00      	cmp	r3, #0
200006ce:	d013      	beq.n	200006f8 <prepare_ep_buffer+0x4c>
200006d0:	2580      	movs	r5, #128	@ 0x80
200006d2:	01ad      	lsls	r5, r5, #6
200006d4:	4315      	orrs	r5, r2
200006d6:	2201      	movs	r2, #1
200006d8:	4053      	eors	r3, r2
200006da:	70e3      	strb	r3, [r4, #3]
200006dc:	7863      	ldrb	r3, [r4, #1]
200006de:	2b00      	cmp	r3, #0
200006e0:	d00c      	beq.n	200006fc <prepare_ep_buffer+0x50>
200006e2:	8aa3      	ldrh	r3, [r4, #20]
200006e4:	2b00      	cmp	r3, #0
200006e6:	d102      	bne.n	200006ee <prepare_ep_buffer+0x42>
200006e8:	2380      	movs	r3, #128	@ 0x80
200006ea:	01db      	lsls	r3, r3, #7
200006ec:	431d      	orrs	r5, r3
200006ee:	2f00      	cmp	r7, #0
200006f0:	d000      	beq.n	200006f4 <prepare_ep_buffer+0x48>
200006f2:	042d      	lsls	r5, r5, #16
200006f4:	0028      	movs	r0, r5
200006f6:	bdf8      	pop	{r3, r4, r5, r6, r7, pc}
200006f8:	2500      	movs	r5, #0
200006fa:	e7eb      	b.n	200006d4 <prepare_ep_buffer+0x28>
200006fc:	68e0      	ldr	r0, [r4, #12]
200006fe:	01bb      	lsls	r3, r7, #6
20000700:	18c0      	adds	r0, r0, r3
20000702:	6921      	ldr	r1, [r4, #16]
20000704:	0032      	movs	r2, r6
20000706:	f000 f9e7 	bl	20000ad8 <____wrap_memcpy_veneer>
2000070a:	6923      	ldr	r3, [r4, #16]
2000070c:	199b      	adds	r3, r3, r6
2000070e:	6123      	str	r3, [r4, #16]
20000710:	2380      	movs	r3, #128	@ 0x80
20000712:	021b      	lsls	r3, r3, #8
20000714:	431d      	orrs	r5, r3
20000716:	e7e4      	b.n	200006e2 <prepare_ep_buffer+0x36>

20000718 <sync_ep_buffer>:
20000718:	b570      	push	{r4, r5, r6, lr}
2000071a:	0004      	movs	r4, r0
2000071c:	6883      	ldr	r3, [r0, #8]
2000071e:	681b      	ldr	r3, [r3, #0]
20000720:	2900      	cmp	r1, #0
20000722:	d000      	beq.n	20000726 <sync_ep_buffer+0xe>
20000724:	0c1b      	lsrs	r3, r3, #16
20000726:	059d      	lsls	r5, r3, #22
20000728:	0dad      	lsrs	r5, r5, #22
2000072a:	7862      	ldrb	r2, [r4, #1]
2000072c:	2a00      	cmp	r2, #0
2000072e:	d112      	bne.n	20000756 <sync_ep_buffer+0x3e>
20000730:	041b      	lsls	r3, r3, #16
20000732:	d409      	bmi.n	20000748 <sync_ep_buffer+0x30>
20000734:	8ae3      	ldrh	r3, [r4, #22]
20000736:	195b      	adds	r3, r3, r5
20000738:	82e3      	strh	r3, [r4, #22]
2000073a:	8b23      	ldrh	r3, [r4, #24]
2000073c:	42ab      	cmp	r3, r5
2000073e:	d901      	bls.n	20000744 <sync_ep_buffer+0x2c>
20000740:	2300      	movs	r3, #0
20000742:	82a3      	strh	r3, [r4, #20]
20000744:	0028      	movs	r0, r5
20000746:	bd70      	pop	{r4, r5, r6, pc}
20000748:	4b0e      	ldr	r3, [pc, #56]	@ (20000784 <sync_ep_buffer+0x6c>)
2000074a:	4a0f      	ldr	r2, [pc, #60]	@ (20000788 <sync_ep_buffer+0x70>)
2000074c:	2181      	movs	r1, #129	@ 0x81
2000074e:	480f      	ldr	r0, [pc, #60]	@ (2000078c <sync_ep_buffer+0x74>)
20000750:	0049      	lsls	r1, r1, #1
20000752:	f000 f9d9 	bl	20000b08 <____assert_func_veneer>
20000756:	041b      	lsls	r3, r3, #16
20000758:	d50d      	bpl.n	20000776 <sync_ep_buffer+0x5e>
2000075a:	6920      	ldr	r0, [r4, #16]
2000075c:	68e3      	ldr	r3, [r4, #12]
2000075e:	0189      	lsls	r1, r1, #6
20000760:	1859      	adds	r1, r3, r1
20000762:	002a      	movs	r2, r5
20000764:	f000 f9b8 	bl	20000ad8 <____wrap_memcpy_veneer>
20000768:	8ae3      	ldrh	r3, [r4, #22]
2000076a:	195b      	adds	r3, r3, r5
2000076c:	82e3      	strh	r3, [r4, #22]
2000076e:	6923      	ldr	r3, [r4, #16]
20000770:	195b      	adds	r3, r3, r5
20000772:	6123      	str	r3, [r4, #16]
20000774:	e7e1      	b.n	2000073a <sync_ep_buffer+0x22>
20000776:	4b06      	ldr	r3, [pc, #24]	@ (20000790 <sync_ep_buffer+0x78>)
20000778:	4a03      	ldr	r2, [pc, #12]	@ (20000788 <sync_ep_buffer+0x70>)
2000077a:	210a      	movs	r1, #10
2000077c:	4803      	ldr	r0, [pc, #12]	@ (2000078c <sync_ep_buffer+0x74>)
2000077e:	31ff      	adds	r1, #255	@ 0xff
20000780:	f000 f9c2 	bl	20000b08 <____assert_func_veneer>
20000784:	1000c220 	.word	0x1000c220
20000788:	1000ca54 	.word	0x1000ca54
2000078c:	1000c240 	.word	0x1000c240
20000790:	1000c294 	.word	0x1000c294

20000794 <_hw_endpoint_xfer_sync>:
20000794:	b510      	push	{r4, lr}
20000796:	0004      	movs	r4, r0
20000798:	6883      	ldr	r3, [r0, #8]
2000079a:	681b      	ldr	r3, [r3, #0]
2000079c:	2100      	movs	r1, #0
2000079e:	f7ff ffbb 	bl	20000718 <sync_ep_buffer>
200007a2:	6863      	ldr	r3, [r4, #4]
200007a4:	681b      	ldr	r3, [r3, #0]
200007a6:	005b      	lsls	r3, r3, #1
200007a8:	d502      	bpl.n	200007b0 <_hw_endpoint_xfer_sync+0x1c>
200007aa:	8b23      	ldrh	r3, [r4, #24]
200007ac:	4283      	cmp	r3, r0
200007ae:	d000      	beq.n	200007b2 <_hw_endpoint_xfer_sync+0x1e>
200007b0:	bd10      	pop	{r4, pc}
200007b2:	2101      	movs	r1, #1
200007b4:	0020      	movs	r0, r4
200007b6:	f7ff ffaf 	bl	20000718 <sync_ep_buffer>
200007ba:	e7f9      	b.n	200007b0 <_hw_endpoint_xfer_sync+0x1c>

200007bc <hw_endpoint_reset_transfer>:
200007bc:	2300      	movs	r3, #0
200007be:	7683      	strb	r3, [r0, #26]
200007c0:	8283      	strh	r3, [r0, #20]
200007c2:	82c3      	strh	r3, [r0, #22]
200007c4:	6103      	str	r3, [r0, #16]
200007c6:	4770      	bx	lr

200007c8 <_hw_endpoint_buffer_control_update32>:
200007c8:	b510      	push	{r4, lr}
200007ca:	2900      	cmp	r1, #0
200007cc:	d002      	beq.n	200007d4 <_hw_endpoint_buffer_control_update32+0xc>
200007ce:	6883      	ldr	r3, [r0, #8]
200007d0:	681b      	ldr	r3, [r3, #0]
200007d2:	4019      	ands	r1, r3
200007d4:	2a00      	cmp	r2, #0
200007d6:	d00f      	beq.n	200007f8 <_hw_endpoint_buffer_control_update32+0x30>
200007d8:	4311      	orrs	r1, r2
200007da:	0552      	lsls	r2, r2, #21
200007dc:	d50c      	bpl.n	200007f8 <_hw_endpoint_buffer_control_update32+0x30>
200007de:	6882      	ldr	r2, [r0, #8]
200007e0:	6813      	ldr	r3, [r2, #0]
200007e2:	055b      	lsls	r3, r3, #21
200007e4:	d40b      	bmi.n	200007fe <_hw_endpoint_buffer_control_update32+0x36>
200007e6:	4b0b      	ldr	r3, [pc, #44]	@ (20000814 <_hw_endpoint_buffer_control_update32+0x4c>)
200007e8:	400b      	ands	r3, r1
200007ea:	6013      	str	r3, [r2, #0]
200007ec:	e7ff      	b.n	200007ee <_hw_endpoint_buffer_control_update32+0x26>
200007ee:	e7ff      	b.n	200007f0 <_hw_endpoint_buffer_control_update32+0x28>
200007f0:	e7ff      	b.n	200007f2 <_hw_endpoint_buffer_control_update32+0x2a>
200007f2:	e7ff      	b.n	200007f4 <_hw_endpoint_buffer_control_update32+0x2c>
200007f4:	e7ff      	b.n	200007f6 <_hw_endpoint_buffer_control_update32+0x2e>
200007f6:	e7ff      	b.n	200007f8 <_hw_endpoint_buffer_control_update32+0x30>
200007f8:	6883      	ldr	r3, [r0, #8]
200007fa:	6019      	str	r1, [r3, #0]
200007fc:	bd10      	pop	{r4, pc}
200007fe:	7883      	ldrb	r3, [r0, #2]
20000800:	217f      	movs	r1, #127	@ 0x7f
20000802:	4019      	ands	r1, r3
20000804:	09db      	lsrs	r3, r3, #7
20000806:	4a04      	ldr	r2, [pc, #16]	@ (20000818 <_hw_endpoint_buffer_control_update32+0x50>)
20000808:	009b      	lsls	r3, r3, #2
2000080a:	4804      	ldr	r0, [pc, #16]	@ (2000081c <_hw_endpoint_buffer_control_update32+0x54>)
2000080c:	589a      	ldr	r2, [r3, r2]
2000080e:	f000 f993 	bl	20000b38 <__panic_veneer>
20000812:	46c0      	nop			@ (mov r8, r8)
20000814:	fffffbff 	.word	0xfffffbff
20000818:	20000e78 	.word	0x20000e78
2000081c:	1000c2b4 	.word	0x1000c2b4

20000820 <hw_endpoint_start_next_buffer>:
20000820:	b570      	push	{r4, r5, r6, lr}
20000822:	0004      	movs	r4, r0
20000824:	6843      	ldr	r3, [r0, #4]
20000826:	681e      	ldr	r6, [r3, #0]
20000828:	2100      	movs	r1, #0
2000082a:	f7ff ff3f 	bl	200006ac <prepare_ep_buffer>
2000082e:	2580      	movs	r5, #128	@ 0x80
20000830:	016d      	lsls	r5, r5, #5
20000832:	4305      	orrs	r5, r0
20000834:	4b19      	ldr	r3, [pc, #100]	@ (2000089c <hw_endpoint_start_next_buffer+0x7c>)
20000836:	6c1b      	ldr	r3, [r3, #64]	@ 0x40
20000838:	2202      	movs	r2, #2
2000083a:	0011      	movs	r1, r2
2000083c:	4019      	ands	r1, r3
2000083e:	421a      	tst	r2, r3
20000840:	d104      	bne.n	2000084c <hw_endpoint_start_next_buffer+0x2c>
20000842:	78a3      	ldrb	r3, [r4, #2]
20000844:	09db      	lsrs	r3, r3, #7
20000846:	d017      	beq.n	20000878 <hw_endpoint_start_next_buffer+0x58>
20000848:	2900      	cmp	r1, #0
2000084a:	d017      	beq.n	2000087c <hw_endpoint_start_next_buffer+0x5c>
2000084c:	78a3      	ldrb	r3, [r4, #2]
2000084e:	065b      	lsls	r3, r3, #25
20000850:	d116      	bne.n	20000880 <hw_endpoint_start_next_buffer+0x60>
20000852:	2300      	movs	r3, #0
20000854:	8aa2      	ldrh	r2, [r4, #20]
20000856:	2a00      	cmp	r2, #0
20000858:	d001      	beq.n	2000085e <hw_endpoint_start_next_buffer+0x3e>
2000085a:	2b00      	cmp	r3, #0
2000085c:	d012      	beq.n	20000884 <hw_endpoint_start_next_buffer+0x64>
2000085e:	4b10      	ldr	r3, [pc, #64]	@ (200008a0 <hw_endpoint_start_next_buffer+0x80>)
20000860:	401e      	ands	r6, r3
20000862:	2380      	movs	r3, #128	@ 0x80
20000864:	059b      	lsls	r3, r3, #22
20000866:	4333      	orrs	r3, r6
20000868:	6862      	ldr	r2, [r4, #4]
2000086a:	6013      	str	r3, [r2, #0]
2000086c:	002a      	movs	r2, r5
2000086e:	2100      	movs	r1, #0
20000870:	0020      	movs	r0, r4
20000872:	f7ff ffa9 	bl	200007c8 <_hw_endpoint_buffer_control_update32>
20000876:	bd70      	pop	{r4, r5, r6, pc}
20000878:	2301      	movs	r3, #1
2000087a:	e7eb      	b.n	20000854 <hw_endpoint_start_next_buffer+0x34>
2000087c:	2300      	movs	r3, #0
2000087e:	e7e9      	b.n	20000854 <hw_endpoint_start_next_buffer+0x34>
20000880:	2301      	movs	r3, #1
20000882:	e7e7      	b.n	20000854 <hw_endpoint_start_next_buffer+0x34>
20000884:	2101      	movs	r1, #1
20000886:	0020      	movs	r0, r4
20000888:	f7ff ff10 	bl	200006ac <prepare_ep_buffer>
2000088c:	4305      	orrs	r5, r0
2000088e:	4a05      	ldr	r2, [pc, #20]	@ (200008a4 <hw_endpoint_start_next_buffer+0x84>)
20000890:	4032      	ands	r2, r6
20000892:	23a0      	movs	r3, #160	@ 0xa0
20000894:	05db      	lsls	r3, r3, #23
20000896:	4313      	orrs	r3, r2
20000898:	e7e6      	b.n	20000868 <hw_endpoint_start_next_buffer+0x48>
2000089a:	46c0      	nop			@ (mov r8, r8)
2000089c:	50110000 	.word	0x50110000
200008a0:	afffffff 	.word	0xafffffff
200008a4:	dfffffff 	.word	0xdfffffff

200008a8 <hw_endpoint_xfer_continue>:
200008a8:	b570      	push	{r4, r5, r6, lr}
200008aa:	0004      	movs	r4, r0
200008ac:	7e85      	ldrb	r5, [r0, #26]
200008ae:	2d00      	cmp	r5, #0
200008b0:	d006      	beq.n	200008c0 <hw_endpoint_xfer_continue+0x18>
200008b2:	f7ff ff6f 	bl	20000794 <_hw_endpoint_xfer_sync>
200008b6:	8aa3      	ldrh	r3, [r4, #20]
200008b8:	2b00      	cmp	r3, #0
200008ba:	d10b      	bne.n	200008d4 <hw_endpoint_xfer_continue+0x2c>
200008bc:	0028      	movs	r0, r5
200008be:	bd70      	pop	{r4, r5, r6, pc}
200008c0:	7883      	ldrb	r3, [r0, #2]
200008c2:	217f      	movs	r1, #127	@ 0x7f
200008c4:	4019      	ands	r1, r3
200008c6:	09db      	lsrs	r3, r3, #7
200008c8:	4a09      	ldr	r2, [pc, #36]	@ (200008f0 <hw_endpoint_xfer_continue+0x48>)
200008ca:	009b      	lsls	r3, r3, #2
200008cc:	4809      	ldr	r0, [pc, #36]	@ (200008f4 <hw_endpoint_xfer_continue+0x4c>)
200008ce:	589a      	ldr	r2, [r3, r2]
200008d0:	f000 f932 	bl	20000b38 <__panic_veneer>
200008d4:	0020      	movs	r0, r4
200008d6:	f7ff fed1 	bl	2000067c <e15_is_critical_frame_period>
200008da:	1e05      	subs	r5, r0, #0
200008dc:	d003      	beq.n	200008e6 <hw_endpoint_xfer_continue+0x3e>
200008de:	2301      	movs	r3, #1
200008e0:	7723      	strb	r3, [r4, #28]
200008e2:	2500      	movs	r5, #0
200008e4:	e7ea      	b.n	200008bc <hw_endpoint_xfer_continue+0x14>
200008e6:	0020      	movs	r0, r4
200008e8:	f7ff ff9a 	bl	20000820 <hw_endpoint_start_next_buffer>
200008ec:	e7e6      	b.n	200008bc <hw_endpoint_xfer_continue+0x14>
200008ee:	46c0      	nop			@ (mov r8, r8)
200008f0:	20000e78 	.word	0x20000e78
200008f4:	1000c2d4 	.word	0x1000c2d4

200008f8 <dcd_event_handler>:
200008f8:	b570      	push	{r4, r5, r6, lr}
200008fa:	b084      	sub	sp, #16
200008fc:	0005      	movs	r5, r0
200008fe:	7843      	ldrb	r3, [r0, #1]
20000900:	2b04      	cmp	r3, #4
20000902:	d048      	beq.n	20000996 <dcd_event_handler+0x9e>
20000904:	d806      	bhi.n	20000914 <dcd_event_handler+0x1c>
20000906:	2b02      	cmp	r3, #2
20000908:	d023      	beq.n	20000952 <dcd_event_handler+0x5a>
2000090a:	2b03      	cmp	r3, #3
2000090c:	d000      	beq.n	20000910 <dcd_event_handler+0x18>
2000090e:	e0a9      	b.n	20000a64 <dcd_event_handler+0x16c>
20000910:	2400      	movs	r4, #0
20000912:	e066      	b.n	200009e2 <dcd_event_handler+0xea>
20000914:	2b05      	cmp	r3, #5
20000916:	d000      	beq.n	2000091a <dcd_event_handler+0x22>
20000918:	e0a4      	b.n	20000a64 <dcd_event_handler+0x16c>
2000091a:	4b5c      	ldr	r3, [pc, #368]	@ (20000a8c <dcd_event_handler+0x194>)
2000091c:	781b      	ldrb	r3, [r3, #0]
2000091e:	07db      	lsls	r3, r3, #31
20000920:	d537      	bpl.n	20000992 <dcd_event_handler+0x9a>
20000922:	4a5a      	ldr	r2, [pc, #360]	@ (20000a8c <dcd_event_handler+0x194>)
20000924:	7813      	ldrb	r3, [r2, #0]
20000926:	2104      	movs	r1, #4
20000928:	438b      	bics	r3, r1
2000092a:	7013      	strb	r3, [r2, #0]
2000092c:	4b58      	ldr	r3, [pc, #352]	@ (20000a90 <dcd_event_handler+0x198>)
2000092e:	681c      	ldr	r4, [r3, #0]
20000930:	0020      	movs	r0, r4
20000932:	3014      	adds	r0, #20
20000934:	f000 f8b8 	bl	20000aa8 <__critical_section_enter_blocking_veneer>
20000938:	0029      	movs	r1, r5
2000093a:	0020      	movs	r0, r4
2000093c:	f000 f8bc 	bl	20000ab8 <__tu_fifo_write_veneer>
20000940:	6962      	ldr	r2, [r4, #20]
20000942:	69a3      	ldr	r3, [r4, #24]
20000944:	f3bf 8f5f 	dmb	sy
20000948:	2100      	movs	r1, #0
2000094a:	6011      	str	r1, [r2, #0]
2000094c:	f383 8810 	msr	PRIMASK, r3
20000950:	e01f      	b.n	20000992 <dcd_event_handler+0x9a>
20000952:	4b4e      	ldr	r3, [pc, #312]	@ (20000a8c <dcd_event_handler+0x194>)
20000954:	781a      	ldrb	r2, [r3, #0]
20000956:	2101      	movs	r1, #1
20000958:	438a      	bics	r2, r1
2000095a:	701a      	strb	r2, [r3, #0]
2000095c:	781a      	ldrb	r2, [r3, #0]
2000095e:	3101      	adds	r1, #1
20000960:	438a      	bics	r2, r1
20000962:	701a      	strb	r2, [r3, #0]
20000964:	2600      	movs	r6, #0
20000966:	705e      	strb	r6, [r3, #1]
20000968:	781a      	ldrb	r2, [r3, #0]
2000096a:	3102      	adds	r1, #2
2000096c:	438a      	bics	r2, r1
2000096e:	701a      	strb	r2, [r3, #0]
20000970:	4b47      	ldr	r3, [pc, #284]	@ (20000a90 <dcd_event_handler+0x198>)
20000972:	681c      	ldr	r4, [r3, #0]
20000974:	0020      	movs	r0, r4
20000976:	3014      	adds	r0, #20
20000978:	f000 f896 	bl	20000aa8 <__critical_section_enter_blocking_veneer>
2000097c:	0029      	movs	r1, r5
2000097e:	0020      	movs	r0, r4
20000980:	f000 f89a 	bl	20000ab8 <__tu_fifo_write_veneer>
20000984:	6962      	ldr	r2, [r4, #20]
20000986:	69a3      	ldr	r3, [r4, #24]
20000988:	f3bf 8f5f 	dmb	sy
2000098c:	6016      	str	r6, [r2, #0]
2000098e:	f383 8810 	msr	PRIMASK, r3
20000992:	b004      	add	sp, #16
20000994:	bd70      	pop	{r4, r5, r6, pc}
20000996:	4b3d      	ldr	r3, [pc, #244]	@ (20000a8c <dcd_event_handler+0x194>)
20000998:	781b      	ldrb	r3, [r3, #0]
2000099a:	07db      	lsls	r3, r3, #31
2000099c:	d5f9      	bpl.n	20000992 <dcd_event_handler+0x9a>
2000099e:	4a3b      	ldr	r2, [pc, #236]	@ (20000a8c <dcd_event_handler+0x194>)
200009a0:	7813      	ldrb	r3, [r2, #0]
200009a2:	2104      	movs	r1, #4
200009a4:	430b      	orrs	r3, r1
200009a6:	7013      	strb	r3, [r2, #0]
200009a8:	4b39      	ldr	r3, [pc, #228]	@ (20000a90 <dcd_event_handler+0x198>)
200009aa:	681c      	ldr	r4, [r3, #0]
200009ac:	0020      	movs	r0, r4
200009ae:	3014      	adds	r0, #20
200009b0:	f000 f87a 	bl	20000aa8 <__critical_section_enter_blocking_veneer>
200009b4:	0029      	movs	r1, r5
200009b6:	0020      	movs	r0, r4
200009b8:	f000 f87e 	bl	20000ab8 <__tu_fifo_write_veneer>
200009bc:	6962      	ldr	r2, [r4, #20]
200009be:	69a3      	ldr	r3, [r4, #24]
200009c0:	f3bf 8f5f 	dmb	sy
200009c4:	2100      	movs	r1, #0
200009c6:	6011      	str	r1, [r2, #0]
200009c8:	f383 8810 	msr	PRIMASK, r3
200009cc:	e7e1      	b.n	20000992 <dcd_event_handler+0x9a>
200009ce:	0062      	lsls	r2, r4, #1
200009d0:	1912      	adds	r2, r2, r4
200009d2:	00d2      	lsls	r2, r2, #3
200009d4:	4b2f      	ldr	r3, [pc, #188]	@ (20000a94 <dcd_event_handler+0x19c>)
200009d6:	681b      	ldr	r3, [r3, #0]
200009d8:	189b      	adds	r3, r3, r2
200009da:	2b00      	cmp	r3, #0
200009dc:	d113      	bne.n	20000a06 <dcd_event_handler+0x10e>
200009de:	3401      	adds	r4, #1
200009e0:	b2e4      	uxtb	r4, r4
200009e2:	4b2d      	ldr	r3, [pc, #180]	@ (20000a98 <dcd_event_handler+0x1a0>)
200009e4:	781b      	ldrb	r3, [r3, #0]
200009e6:	42a3      	cmp	r3, r4
200009e8:	d316      	bcc.n	20000a18 <dcd_event_handler+0x120>
200009ea:	4a2c      	ldr	r2, [pc, #176]	@ (20000a9c <dcd_event_handler+0x1a4>)
200009ec:	2a00      	cmp	r2, #0
200009ee:	d011      	beq.n	20000a14 <dcd_event_handler+0x11c>
200009f0:	42a3      	cmp	r3, r4
200009f2:	d8ec      	bhi.n	200009ce <dcd_event_handler+0xd6>
200009f4:	1ae3      	subs	r3, r4, r3
200009f6:	b2db      	uxtb	r3, r3
200009f8:	2b00      	cmp	r3, #0
200009fa:	d1f0      	bne.n	200009de <dcd_event_handler+0xe6>
200009fc:	005a      	lsls	r2, r3, #1
200009fe:	18d3      	adds	r3, r2, r3
20000a00:	00db      	lsls	r3, r3, #3
20000a02:	4a27      	ldr	r2, [pc, #156]	@ (20000aa0 <dcd_event_handler+0x1a8>)
20000a04:	189b      	adds	r3, r3, r2
20000a06:	695b      	ldr	r3, [r3, #20]
20000a08:	2b00      	cmp	r3, #0
20000a0a:	d0e8      	beq.n	200009de <dcd_event_handler+0xe6>
20000a0c:	7828      	ldrb	r0, [r5, #0]
20000a0e:	6869      	ldr	r1, [r5, #4]
20000a10:	4798      	blx	r3
20000a12:	e7e4      	b.n	200009de <dcd_event_handler+0xe6>
20000a14:	0023      	movs	r3, r4
20000a16:	e7ef      	b.n	200009f8 <dcd_event_handler+0x100>
20000a18:	4b1c      	ldr	r3, [pc, #112]	@ (20000a8c <dcd_event_handler+0x194>)
20000a1a:	781b      	ldrb	r3, [r3, #0]
20000a1c:	075b      	lsls	r3, r3, #29
20000a1e:	d5b8      	bpl.n	20000992 <dcd_event_handler+0x9a>
20000a20:	4a1a      	ldr	r2, [pc, #104]	@ (20000a8c <dcd_event_handler+0x194>)
20000a22:	7813      	ldrb	r3, [r2, #0]
20000a24:	2104      	movs	r1, #4
20000a26:	438b      	bics	r3, r1
20000a28:	7013      	strb	r3, [r2, #0]
20000a2a:	220c      	movs	r2, #12
20000a2c:	2100      	movs	r1, #0
20000a2e:	a801      	add	r0, sp, #4
20000a30:	f000 f862 	bl	20000af8 <____wrap_memset_veneer>
20000a34:	782b      	ldrb	r3, [r5, #0]
20000a36:	466a      	mov	r2, sp
20000a38:	7113      	strb	r3, [r2, #4]
20000a3a:	2305      	movs	r3, #5
20000a3c:	7153      	strb	r3, [r2, #5]
20000a3e:	4b14      	ldr	r3, [pc, #80]	@ (20000a90 <dcd_event_handler+0x198>)
20000a40:	681c      	ldr	r4, [r3, #0]
20000a42:	0020      	movs	r0, r4
20000a44:	3014      	adds	r0, #20
20000a46:	f000 f82f 	bl	20000aa8 <__critical_section_enter_blocking_veneer>
20000a4a:	a901      	add	r1, sp, #4
20000a4c:	0020      	movs	r0, r4
20000a4e:	f000 f833 	bl	20000ab8 <__tu_fifo_write_veneer>
20000a52:	6962      	ldr	r2, [r4, #20]
20000a54:	69a3      	ldr	r3, [r4, #24]
20000a56:	f3bf 8f5f 	dmb	sy
20000a5a:	2100      	movs	r1, #0
20000a5c:	6011      	str	r1, [r2, #0]
20000a5e:	f383 8810 	msr	PRIMASK, r3
20000a62:	e796      	b.n	20000992 <dcd_event_handler+0x9a>
20000a64:	4b0a      	ldr	r3, [pc, #40]	@ (20000a90 <dcd_event_handler+0x198>)
20000a66:	681c      	ldr	r4, [r3, #0]
20000a68:	0020      	movs	r0, r4
20000a6a:	3014      	adds	r0, #20
20000a6c:	f000 f81c 	bl	20000aa8 <__critical_section_enter_blocking_veneer>
20000a70:	0029      	movs	r1, r5
20000a72:	0020      	movs	r0, r4
20000a74:	f000 f820 	bl	20000ab8 <__tu_fifo_write_veneer>
20000a78:	6962      	ldr	r2, [r4, #20]
20000a7a:	69a3      	ldr	r3, [r4, #24]
20000a7c:	f3bf 8f5f 	dmb	sy
20000a80:	2100      	movs	r1, #0
20000a82:	6011      	str	r1, [r2, #0]
20000a84:	f383 8810 	msr	PRIMASK, r3
20000a88:	e783      	b.n	20000992 <dcd_event_handler+0x9a>
20000a8a:	46c0      	nop			@ (mov r8, r8)
20000a8c:	20001bbc 	.word	0x20001bbc
20000a90:	20001c14 	.word	0x20001c14
20000a94:	20001894 	.word	0x20001894
20000a98:	2000254c 	.word	0x2000254c
20000a9c:	10007911 	.word	0x10007911
20000aa0:	1000caf0 	.word	0x1000caf0

20000aa4 <__aeabi_idiv0>:
20000aa4:	4770      	bx	lr
20000aa6:	46c0      	nop			@ (mov r8, r8)

20000aa8 <__critical_section_enter_blocking_veneer>:
20000aa8:	b401      	push	{r0}
20000aaa:	4802      	ldr	r0, [pc, #8]	@ (20000ab4 <__critical_section_enter_blocking_veneer+0xc>)
20000aac:	4684      	mov	ip, r0
20000aae:	bc01      	pop	{r0}
20000ab0:	4760      	bx	ip
20000ab2:	bf00      	nop
20000ab4:	10008351 	.word	0x10008351

20000ab8 <__tu_fifo_write_veneer>:
20000ab8:	b401      	push	{r0}
20000aba:	4802      	ldr	r0, [pc, #8]	@ (20000ac4 <__tu_fifo_write_veneer+0xc>)
20000abc:	4684      	mov	ip, r0
20000abe:	bc01      	pop	{r0}
20000ac0:	4760      	bx	ip
20000ac2:	bf00      	nop
20000ac4:	10009d7b 	.word	0x10009d7b

20000ac8 <__best_effort_wfe_or_timeout_veneer>:
20000ac8:	b401      	push	{r0}
20000aca:	4802      	ldr	r0, [pc, #8]	@ (20000ad4 <__best_effort_wfe_or_timeout_veneer+0xc>)
20000acc:	4684      	mov	ip, r0
20000ace:	bc01      	pop	{r0}
20000ad0:	4760      	bx	ip
20000ad2:	bf00      	nop
20000ad4:	10003a4d 	.word	0x10003a4d

20000ad8 <____wrap_memcpy_veneer>:
20000ad8:	b401      	push	{r0}
20000ada:	4802      	ldr	r0, [pc, #8]	@ (20000ae4 <____wrap_memcpy_veneer+0xc>)
20000adc:	4684      	mov	ip, r0
20000ade:	bc01      	pop	{r0}
20000ae0:	4760      	bx	ip
20000ae2:	bf00      	nop
20000ae4:	100073d1 	.word	0x100073d1

20000ae8 <__make_timeout_time_ms_veneer>:
20000ae8:	b401      	push	{r0}
20000aea:	4802      	ldr	r0, [pc, #8]	@ (20000af4 <__make_timeout_time_ms_veneer+0xc>)
20000aec:	4684      	mov	ip, r0
20000aee:	bc01      	pop	{r0}
20000af0:	4760      	bx	ip
20000af2:	bf00      	nop
20000af4:	1000315b 	.word	0x1000315b

20000af8 <____wrap_memset_veneer>:
20000af8:	b401      	push	{r0}
20000afa:	4802      	ldr	r0, [pc, #8]	@ (20000b04 <____wrap_memset_veneer+0xc>)
20000afc:	4684      	mov	ip, r0
20000afe:	bc01      	pop	{r0}
20000b00:	4760      	bx	ip
20000b02:	bf00      	nop
20000b04:	100073c5 	.word	0x100073c5

20000b08 <____assert_func_veneer>:
20000b08:	b401      	push	{r0}
20000b0a:	4802      	ldr	r0, [pc, #8]	@ (20000b14 <____assert_func_veneer+0xc>)
20000b0c:	4684      	mov	ip, r0
20000b0e:	bc01      	pop	{r0}
20000b10:	4760      	bx	ip
20000b12:	bf00      	nop
20000b14:	10004551 	.word	0x10004551

20000b18 <__dcd_event_sof_veneer>:
20000b18:	b401      	push	{r0}
20000b1a:	4802      	ldr	r0, [pc, #8]	@ (20000b24 <__dcd_event_sof_veneer+0xc>)
20000b1c:	4684      	mov	ip, r0
20000b1e:	bc01      	pop	{r0}
20000b20:	4760      	bx	ip
20000b22:	bf00      	nop
20000b24:	10008025 	.word	0x10008025

20000b28 <__hw_endpoint_get_by_addr_veneer>:
20000b28:	b401      	push	{r0}
20000b2a:	4802      	ldr	r0, [pc, #8]	@ (20000b34 <__hw_endpoint_get_by_addr_veneer+0xc>)
20000b2c:	4684      	mov	ip, r0
20000b2e:	bc01      	pop	{r0}
20000b30:	4760      	bx	ip
20000b32:	bf00      	nop
20000b34:	10007f15 	.word	0x10007f15

20000b38 <__panic_veneer>:
20000b38:	b401      	push	{r0}
20000b3a:	4802      	ldr	r0, [pc, #8]	@ (20000b44 <__panic_veneer+0xc>)
20000b3c:	4684      	mov	ip, r0
20000b3e:	bc01      	pop	{r0}
20000b40:	4760      	bx	ip
20000b42:	bf00      	nop
20000b44:	10004681 	.word	0x10004681

20000b48 <current_CW_bittime_us>:
20000b48:	0000ea60 00000000                       `.......

20000b50 <current_CW_speed>:
20000b50:	                                         ..

20000b52 <current_char_delay>:
20000b52:	                                         ..

20000b54 <current_bit_time>:
20000b54:	                                         .J

20000b56 <current_baudrate>:
20000b56:	                                         2.

20000b58 <current_frequency_shift>:
20000b58:	0000007d 00000000                       }.......

20000b60 <current_center_freq>:
20000b60:	006c5660 00000000                       `Vl.....

20000b68 <pll_freq_mark>:
20000b68:	00000045 00000000                       E.......

20000b70 <ascii2baudot>:
20000b70:	40404040 2b404034 40424440 40404842     @@@@4@@+@DB@BH@@
20000b80:	40404040 40404040 40404040 40404040     @@@@@@@@@@@@@@@@
20000b90:	40252d44 253a4029 4040322f 3d3c232c     D-%@)@:%/2@@,#<=
20000ba0:	21333736 2735302a 3e2e3826 39404040     673!*05'&8.>@@@9
20000bb0:	0e190340 1a0d0109 0f0b0614 180c1c12     @...............
20000bc0:	050a1716 131e0710 4011151d 40404040     ...........@@@@@
20000bd0:	0e190340 1a0d0109 0f0b0614 180c1c12     @...............
20000be0:	050a1716 131e0710 4011151d 5f404040     ...........@@@@_
20000bf0:	00005b5f                                _[..

20000bf4 <CW_letters_len>:
20000bf4:	00000006 0000001d 00000000 00000000     ................
	...
20000c20:	00000015 0000001d 00000019 0000001b     ................
20000c30:	00000015 0000001b 00000019 00000017     ................
20000c40:	00000015 00000013 00000011 00000013     ................
20000c50:	00000015 00000017 00000019 0000001e     ................
20000c60:	0000001b 00000000 00000015 00000000     ................
20000c70:	00000019 00000000 00000007 0000000f     ................
20000c80:	00000011 0000000b 00000001 0000000f     ................
20000c90:	0000000d 0000000d 00000005 00000013     ................
20000ca0:	0000000d 0000000f 00000009 00000007     ................
20000cb0:	0000000f 00000011 00000013 0000000b     ................
20000cc0:	00000009 00000003 0000000b 0000000f     ................
20000cd0:	0000000d 00000011 00000013 00000011     ................

20000ce0 <CW_letters>:
20000ce0:	00000000 1c4711c7 00000000 00000000     ......G.........
	...
20000d0c:	0011c471 1c7111c7 01c44447 04711c47     q.....q.GD..G.q.
20000d1c:	001c4471 071c71c7 011c71c7 004471c7     qD...q...q...qD.
20000d2c:	001111c7 00044447 00011111 00071111     ....GD..........
20000d3c:	001c7111 0071c711 01c71c71 38e38888     .q....q.q......8
20000d4c:	0711c471 00000000 001c4447 00000000     q.......GD......
20000d5c:	0111c711 00000000 00000047 00007111     ........G....q..
20000d6c:	0001c471 00000711 00000001 00004471     q...........qD..
20000d7c:	00001c71 00001111 00000011 000471c7     q............q..
20000d8c:	00001c47 00004711 000001c7 00000071     G....G......q...
20000d9c:	000071c7 00011c71 00071c47 00000471     .q..q...G...q...
20000dac:	00000111 00000007 00000447 00004447     ........G...GD..
20000dbc:	000011c7 0001c447 000711c7 0001c711     ....G...........

20000dcc <last_run_eeprom_btn_state>:
20000dcc:	                                         .

20000dcd <last_prog_btn_state>:
20000dcd:	                                         .

20000dce <current_btn_preset>:
20000dce:	                                         .

20000dcf <striped_spin_lock_num>:
20000dcf:	                                         .

20000dd0 <irq_handler_chain_slots>:
20000dd0:	00000000 	.word	0x00000000
20000dd4:	00010000 	.word	0x00010000
	...
20000de0:	00020000 	.word	0x00020000
	...
20000dec:	00030000 	.word	0x00030000
	...
20000df8:	00ff0000 	.word	0x00ff0000
20000dfc:	00000000 	.word	0x00000000

20000e00 <irq_handler_chain_first_slot>:
20000e00:	b501      	push	{r0, lr}
20000e02:	6848      	ldr	r0, [r1, #4]
20000e04:	3101      	adds	r1, #1
20000e06:	468e      	mov	lr, r1
20000e08:	4700      	bx	r0

20000e0a <irq_handler_chain_remove_tail>:
20000e0a:	4670      	mov	r0, lr
20000e0c:	3809      	subs	r0, #9
20000e0e:	4901      	ldr	r1, [pc, #4]	@ (20000e14 <irq_handler_chain_remove_tail+0xa>)
20000e10:	4788      	blx	r1
20000e12:	bd01      	pop	{r0, pc}
20000e14:	10002f89 	.word	0x10002f89

20000e18 <default_alarm_pool>:
20000e18:	20000e30 00000000 20001450 20001e44     0.. ....P.. D.. 
	...

20000e30 <default_alarm_pool_heap>:
20000e30:	20001e54 00000000 00000000 00000010     T.. ............

20000e40 <aeabi_bits_funcs>:
20000e40:	00003350 	.word	0x00003350
20000e44:	0000334c 	.word	0x0000334c
20000e48:	00003354 	.word	0x00003354
20000e4c:	00003352 	.word	0x00003352

20000e50 <aeabi_bits_funcs_end>:
20000e50:	0000534d 	.word	0x0000534d
20000e54:	0000434d 	.word	0x0000434d
20000e58:	00003453 	.word	0x00003453
20000e5c:	00003443 	.word	0x00003443

20000e60 <stdio_usb>:
20000e60:	10007d15 00000000 10007c8d 10007945     .}.......|..Ey..
20000e70:	00000000 00000100                       ........

20000e78 <ep_dir_string>:
20000e78:	1000c300 1000c304                       ........

20000e80 <_usbd_qdef>:
20000e80:	20001c18 000c0010 00000000 00000000     ... ............
	...

20000e9c <_usbd_rhport>:
20000e9c:	000000ff                                ....

20000ea0 <i2c0_inst>:
20000ea0:	40044000 00000000                       .@.@....

20000ea8 <_impure_ptr>:
20000ea8:	20000eb0 00000000                       ... ....

20000eb0 <_impure_data>:
20000eb0:	00000000 200015c4 2000162c 20001694     ....... ,.. ... 
	...
20000f48:	00000001 00000000 abcd330e e66d1234     .........3..4.m.
20000f58:	0005deec 0000000b 00000000 00000000     ................
	...

20000fd0 <__malloc_sbrk_base>:
20000fd0:	ffffffff                                ....

20000fd4 <__malloc_trim_threshold>:
20000fd4:	00020000                                ....

20000fd8 <__malloc_av_>:
	...
20000fe0:	20000fd8 20000fd8 20000fe0 20000fe0     ... ... ... ... 
20000ff0:	20000fe8 20000fe8 20000ff0 20000ff0     ... ... ... ... 
20001000:	20000ff8 20000ff8 20001000 20001000     ... ... ... ... 
20001010:	20001008 20001008 20001010 20001010     ... ... ... ... 
20001020:	20001018 20001018 20001020 20001020     ... ...  ..  .. 
20001030:	20001028 20001028 20001030 20001030     (.. (.. 0.. 0.. 
20001040:	20001038 20001038 20001040 20001040     8.. 8.. @.. @.. 
20001050:	20001048 20001048 20001050 20001050     H.. H.. P.. P.. 
20001060:	20001058 20001058 20001060 20001060     X.. X.. `.. `.. 
20001070:	20001068 20001068 20001070 20001070     h.. h.. p.. p.. 
20001080:	20001078 20001078 20001080 20001080     x.. x.. ... ... 
20001090:	20001088 20001088 20001090 20001090     ... ... ... ... 
200010a0:	20001098 20001098 200010a0 200010a0     ... ... ... ... 
200010b0:	200010a8 200010a8 200010b0 200010b0     ... ... ... ... 
200010c0:	200010b8 200010b8 200010c0 200010c0     ... ... ... ... 
200010d0:	200010c8 200010c8 200010d0 200010d0     ... ... ... ... 
200010e0:	200010d8 200010d8 200010e0 200010e0     ... ... ... ... 
200010f0:	200010e8 200010e8 200010f0 200010f0     ... ... ... ... 
20001100:	200010f8 200010f8 20001100 20001100     ... ... ... ... 
20001110:	20001108 20001108 20001110 20001110     ... ... ... ... 
20001120:	20001118 20001118 20001120 20001120     ... ...  ..  .. 
20001130:	20001128 20001128 20001130 20001130     (.. (.. 0.. 0.. 
20001140:	20001138 20001138 20001140 20001140     8.. 8.. @.. @.. 
20001150:	20001148 20001148 20001150 20001150     H.. H.. P.. P.. 
20001160:	20001158 20001158 20001160 20001160     X.. X.. `.. `.. 
20001170:	20001168 20001168 20001170 20001170     h.. h.. p.. p.. 
20001180:	20001178 20001178 20001180 20001180     x.. x.. ... ... 
20001190:	20001188 20001188 20001190 20001190     ... ... ... ... 
200011a0:	20001198 20001198 200011a0 200011a0     ... ... ... ... 
200011b0:	200011a8 200011a8 200011b0 200011b0     ... ... ... ... 
200011c0:	200011b8 200011b8 200011c0 200011c0     ... ... ... ... 
200011d0:	200011c8 200011c8 200011d0 200011d0     ... ... ... ... 
200011e0:	200011d8 200011d8 200011e0 200011e0     ... ... ... ... 
200011f0:	200011e8 200011e8 200011f0 200011f0     ... ... ... ... 
20001200:	200011f8 200011f8 20001200 20001200     ... ... ... ... 
20001210:	20001208 20001208 20001210 20001210     ... ... ... ... 
20001220:	20001218 20001218 20001220 20001220     ... ...  ..  .. 
20001230:	20001228 20001228 20001230 20001230     (.. (.. 0.. 0.. 
20001240:	20001238 20001238 20001240 20001240     8.. 8.. @.. @.. 
20001250:	20001248 20001248 20001250 20001250     H.. H.. P.. P.. 
20001260:	20001258 20001258 20001260 20001260     X.. X.. `.. `.. 
20001270:	20001268 20001268 20001270 20001270     h.. h.. p.. p.. 
20001280:	20001278 20001278 20001280 20001280     x.. x.. ... ... 
20001290:	20001288 20001288 20001290 20001290     ... ... ... ... 
200012a0:	20001298 20001298 200012a0 200012a0     ... ... ... ... 
200012b0:	200012a8 200012a8 200012b0 200012b0     ... ... ... ... 
200012c0:	200012b8 200012b8 200012c0 200012c0     ... ... ... ... 
200012d0:	200012c8 200012c8 200012d0 200012d0     ... ... ... ... 
200012e0:	200012d8 200012d8 200012e0 200012e0     ... ... ... ... 
200012f0:	200012e8 200012e8 200012f0 200012f0     ... ... ... ... 
20001300:	200012f8 200012f8 20001300 20001300     ... ... ... ... 
20001310:	20001308 20001308 20001310 20001310     ... ... ... ... 
20001320:	20001318 20001318 20001320 20001320     ... ...  ..  .. 
20001330:	20001328 20001328 20001330 20001330     (.. (.. 0.. 0.. 
20001340:	20001338 20001338 20001340 20001340     8.. 8.. @.. @.. 
20001350:	20001348 20001348 20001350 20001350     H.. H.. P.. P.. 
20001360:	20001358 20001358 20001360 20001360     X.. X.. `.. `.. 
20001370:	20001368 20001368 20001370 20001370     h.. h.. p.. p.. 
20001380:	20001378 20001378 20001380 20001380     x.. x.. ... ... 
20001390:	20001388 20001388 20001390 20001390     ... ... ... ... 
200013a0:	20001398 20001398 200013a0 200013a0     ... ... ... ... 
200013b0:	200013a8 200013a8 200013b0 200013b0     ... ... ... ... 
200013c0:	200013b8 200013b8 200013c0 200013c0     ... ... ... ... 
200013d0:	200013c8 200013c8 200013d0 200013d0     ... ... ... ... 

200013e0 <malloc_mutex>:
	...

200013e8 <print_mutex>:
	...

200013f0 <__mutex_array_end>:
200013f0:	100073b5 	.word	0x100073b5
200013f4:	10005869 	.word	0x10005869
200013f8:	10005fd9 	.word	0x10005fd9
200013fc:	10007171 	.word	0x10007171

20001400 <__init_array_start>:
20001400:	1000acf1 	.word	0x1000acf1

20001404 <__frame_dummy_init_array_entry>:
20001404:	10000331 10007e69                       1...i~..
